BL51 BANKED LINKER/LOCATER V6.22                                                        01/06/2017  14:57:29  PAGE 1


BL51 BANKED LINKER/LOCATER V6.22, INVOKED BY:
D:\KEIL_V5\C51\BIN\BL51.EXE COMMON {.\Bin\Main.obj}, COMMON {.\Bin\Int.obj}, COMMON {.\Bin\ScalerAccess.obj}, COMMON {.\
>> Bin\OSDAPI_Common.obj}, COMMON {.\Bin\EmbedCheckSum.obj}, COMMON {.\Lib\fe2p_large_3.13.LIB}, COMMON {.\Bin\Scaler_DP
>> _Common.obj}, COMMON {.\Bin\STARTUP_A000_1300.obj}, COMMON {.\Bin\set_b62.obj}, COMMON {.\Bin\NT68F631_8bank.obj}, CO
>> MMON {.\Bin\GamaApi_Common.obj}, BANK0 {.\Bin\AutoAdj.obj}, BANK0 {.\Bin\AutoAdjConfig.obj}, BANK0 {.\Bin\SyncHandler
>> .obj}, BANK0 {.\Bin\ModeHandler.obj}, BANK0 {.\Bin\ModeTable.obj}, BANK0 {.\Bin\ModeSearch.obj}, BANK0 {.\Bin\ModeCon
>> fig.obj}, BANK0 {.\Bin\NR.obj}, BANK0 {.\Bin\Nvram.obj}, BANK0 {.\Bin\NvramIIC.obj}, BANK0 {.\Bin\SysAPI.obj}, BANK0 
>> {.\Bin\Mcu.obj}, BANK0 {.\Bin\McuADC.obj}, BANK0 {.\Bin\McuDDC.obj}, BANK0 {.\Bin\McuIO.obj}, BANK0 {.\Bin\McuHwIIC.o
>> bj}, BANK0 {.\Bin\Board.obj}, BANK0 {.\Bin\KeyPad.obj}, BANK0 {.\Bin\Misc.obj}, BANK0 {.\Bin\Ram.obj}, BANK0 {.\Bin\P
>> anel.obj}, BANK0 {.\Bin\FpgaIIC.obj}, BANK0 {.\Bin\AD9884.obj}, BANK0 {.\Bin\ScalerReg.obj}, BANK0 {.\Bin\Scaler_Comm
>> on.obj}, BANK0 {.\Bin\Scaler_HDMI.obj}, BANK0 {.\Bin\Scaler_LedDriver.obj}, BANK0 {.\Bin\Scaler_LVDS.obj}, BANK0 {.\B
>> in\Scaler_Power.obj}, BANK0 {.\Bin\Scaler_MMU.obj}, BANK0 {.\Bin\Scaler_Sync.obj}, BANK0 {.\Bin\Scaler_TMDS.obj}, BAN
>> K0 {.\Bin\Fe2p_API.obj}, BANK0 {.\Bin\McuReg.obj}, BANK0 {.\Bin\Scaler_CSC.obj}, BANK0 {.\Bin\McuMisc.obj}, BANK0 {.\
>> Bin\KeyPadStressTest.obj}, BANK1 {.\Bin\OSDIndex.obj}, BANK1 {.\Bin\OSDView.obj}, BANK1 {.\Bin\KeyCtrl.obj}, BANK1 {.
>> \Bin\Gama_4.obj}, BANK1 {.\Bin\DBC.obj}, BANK1 {.\Bin\DBCAPI.obj}, BANK2 {.\Bin\APPCtrl.obj}, BANK2 {.\Bin\EventHandl
>> e.obj}, BANK2 {.\Bin\OSDFont.obj}, BANK3 {.\Bin\Scaler_Display.obj}, BANK3 {.\Bin\ColorConfig.obj}, BANK3 {.\Lib\Colo
>> rEngine_Large.LIB}, BANK3 {.\Bin\LD.obj}, BANK3 {.\Bin\AT.obj}, BANK3 {.\Bin\MHL.obj}, BANK3 {.\Bin\SRAPI.obj}, BANK3
>>  {.\Bin\LDAPI.obj}, BANK3 {.\Bin\Scaler_MHL.obj}, BANK3 {.\Bin\Scaler_DP.obj}, BANK3 {.\Bin\Scaler_DP_6502.obj}, BANK
>> 3 {.\Bin\EDP.obj}, BANK3 {.\Bin\DPTx.obj}, BANK3 {.\Bin\USBTypeC.obj}, BANK3 {.\Bin\USBTypeCFPGA.obj}, BANK3 {.\Bin\S
>> caler_FRC.obj}, BANK3 {.\Bin\USBTypeCHandler.obj}, BANK3 {.\Bin\OSDFont_TC.obj}, BANK4 {.\Bin\UserSetting.obj}, BANK4
>>  {.\Bin\SMOSDView.obj}, BANK4 {.\Bin\OSDFunc.obj}, BANK4 {.\Bin\OSDCtrl.obj}, BANK4 {.\Bin\OSDIndex3.obj}, BANK4 {.\B
>> in\Gama_3.obj}, BANK4 {.\Bin\OSDView3.obj}, BANK5 {.\Bin\Scaler_Dithering.obj}, BANK5 {.\Bin\Scaler_Capture.obj}, BAN
>> K5 {.\Bin\Gama_2.obj}, BANK5 {.\Bin\Scaler_ADC.obj}, BANK5 {.\Bin\Scaler_NR.obj}, BANK5 {.\Bin\Logo.obj}, BANK5 {.\Bi
>> n\OSDFont_SC.obj}, BANK5 {.\Bin\OSDFont_Europe.obj}, BANK6 {.\Bin\CEC.obj}, BANK6 {.\Bin\SR.obj}, BANK6 {.\Bin\Ddcci.
>> obj}, BANK6 {.\Bin\DdcciCtrl.obj}, BANK6 {.\Bin\OSDAPI2.obj}, BANK6 {.\Bin\OSDAPI.obj}, BANK6 {.\Bin\OSDAPI_Indent.ob
>> j}, BANK6 {.\Bin\Scaler_PWM.obj}, BANK6 {.\Bin\FOSDView.obj}, BANK6 {.\Bin\OSDFont_Japan.obj}, BANK6 {.\Bin\Gama_byPa
>> ss.obj}, BANK6 {.\Bin\Gama_1.obj}, BANK7 {.\Bin\Gamma.obj}, BANK7 {.\Bin\GammaAPI.obj}, BANK7 {.\Bin\ODAPI.obj}, BANK
>> 7 {.\Bin\HDCPAPI.obj}, BANK7 {.\Bin\HDCP.obj}, BANK7 {.\Bin\OSDIndex2.obj}, BANK7 {.\Bin\OD.obj}, BANK7 {.\Lib\ODTran
>> sform_Large.LIB}, BANK7 {.\Bin\OSDView2.obj} TO .\Bin\NT68875_ BANKAREA (0X0000, 0XFFFF) PRINT (.\Lst\temp.m51) RAMSI
>> ZE (256) B0 (?CO?MODETABLE (0X5000), ?CO?SCALER_COMMON) B1 (?CO?OSDINDEX (0X5000), ?CO?OSDVIEW, ?CO?GAMA_4, ?CO?DBC) 
>> B2 (?CO?OSDFONT (0X5000)) B3 (?CO?DDCCI (0X5000), ?CO?LD, ?CO?MHL, ?CO?SCALER_DP_6502, ?CO?USBTYPECHANDLER, ?CO?USBTY
>> PEC, ?CO?OSDFONT_TC, ?CO?COLORCONFIG) B4 (?CO?SMOSDVIEW (0X5000), ?CO?OSDINDEX3, ?CO?OSDCTRL, ?CO?OSDFUNC, ?CO?USERSE
>> TTING, ?CO?GAMA_3) B5 (?CO?OSDFONT_EUROPE (0X5000), ?CO?LOGO, ?CO?OSDFONT_SC, ?CO?GAMA_2) B6 (?CO?FOSDVIEW (0X5000), 
>> ?CO?OSDFONT_JAPAN, ?CO?GAMA_BYPASS, ?CO?GAMA_1, ?CO?DDCCICTRL) B7 (?CO?OSDVIEW2 (0X5000), ?CO?HDCPAPI, ?CO?GAMMA, ?CO
>> ?OD, ?CO?OSDINDEX2) CODE (0X0000-0XFFFF) XDATA (0XA000-0XA7FF, 0XB000-0XB2FF) OVERLAY (* ~  (?PR?OSDCTRL))


MEMORY MODEL: LARGE WITH FLOATING POINT ARITHMETIC


INPUT MODULES INCLUDED:
  .\Bin\Main.obj (MAIN)
  .\Bin\Int.obj (INT)
  .\Bin\ScalerAccess.obj (SCALERACCESS)
  .\Bin\OSDAPI_Common.obj (OSDAPI_COMMON)
  .\Bin\EmbedCheckSum.obj (EMBEDCHECKSUM)
  .\Bin\Scaler_DP_Common.obj (SCALER_DP_COMMON)
  .\Bin\STARTUP_A000_1300.obj (?C_STARTUP)
  .\Bin\set_b62.obj (SETB_62)
  .\Bin\NT68F631_8bank.obj (?BANK?SWITCHING)
  .\Bin\GamaApi_Common.obj (GAMAAPI_COMMON)
  .\Bin\AutoAdj.obj (AUTOADJ)
  .\Bin\AutoAdjConfig.obj (AUTOADJCONFIG)
  .\Bin\SyncHandler.obj (SYNCHANDLER)
  .\Bin\ModeHandler.obj (MODEHANDLER)
  .\Bin\ModeTable.obj (MODETABLE)
  .\Bin\ModeSearch.obj (MODESEARCH)
  .\Bin\ModeConfig.obj (MODECONFIG)
BL51 BANKED LINKER/LOCATER V6.22                                                      01/06/2017  14:57:29  PAGE 2


  .\Bin\NR.obj (NR)
  .\Bin\Nvram.obj (NVRAM)
  .\Bin\NvramIIC.obj (NVRAMIIC)
  .\Bin\SysAPI.obj (SYSAPI)
  .\Bin\Mcu.obj (MCU)
  .\Bin\McuADC.obj (MCUADC)
  .\Bin\McuDDC.obj (MCUDDC)
  .\Bin\McuIO.obj (MCUIO)
  .\Bin\McuHwIIC.obj (MCUHWIIC)
  .\Bin\Board.obj (BOARD)
  .\Bin\KeyPad.obj (KEYPAD)
  .\Bin\Misc.obj (MISC)
  .\Bin\Ram.obj (RAM)
  .\Bin\Panel.obj (PANEL)
  .\Bin\FpgaIIC.obj (FPGAIIC)
  .\Bin\AD9884.obj (AD9884)
  .\Bin\ScalerReg.obj (SCALERREG)
  .\Bin\Scaler_Common.obj (SCALER_COMMON)
  .\Bin\Scaler_HDMI.obj (SCALER_HDMI)
  .\Bin\Scaler_LedDriver.obj (SCALER_LEDDRIVER)
  .\Bin\Scaler_LVDS.obj (SCALER_LVDS)
  .\Bin\Scaler_Power.obj (SCALER_POWER)
  .\Bin\Scaler_MMU.obj (SCALER_MMU)
  .\Bin\Scaler_Sync.obj (SCALER_SYNC)
  .\Bin\Scaler_TMDS.obj (SCALER_TMDS)
  .\Bin\Fe2p_API.obj (FE2P_API)
  .\Bin\McuReg.obj (MCUREG)
  .\Bin\Scaler_CSC.obj (SCALER_CSC)
  .\Bin\McuMisc.obj (MCUMISC)
  .\Bin\KeyPadStressTest.obj (KEYPADSTRESSTEST)
  .\Bin\OSDIndex.obj (OSDINDEX)
  .\Bin\OSDView.obj (OSDVIEW)
  .\Bin\KeyCtrl.obj (KEYCTRL)
  .\Bin\Gama_4.obj (GAMA_4)
  .\Bin\DBC.obj (DBC)
  .\Bin\DBCAPI.obj (DBCAPI)
  .\Bin\APPCtrl.obj (APPCTRL)
  .\Bin\EventHandle.obj (EVENTHANDLE)
  .\Bin\OSDFont.obj (OSDFONT)
  .\Bin\Scaler_Display.obj (SCALER_DISPLAY)
  .\Bin\ColorConfig.obj (COLORCONFIG)
  .\Lib\ColorEngine_Large.LIB (BFAPI)
  .\Lib\ColorEngine_Large.LIB (MATRIX)
  .\Lib\ColorEngine_Large.LIB (DCR)
  .\Lib\ColorEngine_Large.LIB (DCR_SETDYMACE)
  .\Bin\LD.obj (LD)
  .\Bin\AT.obj (AT)
  .\Bin\MHL.obj (MHL)
  .\Bin\SRAPI.obj (SRAPI)
  .\Bin\LDAPI.obj (LDAPI)
  .\Bin\Scaler_MHL.obj (SCALER_MHL)
  .\Bin\Scaler_DP.obj (SCALER_DP)
  .\Bin\Scaler_DP_6502.obj (SCALER_DP_6502)
  .\Bin\EDP.obj (EDP)
  .\Bin\DPTx.obj (DPTX)
  .\Bin\USBTypeC.obj (USBTYPEC)
  .\Bin\USBTypeCFPGA.obj (USBTYPECFPGA)
BL51 BANKED LINKER/LOCATER V6.22                                                      01/06/2017  14:57:29  PAGE 3


  .\Bin\Scaler_FRC.obj (SCALER_FRC)
  .\Bin\USBTypeCHandler.obj (USBTYPECHANDLER)
  .\Bin\OSDFont_TC.obj (OSDFONT_TC)
  .\Bin\UserSetting.obj (USERSETTING)
  .\Bin\SMOSDView.obj (SMOSDVIEW)
  .\Bin\OSDFunc.obj (OSDFUNC)
  .\Bin\OSDCtrl.obj (OSDCTRL)
  .\Bin\OSDIndex3.obj (OSDINDEX3)
  .\Bin\Gama_3.obj (GAMA_3)
  .\Bin\OSDView3.obj (OSDVIEW3)
  .\Bin\Scaler_Dithering.obj (SCALER_DITHERING)
  .\Bin\Scaler_Capture.obj (SCALER_CAPTURE)
  .\Bin\Gama_2.obj (GAMA_2)
  .\Bin\Scaler_ADC.obj (SCALER_ADC)
  .\Bin\Scaler_NR.obj (SCALER_NR)
  .\Bin\Logo.obj (LOGO)
  .\Bin\OSDFont_SC.obj (OSDFONT_SC)
  .\Bin\OSDFont_Europe.obj (OSDFONT_EUROPE)
  .\Bin\CEC.obj (CEC)
  .\Bin\SR.obj (SR)
  .\Bin\Ddcci.obj (DDCCI)
  .\Bin\DdcciCtrl.obj (DDCCICTRL)
  .\Bin\OSDAPI2.obj (OSDAPI2)
  .\Bin\OSDAPI.obj (OSDAPI)
  .\Bin\OSDAPI_Indent.obj (OSDAPI_INDENT)
  .\Bin\Scaler_PWM.obj (SCALER_PWM)
  .\Bin\FOSDView.obj (FOSDVIEW)
  .\Bin\OSDFont_Japan.obj (OSDFONT_JAPAN)
  .\Bin\Gama_byPass.obj (GAMA_BYPASS)
  .\Bin\Gama_1.obj (GAMA_1)
  .\Bin\Gamma.obj (GAMMA)
  .\Bin\GammaAPI.obj (GAMMAAPI)
  .\Bin\ODAPI.obj (ODAPI)
  .\Bin\HDCPAPI.obj (HDCPAPI)
  .\Bin\HDCP.obj (HDCP)
  .\Bin\OSDIndex2.obj (OSDINDEX2)
  .\Bin\OD.obj (OD)
  .\Bin\OSDView2.obj (OSDVIEW2)
  .\Lib\fe2p_large_3.13.LIB (FE2P)
  D:\KEIL_V5\C51\LIB\C51FPL.LIB (?C?FPADD)
  D:\KEIL_V5\C51\LIB\C51FPL.LIB (?C?FPMUL)
  D:\KEIL_V5\C51\LIB\C51FPL.LIB (?C?FPDIV)
  D:\KEIL_V5\C51\LIB\C51FPL.LIB (?C?FPCMP)
  D:\KEIL_V5\C51\LIB\C51FPL.LIB (?C?FCAST)
  D:\KEIL_V5\C51\LIB\C51FPL.LIB (?C?CASTF)
  D:\KEIL_V5\C51\LIB\C51FPL.LIB (PRINTF)
  D:\KEIL_V5\C51\LIB\C51FPL.LIB (?C?FPGETOPN)
  D:\KEIL_V5\C51\LIB\C51FPL.LIB (?C?FPROUND)
  D:\KEIL_V5\C51\LIB\C51FPL.LIB (?C?FPCONVERT)
  D:\KEIL_V5\C51\LIB\C51FPL.LIB (?C?FTNPWR)
  D:\KEIL_V5\C51\LIB\C51L.LIB (?C_INIT)
  D:\KEIL_V5\C51\LIB\C51L.LIB (?C?COPY)
  D:\KEIL_V5\C51\LIB\C51L.LIB (?C?CLDPTR)
  D:\KEIL_V5\C51\LIB\C51L.LIB (?C?CLDOPTR)
  D:\KEIL_V5\C51\LIB\C51L.LIB (?C?CILDPTR)
  D:\KEIL_V5\C51\LIB\C51L.LIB (?C?CSTPTR)
  D:\KEIL_V5\C51\LIB\C51L.LIB (?C?CSTOPTR)
BL51 BANKED LINKER/LOCATER V6.22                                                      01/06/2017  14:57:29  PAGE 4


  D:\KEIL_V5\C51\LIB\C51L.LIB (?C?IMUL)
  D:\KEIL_V5\C51\LIB\C51L.LIB (?C?UIDIV)
  D:\KEIL_V5\C51\LIB\C51L.LIB (?C?SIDIV)
  D:\KEIL_V5\C51\LIB\C51L.LIB (?C?IILDX)
  D:\KEIL_V5\C51\LIB\C51L.LIB (?C?ILDIX)
  D:\KEIL_V5\C51\LIB\C51L.LIB (?C?ILDPTR)
  D:\KEIL_V5\C51\LIB\C51L.LIB (?C?ILDOPTR)
  D:\KEIL_V5\C51\LIB\C51L.LIB (?C?ISTPTR)
  D:\KEIL_V5\C51\LIB\C51L.LIB (?C?ISTOPTR)
  D:\KEIL_V5\C51\LIB\C51L.LIB (?C?LMUL)
  D:\KEIL_V5\C51\LIB\C51L.LIB (?C?ULDIV)
  D:\KEIL_V5\C51\LIB\C51L.LIB (?C?LNEG)
  D:\KEIL_V5\C51\LIB\C51L.LIB (?C?SLCMP)
  D:\KEIL_V5\C51\LIB\C51L.LIB (?C?ULCMP)
  D:\KEIL_V5\C51\LIB\C51L.LIB (?C?ULSHR)
  D:\KEIL_V5\C51\LIB\C51L.LIB (?C?SLSHR)
  D:\KEIL_V5\C51\LIB\C51L.LIB (?C?LSHL)
  D:\KEIL_V5\C51\LIB\C51L.LIB (?C?LLDPTR)
  D:\KEIL_V5\C51\LIB\C51L.LIB (?C?LLDXDATA)
  D:\KEIL_V5\C51\LIB\C51L.LIB (?C?LSTXDATA)
  D:\KEIL_V5\C51\LIB\C51L.LIB (?C?LSTKXDATA)
  D:\KEIL_V5\C51\LIB\C51L.LIB (?C?OFFX256)
  D:\KEIL_V5\C51\LIB\C51L.LIB (?C?OFFXADD)
  D:\KEIL_V5\C51\LIB\C51L.LIB (?C?PLDXDATA)
  D:\KEIL_V5\C51\LIB\C51L.LIB (?C?PLDIXDATA)
  D:\KEIL_V5\C51\LIB\C51L.LIB (?C?PSTXDATA)
  D:\KEIL_V5\C51\LIB\C51L.LIB (?C?PLDPTR)
  D:\KEIL_V5\C51\LIB\C51L.LIB (?C?PLDOPTR)
  D:\KEIL_V5\C51\LIB\C51L.LIB (?C?CCASE)
  D:\KEIL_V5\C51\LIB\C51L.LIB (?C?ICASE)
  D:\KEIL_V5\C51\LIB\C51L.LIB (?C?ICALL)
  D:\KEIL_V5\C51\LIB\C51L.LIB (?C?LIMUL)
  D:\KEIL_V5\C51\LIB\C51L.LIB (ABS)
  D:\KEIL_V5\C51\LIB\C51L.LIB (LABS)
  D:\KEIL_V5\C51\LIB\C51L.LIB (?C?LLDIDATA)
  D:\KEIL_V5\C51\LIB\C51L.LIB (?C?LLDPDATA)
  D:\KEIL_V5\C51\LIB\C51L.LIB (?C?LLDCODE)
  D:\KEIL_V5\C51\LIB\C51L.LIB (?C?PLDIDATA)
  D:\KEIL_V5\C51\LIB\C51L.LIB (?C?PLDPDATA)
  D:\KEIL_V5\C51\LIB\C51L.LIB (?C?PLDCODE)


LINK MAP OF MODULE:  .\Bin\NT68875_ (MAIN)


            TYPE    BASE      LENGTH    RELOCATION   SEGMENT NAME
            -----------------------------------------------------

            * * * * * * *   D A T A   M E M O R Y   * * * * * * *
            REG     0000H     0008H     ABSOLUTE     "REG BANK 0"
            REG     0008H     0008H     ABSOLUTE     "REG BANK 1"
            REG     0010H     0008H     ABSOLUTE     "REG BANK 2"
            REG     0018H     0008H     ABSOLUTE     "REG BANK 3"
            BIT     0020H.0   0001H.3   UNIT         _BIT_GROUP_
            BIT     0021H.3   0000H.5   UNIT         ?BI?COLORCONFIG
            BIT     0022H.0   0000H.5   UNIT         ?BI?OSDVIEW2
            BIT     0022H.5   0000H.3   UNIT         ?BI?OSDVIEW
BL51 BANKED LINKER/LOCATER V6.22                                                      01/06/2017  14:57:29  PAGE 5


            BIT     0023H.0   0000H.2   UNIT         ?BI?AUTOADJ
            BIT     0023H.2   0000H.2   UNIT         ?BI?SCALER_HDMI
            BIT     0023H.4   0000H.2   UNIT         ?BI?SCALER_POWER
            BIT     0023H.6   0000H.2   UNIT         ?BI?SCALER_TMDS
            BIT     0024H.0   0000H.2   UNIT         ?BI?DBC
            BIT     0024H.2   0000H.2   UNIT         ?BI?SCALER_DP
            BIT     0024H.4   0000H.1   UNIT         ?BI?INT
            BIT     0024H.5   0000H.1   UNIT         ?BI?SYNCHANDLER
            BIT     0024H.6   0000H.1   UNIT         ?BI?SYSAPI
            BIT     0024H.7   0000H.1   UNIT         ?BI?MCU
            BIT     0025H.0   0000H.1   UNIT         ?BI?RAM
            BIT     0025H.1   0000H.1   UNIT         ?BI?FE2P_API
            BIT     0025H.2   0000H.1   UNIT         ?BI?_OSDSHOWTOPPAGEICON?OSDVIEW
            BIT     0025H.3   0000H.1   UNIT         ?BI?_OSDCLEARLAYER4BYITEM?OSDVIEW
            BIT     0025H.4   0000H.1   UNIT         ?BI?APPCTRL
            BIT     0025H.5   0000H.1   UNIT         ?BI?DCR_SETDYMACE
            BIT     0025H.6   0000H.1   UNIT         ?BI?OSDRESETSMARTREMIDERTIMER?OSDCTRL
            BIT     0025H.7   0000H.1   UNIT         ?BI?OSDCTRL
            BIT     0026H.0   0000H.1   UNIT         ?BI?DDCCI
            BIT     0026H.1   0000H.1   UNIT         ?BI?_OSDUNSELECTDIALOGITEM?OSDVIEW2
            BIT     0026H.2   0000H.1   UNIT         ?BI?_OSDUNSELECTLAYER1ITEM?OSDVIEW2
            BIT     0026H.3   0000H.1   UNIT         ?BI?_OSDUNSELECTLAYER3ITEM?OSDVIEW2
            BIT     0026H.4   0000H.1   UNIT         ?BI?_OSDUNSELECTLAYER4ITEM?OSDVIEW2
            BIT     0026H.5   0000H.1   UNIT         ?BI?_GETCUSTOMEKEYSTATE?OSDVIEW2
            BIT     0026H.6   0000H.1   UNIT         ?BI?_OSDSHOWTOPPAGESTRING?OSDVIEW2
                    0026H.7   0000H.1                *** GAP ***
            DATA    0027H     0012H     UNIT         _DATA_GROUP_
            DATA    0039H     0002H     UNIT         ?DT?MISC
            IDATA   003BH     000AH     UNIT         ?ID?OSDAPI_INDENT
            IDATA   0045H     0008H     UNIT         ?ID?INT
            IDATA   004DH     0007H     UNIT         ?ID?DDCCI
            IDATA   0054H     0006H     UNIT         _IDATA_GROUP_
            IDATA   005AH     0001H     UNIT         ?STACK

            * * * * * * *  X D A T A   M E M O R Y  * * * * * * *
                    0000H     089DH                  *** GAP ***
            XDATA   089DH     0001H     ABSOLUTE     
                    089EH     7762H                  *** GAP ***
            XDATA   8000H     0001H     ABSOLUTE     
            XDATA   8001H     0001H     ABSOLUTE     
            XDATA   8002H     0001H     ABSOLUTE     
            XDATA   8003H     0001H     ABSOLUTE     
            XDATA   8004H     0001H     ABSOLUTE     
            XDATA   8005H     0001H     ABSOLUTE     
            XDATA   8006H     0001H     ABSOLUTE     
            XDATA   8007H     0001H     ABSOLUTE     
            XDATA   8008H     0001H     ABSOLUTE     
            XDATA   8009H     0001H     ABSOLUTE     
            XDATA   800AH     0001H     ABSOLUTE     
            XDATA   800BH     0001H     ABSOLUTE     
            XDATA   800CH     0001H     ABSOLUTE     
            XDATA   800DH     0001H     ABSOLUTE     
            XDATA   800EH     0001H     ABSOLUTE     
            XDATA   800FH     0001H     ABSOLUTE     
            XDATA   8010H     0001H     ABSOLUTE     
            XDATA   8011H     0001H     ABSOLUTE     
            XDATA   8012H     0001H     ABSOLUTE     
BL51 BANKED LINKER/LOCATER V6.22                                                      01/06/2017  14:57:29  PAGE 6


            XDATA   8013H     0001H     ABSOLUTE     
            XDATA   8014H     0001H     ABSOLUTE     
            XDATA   8015H     0001H     ABSOLUTE     
            XDATA   8016H     0001H     ABSOLUTE     
                    8017H     0007H                  *** GAP ***
            XDATA   801EH     0001H     ABSOLUTE     
            XDATA   801FH     0001H     ABSOLUTE     
            XDATA   8020H     0001H     ABSOLUTE     
            XDATA   8021H     0001H     ABSOLUTE     
            XDATA   8022H     0001H     ABSOLUTE     
            XDATA   8023H     0001H     ABSOLUTE     
            XDATA   8024H     0001H     ABSOLUTE     
            XDATA   8025H     0001H     ABSOLUTE     
            XDATA   8026H     0001H     ABSOLUTE     
            XDATA   8027H     0001H     ABSOLUTE     
            XDATA   8028H     0001H     ABSOLUTE     
            XDATA   8029H     0001H     ABSOLUTE     
            XDATA   802AH     0001H     ABSOLUTE     
            XDATA   802BH     0001H     ABSOLUTE     
            XDATA   802CH     0001H     ABSOLUTE     
            XDATA   802DH     0001H     ABSOLUTE     
            XDATA   802EH     0001H     ABSOLUTE     
            XDATA   802FH     0001H     ABSOLUTE     
            XDATA   8030H     0001H     ABSOLUTE     
            XDATA   8031H     0001H     ABSOLUTE     
            XDATA   8032H     0001H     ABSOLUTE     
            XDATA   8033H     0001H     ABSOLUTE     
            XDATA   8034H     0001H     ABSOLUTE     
            XDATA   8035H     0001H     ABSOLUTE     
            XDATA   8036H     0001H     ABSOLUTE     
            XDATA   8037H     0001H     ABSOLUTE     
            XDATA   8038H     0001H     ABSOLUTE     
            XDATA   8039H     0001H     ABSOLUTE     
                    803AH     0002H                  *** GAP ***
            XDATA   803CH     0001H     ABSOLUTE     
            XDATA   803DH     0001H     ABSOLUTE     
            XDATA   803EH     0001H     ABSOLUTE     
            XDATA   803FH     0001H     ABSOLUTE     
            XDATA   8040H     0001H     ABSOLUTE     
            XDATA   8041H     0001H     ABSOLUTE     
            XDATA   8042H     0001H     ABSOLUTE     
            XDATA   8043H     0001H     ABSOLUTE     
            XDATA   8044H     0001H     ABSOLUTE     
            XDATA   8045H     0001H     ABSOLUTE     
            XDATA   8046H     0001H     ABSOLUTE     
            XDATA   8047H     0001H     ABSOLUTE     
            XDATA   8048H     0001H     ABSOLUTE     
            XDATA   8049H     0001H     ABSOLUTE     
            XDATA   804AH     0001H     ABSOLUTE     
            XDATA   804BH     0001H     ABSOLUTE     
            XDATA   804CH     0001H     ABSOLUTE     
            XDATA   804DH     0001H     ABSOLUTE     
            XDATA   804EH     0001H     ABSOLUTE     
            XDATA   804FH     0001H     ABSOLUTE     
            XDATA   8050H     0001H     ABSOLUTE     
            XDATA   8051H     0001H     ABSOLUTE     
            XDATA   8052H     0001H     ABSOLUTE     
BL51 BANKED LINKER/LOCATER V6.22                                                      01/06/2017  14:57:29  PAGE 7


            XDATA   8053H     0001H     ABSOLUTE     
            XDATA   8054H     0001H     ABSOLUTE     
            XDATA   8055H     0001H     ABSOLUTE     
            XDATA   8056H     0001H     ABSOLUTE     
            XDATA   8057H     0001H     ABSOLUTE     
            XDATA   8058H     0001H     ABSOLUTE     
            XDATA   8059H     0001H     ABSOLUTE     
            XDATA   805AH     0001H     ABSOLUTE     
            XDATA   805BH     0001H     ABSOLUTE     
            XDATA   805CH     0001H     ABSOLUTE     
            XDATA   805DH     0001H     ABSOLUTE     
            XDATA   805EH     0001H     ABSOLUTE     
            XDATA   805FH     0001H     ABSOLUTE     
            XDATA   8060H     0001H     ABSOLUTE     
            XDATA   8061H     0001H     ABSOLUTE     
                    8062H     0002H                  *** GAP ***
            XDATA   8064H     0001H     ABSOLUTE     
            XDATA   8065H     0001H     ABSOLUTE     
            XDATA   8066H     0001H     ABSOLUTE     
            XDATA   8067H     0001H     ABSOLUTE     
            XDATA   8068H     0001H     ABSOLUTE     
            XDATA   8069H     0001H     ABSOLUTE     
            XDATA   806AH     0001H     ABSOLUTE     
            XDATA   806BH     0001H     ABSOLUTE     
            XDATA   806CH     0001H     ABSOLUTE     
            XDATA   806DH     0001H     ABSOLUTE     
            XDATA   806EH     0001H     ABSOLUTE     
            XDATA   806FH     0001H     ABSOLUTE     
            XDATA   8070H     0001H     ABSOLUTE     
                    8071H     0001H                  *** GAP ***
            XDATA   8072H     0001H     ABSOLUTE     
                    8073H     000DH                  *** GAP ***
            XDATA   8080H     0001H     ABSOLUTE     
            XDATA   8081H     0001H     ABSOLUTE     
            XDATA   8082H     0001H     ABSOLUTE     
            XDATA   8083H     0001H     ABSOLUTE     
            XDATA   8084H     0001H     ABSOLUTE     
            XDATA   8085H     0001H     ABSOLUTE     
            XDATA   8086H     0001H     ABSOLUTE     
            XDATA   8087H     0001H     ABSOLUTE     
            XDATA   8088H     0001H     ABSOLUTE     
            XDATA   8089H     0001H     ABSOLUTE     
            XDATA   808AH     0001H     ABSOLUTE     
            XDATA   808BH     0001H     ABSOLUTE     
            XDATA   808CH     0001H     ABSOLUTE     
            XDATA   808DH     0001H     ABSOLUTE     
            XDATA   808EH     0001H     ABSOLUTE     
            XDATA   808FH     0001H     ABSOLUTE     
            XDATA   8090H     0001H     ABSOLUTE     
            XDATA   8091H     0001H     ABSOLUTE     
            XDATA   8092H     0001H     ABSOLUTE     
            XDATA   8093H     0001H     ABSOLUTE     
            XDATA   8094H     0001H     ABSOLUTE     
            XDATA   8095H     0001H     ABSOLUTE     
            XDATA   8096H     0001H     ABSOLUTE     
            XDATA   8097H     0001H     ABSOLUTE     
            XDATA   8098H     0001H     ABSOLUTE     
BL51 BANKED LINKER/LOCATER V6.22                                                      01/06/2017  14:57:29  PAGE 8


            XDATA   8099H     0001H     ABSOLUTE     
            XDATA   809AH     0001H     ABSOLUTE     
            XDATA   809BH     0001H     ABSOLUTE     
            XDATA   809CH     0001H     ABSOLUTE     
            XDATA   809DH     0001H     ABSOLUTE     
            XDATA   809EH     0001H     ABSOLUTE     
            XDATA   809FH     0001H     ABSOLUTE     
            XDATA   80A0H     0001H     ABSOLUTE     
            XDATA   80A1H     0001H     ABSOLUTE     
            XDATA   80A2H     0001H     ABSOLUTE     
                    80A3H     0002H                  *** GAP ***
            XDATA   80A5H     0001H     ABSOLUTE     
                    80A6H     0004H                  *** GAP ***
            XDATA   80AAH     0001H     ABSOLUTE     
            XDATA   80ABH     0001H     ABSOLUTE     
                    80ACH     0001H                  *** GAP ***
            XDATA   80ADH     0001H     ABSOLUTE     
            XDATA   80AEH     0001H     ABSOLUTE     
            XDATA   80AFH     0001H     ABSOLUTE     
            XDATA   80B0H     0001H     ABSOLUTE     
            XDATA   80B1H     0001H     ABSOLUTE     
            XDATA   80B2H     0001H     ABSOLUTE     
            XDATA   80B3H     0001H     ABSOLUTE     
            XDATA   80B4H     0001H     ABSOLUTE     
            XDATA   80B5H     0001H     ABSOLUTE     
            XDATA   80B6H     0001H     ABSOLUTE     
            XDATA   80B7H     0001H     ABSOLUTE     
            XDATA   80B8H     0001H     ABSOLUTE     
            XDATA   80B9H     0001H     ABSOLUTE     
            XDATA   80BAH     0001H     ABSOLUTE     
            XDATA   80BBH     0001H     ABSOLUTE     
            XDATA   80BCH     0001H     ABSOLUTE     
            XDATA   80BDH     0001H     ABSOLUTE     
            XDATA   80BEH     0001H     ABSOLUTE     
            XDATA   80BFH     0001H     ABSOLUTE     
            XDATA   80C0H     0001H     ABSOLUTE     
            XDATA   80C1H     0001H     ABSOLUTE     
            XDATA   80C2H     0001H     ABSOLUTE     
            XDATA   80C3H     0001H     ABSOLUTE     
            XDATA   80C4H     0001H     ABSOLUTE     
            XDATA   80C5H     0001H     ABSOLUTE     
            XDATA   80C6H     0001H     ABSOLUTE     
            XDATA   80C7H     0001H     ABSOLUTE     
            XDATA   80C8H     0001H     ABSOLUTE     
            XDATA   80C9H     0001H     ABSOLUTE     
            XDATA   80CAH     0001H     ABSOLUTE     
            XDATA   80CBH     0001H     ABSOLUTE     
            XDATA   80CCH     0001H     ABSOLUTE     
            XDATA   80CDH     0001H     ABSOLUTE     
            XDATA   80CEH     0001H     ABSOLUTE     
            XDATA   80CFH     0001H     ABSOLUTE     
            XDATA   80D0H     0001H     ABSOLUTE     
            XDATA   80D1H     0001H     ABSOLUTE     
            XDATA   80D2H     0001H     ABSOLUTE     
            XDATA   80D3H     0001H     ABSOLUTE     
            XDATA   80D4H     0001H     ABSOLUTE     
            XDATA   80D5H     0001H     ABSOLUTE     
BL51 BANKED LINKER/LOCATER V6.22                                                      01/06/2017  14:57:29  PAGE 9


            XDATA   80D6H     0001H     ABSOLUTE     
            XDATA   80D7H     0001H     ABSOLUTE     
            XDATA   80D8H     0001H     ABSOLUTE     
            XDATA   80D9H     0001H     ABSOLUTE     
            XDATA   80DAH     0001H     ABSOLUTE     
            XDATA   80DBH     0001H     ABSOLUTE     
            XDATA   80DCH     0001H     ABSOLUTE     
            XDATA   80DDH     0001H     ABSOLUTE     
            XDATA   80DEH     0001H     ABSOLUTE     
            XDATA   80DFH     0001H     ABSOLUTE     
            XDATA   80E0H     0001H     ABSOLUTE     
            XDATA   80E1H     0001H     ABSOLUTE     
            XDATA   80E2H     0001H     ABSOLUTE     
            XDATA   80E3H     0001H     ABSOLUTE     
            XDATA   80E4H     0001H     ABSOLUTE     
                    80E5H     0001H                  *** GAP ***
            XDATA   80E6H     0001H     ABSOLUTE     
            XDATA   80E7H     0001H     ABSOLUTE     
            XDATA   80E8H     0001H     ABSOLUTE     
            XDATA   80E9H     0001H     ABSOLUTE     
            XDATA   80EAH     0001H     ABSOLUTE     
            XDATA   80EBH     0001H     ABSOLUTE     
            XDATA   80ECH     0001H     ABSOLUTE     
            XDATA   80EDH     0001H     ABSOLUTE     
            XDATA   80EEH     0001H     ABSOLUTE     
            XDATA   80EFH     0001H     ABSOLUTE     
            XDATA   80F0H     0001H     ABSOLUTE     
            XDATA   80F1H     0001H     ABSOLUTE     
            XDATA   80F2H     0001H     ABSOLUTE     
            XDATA   80F3H     0001H     ABSOLUTE     
            XDATA   80F4H     0001H     ABSOLUTE     
            XDATA   80F5H     0001H     ABSOLUTE     
                    80F6H     0001H                  *** GAP ***
            XDATA   80F7H     0001H     ABSOLUTE     
            XDATA   80F8H     0001H     ABSOLUTE     
            XDATA   80F9H     0001H     ABSOLUTE     
            XDATA   80FAH     0001H     ABSOLUTE     
            XDATA   80FBH     0001H     ABSOLUTE     
            XDATA   80FCH     0001H     ABSOLUTE     
            XDATA   80FDH     0001H     ABSOLUTE     
                    80FEH     0001H                  *** GAP ***
            XDATA   80FFH     0001H     ABSOLUTE     
            XDATA   8100H     0001H     ABSOLUTE     
            XDATA   8101H     0001H     ABSOLUTE     
            XDATA   8102H     0001H     ABSOLUTE     
            XDATA   8103H     0001H     ABSOLUTE     
            XDATA   8104H     0001H     ABSOLUTE     
            XDATA   8105H     0001H     ABSOLUTE     
            XDATA   8106H     0001H     ABSOLUTE     
            XDATA   8107H     0001H     ABSOLUTE     
            XDATA   8108H     0001H     ABSOLUTE     
            XDATA   8109H     0001H     ABSOLUTE     
            XDATA   810AH     0001H     ABSOLUTE     
            XDATA   810BH     0001H     ABSOLUTE     
            XDATA   810CH     0001H     ABSOLUTE     
            XDATA   810DH     0001H     ABSOLUTE     
            XDATA   810EH     0001H     ABSOLUTE     
BL51 BANKED LINKER/LOCATER V6.22                                                      01/06/2017  14:57:29  PAGE 10


            XDATA   810FH     0001H     ABSOLUTE     
            XDATA   8110H     0001H     ABSOLUTE     
            XDATA   8111H     0001H     ABSOLUTE     
            XDATA   8112H     0001H     ABSOLUTE     
            XDATA   8113H     0001H     ABSOLUTE     
            XDATA   8114H     0001H     ABSOLUTE     
            XDATA   8115H     0001H     ABSOLUTE     
            XDATA   8116H     0001H     ABSOLUTE     
            XDATA   8117H     0001H     ABSOLUTE     
            XDATA   8118H     0001H     ABSOLUTE     
            XDATA   8119H     0001H     ABSOLUTE     
                    811AH     0001H                  *** GAP ***
            XDATA   811BH     0001H     ABSOLUTE     
                    811CH     0002H                  *** GAP ***
            XDATA   811EH     0001H     ABSOLUTE     
            XDATA   811FH     0001H     ABSOLUTE     
            XDATA   8120H     0001H     ABSOLUTE     
            XDATA   8121H     0001H     ABSOLUTE     
            XDATA   8122H     0001H     ABSOLUTE     
            XDATA   8123H     0001H     ABSOLUTE     
            XDATA   8124H     0001H     ABSOLUTE     
            XDATA   8125H     0001H     ABSOLUTE     
            XDATA   8126H     0001H     ABSOLUTE     
            XDATA   8127H     0001H     ABSOLUTE     
            XDATA   8128H     0001H     ABSOLUTE     
                    8129H     0002H                  *** GAP ***
            XDATA   812BH     0001H     ABSOLUTE     
            XDATA   812CH     0001H     ABSOLUTE     
            XDATA   812DH     0001H     ABSOLUTE     
            XDATA   812EH     0001H     ABSOLUTE     
            XDATA   812FH     0001H     ABSOLUTE     
            XDATA   8130H     0001H     ABSOLUTE     
            XDATA   8131H     0001H     ABSOLUTE     
            XDATA   8132H     0001H     ABSOLUTE     
            XDATA   8133H     0001H     ABSOLUTE     
            XDATA   8134H     0001H     ABSOLUTE     
            XDATA   8135H     0001H     ABSOLUTE     
            XDATA   8136H     0001H     ABSOLUTE     
            XDATA   8137H     0001H     ABSOLUTE     
            XDATA   8138H     0001H     ABSOLUTE     
            XDATA   8139H     0001H     ABSOLUTE     
            XDATA   813AH     0001H     ABSOLUTE     
            XDATA   813BH     0001H     ABSOLUTE     
                    813CH     000EH                  *** GAP ***
            XDATA   814AH     0001H     ABSOLUTE     
            XDATA   814BH     0001H     ABSOLUTE     
            XDATA   814CH     0001H     ABSOLUTE     
            XDATA   814DH     0001H     ABSOLUTE     
            XDATA   814EH     0001H     ABSOLUTE     
            XDATA   814FH     0001H     ABSOLUTE     
            XDATA   8150H     0001H     ABSOLUTE     
            XDATA   8151H     0001H     ABSOLUTE     
            XDATA   8152H     0001H     ABSOLUTE     
            XDATA   8153H     0001H     ABSOLUTE     
            XDATA   8154H     0001H     ABSOLUTE     
            XDATA   8155H     0001H     ABSOLUTE     
            XDATA   8156H     0001H     ABSOLUTE     
BL51 BANKED LINKER/LOCATER V6.22                                                      01/06/2017  14:57:29  PAGE 11


            XDATA   8157H     0001H     ABSOLUTE     
            XDATA   8158H     0001H     ABSOLUTE     
            XDATA   8159H     0001H     ABSOLUTE     
            XDATA   815AH     0001H     ABSOLUTE     
            XDATA   815BH     0001H     ABSOLUTE     
            XDATA   815CH     0001H     ABSOLUTE     
            XDATA   815DH     0001H     ABSOLUTE     
            XDATA   815EH     0001H     ABSOLUTE     
            XDATA   815FH     0001H     ABSOLUTE     
            XDATA   8160H     0001H     ABSOLUTE     
            XDATA   8161H     0001H     ABSOLUTE     
            XDATA   8162H     0001H     ABSOLUTE     
            XDATA   8163H     0001H     ABSOLUTE     
            XDATA   8164H     0001H     ABSOLUTE     
            XDATA   8165H     0001H     ABSOLUTE     
            XDATA   8166H     0001H     ABSOLUTE     
            XDATA   8167H     0001H     ABSOLUTE     
            XDATA   8168H     0001H     ABSOLUTE     
            XDATA   8169H     0001H     ABSOLUTE     
            XDATA   816AH     0001H     ABSOLUTE     
            XDATA   816BH     0001H     ABSOLUTE     
            XDATA   816CH     0001H     ABSOLUTE     
            XDATA   816DH     0001H     ABSOLUTE     
            XDATA   816EH     0001H     ABSOLUTE     
            XDATA   816FH     0001H     ABSOLUTE     
            XDATA   8170H     0001H     ABSOLUTE     
            XDATA   8171H     0001H     ABSOLUTE     
            XDATA   8172H     0001H     ABSOLUTE     
            XDATA   8173H     0001H     ABSOLUTE     
            XDATA   8174H     0001H     ABSOLUTE     
            XDATA   8175H     0001H     ABSOLUTE     
            XDATA   8176H     0001H     ABSOLUTE     
            XDATA   8177H     0001H     ABSOLUTE     
            XDATA   8178H     0001H     ABSOLUTE     
            XDATA   8179H     0001H     ABSOLUTE     
            XDATA   817AH     0001H     ABSOLUTE     
                    817BH     0003H                  *** GAP ***
            XDATA   817EH     0001H     ABSOLUTE     
                    817FH     0003H                  *** GAP ***
            XDATA   8182H     0001H     ABSOLUTE     
            XDATA   8183H     0001H     ABSOLUTE     
            XDATA   8184H     0001H     ABSOLUTE     
            XDATA   8185H     0001H     ABSOLUTE     
            XDATA   8186H     0001H     ABSOLUTE     
            XDATA   8187H     0001H     ABSOLUTE     
            XDATA   8188H     0001H     ABSOLUTE     
            XDATA   8189H     0001H     ABSOLUTE     
            XDATA   818AH     0001H     ABSOLUTE     
            XDATA   818BH     0001H     ABSOLUTE     
                    818CH     0001H                  *** GAP ***
            XDATA   818DH     0001H     ABSOLUTE     
            XDATA   818EH     0001H     ABSOLUTE     
            XDATA   818FH     0001H     ABSOLUTE     
            XDATA   8190H     0001H     ABSOLUTE     
            XDATA   8191H     0001H     ABSOLUTE     
                    8192H     0004H                  *** GAP ***
            XDATA   8196H     0001H     ABSOLUTE     
BL51 BANKED LINKER/LOCATER V6.22                                                      01/06/2017  14:57:29  PAGE 12


            XDATA   8197H     0001H     ABSOLUTE     
            XDATA   8198H     0001H     ABSOLUTE     
            XDATA   8199H     0001H     ABSOLUTE     
            XDATA   819AH     0001H     ABSOLUTE     
            XDATA   819BH     0001H     ABSOLUTE     
            XDATA   819CH     0001H     ABSOLUTE     
            XDATA   819DH     0001H     ABSOLUTE     
            XDATA   819EH     0001H     ABSOLUTE     
            XDATA   819FH     0001H     ABSOLUTE     
            XDATA   81A0H     0001H     ABSOLUTE     
            XDATA   81A1H     0001H     ABSOLUTE     
            XDATA   81A2H     0001H     ABSOLUTE     
            XDATA   81A3H     0001H     ABSOLUTE     
            XDATA   81A4H     0001H     ABSOLUTE     
            XDATA   81A5H     0001H     ABSOLUTE     
            XDATA   81A6H     0001H     ABSOLUTE     
            XDATA   81A7H     0001H     ABSOLUTE     
            XDATA   81A8H     0001H     ABSOLUTE     
            XDATA   81A9H     0001H     ABSOLUTE     
            XDATA   81AAH     0001H     ABSOLUTE     
            XDATA   81ABH     0001H     ABSOLUTE     
            XDATA   81ACH     0001H     ABSOLUTE     
            XDATA   81ADH     0001H     ABSOLUTE     
            XDATA   81AEH     0001H     ABSOLUTE     
            XDATA   81AFH     0001H     ABSOLUTE     
            XDATA   81B0H     0001H     ABSOLUTE     
            XDATA   81B1H     0001H     ABSOLUTE     
            XDATA   81B2H     0001H     ABSOLUTE     
            XDATA   81B3H     0001H     ABSOLUTE     
            XDATA   81B4H     0001H     ABSOLUTE     
            XDATA   81B5H     0001H     ABSOLUTE     
            XDATA   81B6H     0001H     ABSOLUTE     
                    81B7H     0001H                  *** GAP ***
            XDATA   81B8H     0001H     ABSOLUTE     
            XDATA   81B9H     0001H     ABSOLUTE     
            XDATA   81BAH     0001H     ABSOLUTE     
            XDATA   81BBH     0001H     ABSOLUTE     
            XDATA   81BCH     0001H     ABSOLUTE     
            XDATA   81BDH     0001H     ABSOLUTE     
            XDATA   81BEH     0001H     ABSOLUTE     
            XDATA   81BFH     0001H     ABSOLUTE     
            XDATA   81C0H     0001H     ABSOLUTE     
            XDATA   81C1H     0001H     ABSOLUTE     
            XDATA   81C2H     0001H     ABSOLUTE     
            XDATA   81C3H     0001H     ABSOLUTE     
            XDATA   81C4H     0001H     ABSOLUTE     
            XDATA   81C5H     0001H     ABSOLUTE     
            XDATA   81C6H     0001H     ABSOLUTE     
            XDATA   81C7H     0001H     ABSOLUTE     
            XDATA   81C8H     0001H     ABSOLUTE     
            XDATA   81C9H     0001H     ABSOLUTE     
            XDATA   81CAH     0001H     ABSOLUTE     
            XDATA   81CBH     0001H     ABSOLUTE     
            XDATA   81CCH     0001H     ABSOLUTE     
            XDATA   81CDH     0001H     ABSOLUTE     
            XDATA   81CEH     0001H     ABSOLUTE     
            XDATA   81CFH     0001H     ABSOLUTE     
BL51 BANKED LINKER/LOCATER V6.22                                                      01/06/2017  14:57:29  PAGE 13


            XDATA   81D0H     0001H     ABSOLUTE     
            XDATA   81D1H     0001H     ABSOLUTE     
            XDATA   81D2H     0001H     ABSOLUTE     
            XDATA   81D3H     0001H     ABSOLUTE     
            XDATA   81D4H     0001H     ABSOLUTE     
            XDATA   81D5H     0001H     ABSOLUTE     
            XDATA   81D6H     0001H     ABSOLUTE     
            XDATA   81D7H     0001H     ABSOLUTE     
            XDATA   81D8H     0001H     ABSOLUTE     
            XDATA   81D9H     0001H     ABSOLUTE     
            XDATA   81DAH     0001H     ABSOLUTE     
            XDATA   81DBH     0001H     ABSOLUTE     
            XDATA   81DCH     0001H     ABSOLUTE     
            XDATA   81DDH     0001H     ABSOLUTE     
            XDATA   81DEH     0001H     ABSOLUTE     
            XDATA   81DFH     0001H     ABSOLUTE     
            XDATA   81E0H     0001H     ABSOLUTE     
            XDATA   81E1H     0001H     ABSOLUTE     
            XDATA   81E2H     0001H     ABSOLUTE     
            XDATA   81E3H     0001H     ABSOLUTE     
            XDATA   81E4H     0001H     ABSOLUTE     
            XDATA   81E5H     0001H     ABSOLUTE     
            XDATA   81E6H     0001H     ABSOLUTE     
            XDATA   81E7H     0001H     ABSOLUTE     
            XDATA   81E8H     0001H     ABSOLUTE     
            XDATA   81E9H     0001H     ABSOLUTE     
            XDATA   81EAH     0001H     ABSOLUTE     
            XDATA   81EBH     0001H     ABSOLUTE     
            XDATA   81ECH     0001H     ABSOLUTE     
            XDATA   81EDH     0001H     ABSOLUTE     
            XDATA   81EEH     0001H     ABSOLUTE     
            XDATA   81EFH     0001H     ABSOLUTE     
            XDATA   81F0H     0001H     ABSOLUTE     
            XDATA   81F1H     0001H     ABSOLUTE     
            XDATA   81F2H     0001H     ABSOLUTE     
            XDATA   81F3H     0001H     ABSOLUTE     
            XDATA   81F4H     0001H     ABSOLUTE     
            XDATA   81F5H     0001H     ABSOLUTE     
            XDATA   81F6H     0001H     ABSOLUTE     
            XDATA   81F7H     0001H     ABSOLUTE     
            XDATA   81F8H     0001H     ABSOLUTE     
            XDATA   81F9H     0001H     ABSOLUTE     
            XDATA   81FAH     0001H     ABSOLUTE     
            XDATA   81FBH     0001H     ABSOLUTE     
            XDATA   81FCH     0001H     ABSOLUTE     
            XDATA   81FDH     0001H     ABSOLUTE     
            XDATA   81FEH     0001H     ABSOLUTE     
                    81FFH     0001H                  *** GAP ***
            XDATA   8200H     0001H     ABSOLUTE     
            XDATA   8201H     0001H     ABSOLUTE     
            XDATA   8202H     0001H     ABSOLUTE     
            XDATA   8203H     0001H     ABSOLUTE     
            XDATA   8204H     0001H     ABSOLUTE     
            XDATA   8205H     0001H     ABSOLUTE     
            XDATA   8206H     0001H     ABSOLUTE     
            XDATA   8207H     0001H     ABSOLUTE     
            XDATA   8208H     0001H     ABSOLUTE     
BL51 BANKED LINKER/LOCATER V6.22                                                      01/06/2017  14:57:29  PAGE 14


            XDATA   8209H     0001H     ABSOLUTE     
            XDATA   820AH     0001H     ABSOLUTE     
            XDATA   820BH     0001H     ABSOLUTE     
            XDATA   820CH     0001H     ABSOLUTE     
            XDATA   820DH     0001H     ABSOLUTE     
            XDATA   820EH     0001H     ABSOLUTE     
            XDATA   820FH     0001H     ABSOLUTE     
                    8210H     0070H                  *** GAP ***
            XDATA   8280H     0001H     ABSOLUTE     
            XDATA   8281H     0001H     ABSOLUTE     
            XDATA   8282H     0001H     ABSOLUTE     
            XDATA   8283H     0001H     ABSOLUTE     
            XDATA   8284H     0001H     ABSOLUTE     
            XDATA   8285H     0001H     ABSOLUTE     
            XDATA   8286H     0001H     ABSOLUTE     
            XDATA   8287H     0001H     ABSOLUTE     
            XDATA   8288H     0001H     ABSOLUTE     
            XDATA   8289H     0001H     ABSOLUTE     
            XDATA   828AH     0001H     ABSOLUTE     
            XDATA   828BH     0001H     ABSOLUTE     
            XDATA   828CH     0001H     ABSOLUTE     
                    828DH     0013H                  *** GAP ***
            XDATA   82A0H     0001H     ABSOLUTE     
            XDATA   82A1H     0001H     ABSOLUTE     
            XDATA   82A2H     0001H     ABSOLUTE     
            XDATA   82A3H     0001H     ABSOLUTE     
                    82A4H     0002H                  *** GAP ***
            XDATA   82A6H     0001H     ABSOLUTE     
                    82A7H     0001H                  *** GAP ***
            XDATA   82A8H     0001H     ABSOLUTE     
                    82A9H     0001H                  *** GAP ***
            XDATA   82AAH     0001H     ABSOLUTE     
            XDATA   82ABH     0001H     ABSOLUTE     
            XDATA   82ACH     0001H     ABSOLUTE     
                    82ADH     0001H                  *** GAP ***
            XDATA   82AEH     0001H     ABSOLUTE     
                    82AFH     0001H                  *** GAP ***
            XDATA   82B0H     0001H     ABSOLUTE     
            XDATA   82B1H     0001H     ABSOLUTE     
            XDATA   82B2H     0001H     ABSOLUTE     
            XDATA   82B3H     0001H     ABSOLUTE     
            XDATA   82B4H     0001H     ABSOLUTE     
            XDATA   82B5H     0001H     ABSOLUTE     
            XDATA   82B6H     0001H     ABSOLUTE     
                    82B7H     0009H                  *** GAP ***
            XDATA   82C0H     0001H     ABSOLUTE     
            XDATA   82C1H     0001H     ABSOLUTE     
            XDATA   82C2H     0001H     ABSOLUTE     
                    82C3H     0005H                  *** GAP ***
            XDATA   82C8H     0001H     ABSOLUTE     
            XDATA   82C9H     0001H     ABSOLUTE     
                    82CAH     0001H                  *** GAP ***
            XDATA   82CBH     0001H     ABSOLUTE     
            XDATA   82CCH     0001H     ABSOLUTE     
            XDATA   82CDH     0001H     ABSOLUTE     
            XDATA   82CEH     0001H     ABSOLUTE     
            XDATA   82CFH     0001H     ABSOLUTE     
BL51 BANKED LINKER/LOCATER V6.22                                                      01/06/2017  14:57:29  PAGE 15


                    82D0H     0001H                  *** GAP ***
            XDATA   82D1H     0001H     ABSOLUTE     
            XDATA   82D2H     0001H     ABSOLUTE     
                    82D3H     0005H                  *** GAP ***
            XDATA   82D8H     0001H     ABSOLUTE     
                    82D9H     0007H                  *** GAP ***
            XDATA   82E0H     0001H     ABSOLUTE     
            XDATA   82E1H     0001H     ABSOLUTE     
                    82E2H     000EH                  *** GAP ***
            XDATA   82F0H     0001H     ABSOLUTE     
            XDATA   82F1H     0001H     ABSOLUTE     
                    82F2H     0012H                  *** GAP ***
            XDATA   8304H     0001H     ABSOLUTE     
            XDATA   8305H     0001H     ABSOLUTE     
                    8306H     0029H                  *** GAP ***
            XDATA   832FH     0001H     ABSOLUTE     
                    8330H     0041H                  *** GAP ***
            XDATA   8371H     0001H     ABSOLUTE     
                    8372H     0006H                  *** GAP ***
            XDATA   8378H     0001H     ABSOLUTE     
            XDATA   8379H     0001H     ABSOLUTE     
            XDATA   837AH     0001H     ABSOLUTE     
                    837BH     0011H                  *** GAP ***
            XDATA   838CH     0001H     ABSOLUTE     
            XDATA   838DH     0001H     ABSOLUTE     
                    838EH     0002H                  *** GAP ***
            XDATA   8390H     0001H     ABSOLUTE     
            XDATA   8391H     0001H     ABSOLUTE     
            XDATA   8392H     0001H     ABSOLUTE     
            XDATA   8393H     0001H     ABSOLUTE     
            XDATA   8394H     0001H     ABSOLUTE     
                    8395H     000BH                  *** GAP ***
            XDATA   83A0H     0001H     ABSOLUTE     
            XDATA   83A1H     0001H     ABSOLUTE     
            XDATA   83A2H     0001H     ABSOLUTE     
            XDATA   83A3H     0001H     ABSOLUTE     
            XDATA   83A4H     0001H     ABSOLUTE     
            XDATA   83A5H     0001H     ABSOLUTE     
                    83A6H     000AH                  *** GAP ***
            XDATA   83B0H     0001H     ABSOLUTE     
            XDATA   83B1H     0001H     ABSOLUTE     
            XDATA   83B2H     0001H     ABSOLUTE     
                    83B3H     000DH                  *** GAP ***
            XDATA   83C0H     0001H     ABSOLUTE     
            XDATA   83C1H     0001H     ABSOLUTE     
            XDATA   83C2H     0001H     ABSOLUTE     
            XDATA   83C3H     0001H     ABSOLUTE     
            XDATA   83C4H     0001H     ABSOLUTE     
            XDATA   83C5H     0001H     ABSOLUTE     
            XDATA   83C6H     0001H     ABSOLUTE     
            XDATA   83C7H     0001H     ABSOLUTE     
            XDATA   83C8H     0001H     ABSOLUTE     
            XDATA   83C9H     0001H     ABSOLUTE     
                    83CAH     0002H                  *** GAP ***
            XDATA   83CCH     0001H     ABSOLUTE     
            XDATA   83CDH     0001H     ABSOLUTE     
            XDATA   83CEH     0001H     ABSOLUTE     
BL51 BANKED LINKER/LOCATER V6.22                                                      01/06/2017  14:57:29  PAGE 16


            XDATA   83CFH     0001H     ABSOLUTE     
                    83D0H     0023H                  *** GAP ***
            XDATA   83F3H     0001H     ABSOLUTE     
                    83F4H     0004H                  *** GAP ***
            XDATA   83F8H     0001H     ABSOLUTE     
            XDATA   83F9H     0001H     ABSOLUTE     
                    83FAH     0001H                  *** GAP ***
            XDATA   83FBH     0001H     ABSOLUTE     
                    83FCH     0034H                  *** GAP ***
            XDATA   8430H     0001H     ABSOLUTE     
            XDATA   8431H     0001H     ABSOLUTE     
            XDATA   8432H     0001H     ABSOLUTE     
            XDATA   8433H     0001H     ABSOLUTE     
            XDATA   8434H     0001H     ABSOLUTE     
            XDATA   8435H     0001H     ABSOLUTE     
            XDATA   8436H     0001H     ABSOLUTE     
            XDATA   8437H     0001H     ABSOLUTE     
            XDATA   8438H     0001H     ABSOLUTE     
            XDATA   8439H     0001H     ABSOLUTE     
                    843AH     0001H                  *** GAP ***
            XDATA   843BH     0001H     ABSOLUTE     
                    843CH     0001H                  *** GAP ***
            XDATA   843DH     0001H     ABSOLUTE     
            XDATA   843EH     0001H     ABSOLUTE     
            XDATA   843FH     0001H     ABSOLUTE     
                    8440H     0001H                  *** GAP ***
            XDATA   8441H     0001H     ABSOLUTE     
            XDATA   8442H     0001H     ABSOLUTE     
            XDATA   8443H     0001H     ABSOLUTE     
            XDATA   8444H     0001H     ABSOLUTE     
            XDATA   8445H     0001H     ABSOLUTE     
            XDATA   8446H     0001H     ABSOLUTE     
                    8447H     0001H                  *** GAP ***
            XDATA   8448H     0001H     ABSOLUTE     
            XDATA   8449H     0001H     ABSOLUTE     
            XDATA   844AH     0001H     ABSOLUTE     
            XDATA   844BH     0001H     ABSOLUTE     
            XDATA   844CH     0001H     ABSOLUTE     
            XDATA   844DH     0001H     ABSOLUTE     
            XDATA   844EH     0001H     ABSOLUTE     
            XDATA   844FH     0001H     ABSOLUTE     
            XDATA   8450H     0001H     ABSOLUTE     
            XDATA   8451H     0001H     ABSOLUTE     
            XDATA   8452H     0001H     ABSOLUTE     
            XDATA   8453H     0001H     ABSOLUTE     
            XDATA   8454H     0001H     ABSOLUTE     
            XDATA   8455H     0001H     ABSOLUTE     
            XDATA   8456H     0001H     ABSOLUTE     
            XDATA   8457H     0001H     ABSOLUTE     
            XDATA   8458H     0001H     ABSOLUTE     
            XDATA   8459H     0001H     ABSOLUTE     
            XDATA   845AH     0001H     ABSOLUTE     
            XDATA   845BH     0001H     ABSOLUTE     
            XDATA   845CH     0001H     ABSOLUTE     
            XDATA   845DH     0001H     ABSOLUTE     
            XDATA   845EH     0001H     ABSOLUTE     
            XDATA   845FH     0001H     ABSOLUTE     
BL51 BANKED LINKER/LOCATER V6.22                                                      01/06/2017  14:57:29  PAGE 17


                    8460H     0020H                  *** GAP ***
            XDATA   8480H     0001H     ABSOLUTE     
                    8481H     0008H                  *** GAP ***
            XDATA   8489H     0001H     ABSOLUTE     
            XDATA   848AH     0001H     ABSOLUTE     
            XDATA   848BH     0001H     ABSOLUTE     
            XDATA   848CH     0001H     ABSOLUTE     
                    848DH     0003H                  *** GAP ***
            XDATA   8490H     0001H     ABSOLUTE     
            XDATA   8491H     0001H     ABSOLUTE     
                    8492H     0006H                  *** GAP ***
            XDATA   8498H     0001H     ABSOLUTE     
            XDATA   8499H     0001H     ABSOLUTE     
            XDATA   849AH     0001H     ABSOLUTE     
            XDATA   849BH     0001H     ABSOLUTE     
            XDATA   849CH     0001H     ABSOLUTE     
                    849DH     0003H                  *** GAP ***
            XDATA   84A0H     0001H     ABSOLUTE     
                    84A1H     000FH                  *** GAP ***
            XDATA   84B0H     0001H     ABSOLUTE     
                    84B1H     0007H                  *** GAP ***
            XDATA   84B8H     0001H     ABSOLUTE     
            XDATA   84B9H     0001H     ABSOLUTE     
                    84BAH     0006H                  *** GAP ***
            XDATA   84C0H     0001H     ABSOLUTE     
            XDATA   84C1H     0001H     ABSOLUTE     
            XDATA   84C2H     0001H     ABSOLUTE     
            XDATA   84C3H     0001H     ABSOLUTE     
            XDATA   84C4H     0001H     ABSOLUTE     
            XDATA   84C5H     0001H     ABSOLUTE     
            XDATA   84C6H     0001H     ABSOLUTE     
            XDATA   84C7H     0001H     ABSOLUTE     
            XDATA   84C8H     0001H     ABSOLUTE     
            XDATA   84C9H     0001H     ABSOLUTE     
                    84CAH     0011H                  *** GAP ***
            XDATA   84DBH     0001H     ABSOLUTE     
                    84DCH     0001H                  *** GAP ***
            XDATA   84DDH     0001H     ABSOLUTE     
                    84DEH     0012H                  *** GAP ***
            XDATA   84F0H     0001H     ABSOLUTE     
            XDATA   84F1H     0001H     ABSOLUTE     
            XDATA   84F2H     0001H     ABSOLUTE     
                    84F3H     0001H                  *** GAP ***
            XDATA   84F4H     0001H     ABSOLUTE     
            XDATA   84F5H     0001H     ABSOLUTE     
            XDATA   84F6H     0001H     ABSOLUTE     
            XDATA   84F7H     0001H     ABSOLUTE     
            XDATA   84F8H     0001H     ABSOLUTE     
            XDATA   84F9H     0001H     ABSOLUTE     
            XDATA   84FAH     0001H     ABSOLUTE     
            XDATA   84FBH     0001H     ABSOLUTE     
            XDATA   84FCH     0001H     ABSOLUTE     
            XDATA   84FDH     0001H     ABSOLUTE     
            XDATA   84FEH     0001H     ABSOLUTE     
                    84FFH     0009H                  *** GAP ***
            XDATA   8508H     0001H     ABSOLUTE     
            XDATA   8509H     0001H     ABSOLUTE     
BL51 BANKED LINKER/LOCATER V6.22                                                      01/06/2017  14:57:29  PAGE 18


            XDATA   850AH     0001H     ABSOLUTE     
            XDATA   850BH     0001H     ABSOLUTE     
            XDATA   850CH     0001H     ABSOLUTE     
            XDATA   850DH     0001H     ABSOLUTE     
            XDATA   850EH     0001H     ABSOLUTE     
            XDATA   850FH     0001H     ABSOLUTE     
            XDATA   8510H     0001H     ABSOLUTE     
            XDATA   8511H     0001H     ABSOLUTE     
            XDATA   8512H     0001H     ABSOLUTE     
            XDATA   8513H     0001H     ABSOLUTE     
            XDATA   8514H     0001H     ABSOLUTE     
            XDATA   8515H     0001H     ABSOLUTE     
            XDATA   8516H     0001H     ABSOLUTE     
                    8517H     0006H                  *** GAP ***
            XDATA   851DH     0001H     ABSOLUTE     
            XDATA   851EH     0001H     ABSOLUTE     
            XDATA   851FH     0001H     ABSOLUTE     
                    8520H     0001H                  *** GAP ***
            XDATA   8521H     0001H     ABSOLUTE     
            XDATA   8522H     0001H     ABSOLUTE     
            XDATA   8523H     0001H     ABSOLUTE     
            XDATA   8524H     0001H     ABSOLUTE     
                    8525H     0001H                  *** GAP ***
            XDATA   8526H     0001H     ABSOLUTE     
                    8527H     0009H                  *** GAP ***
            XDATA   8530H     0001H     ABSOLUTE     
            XDATA   8531H     0001H     ABSOLUTE     
            XDATA   8532H     0001H     ABSOLUTE     
            XDATA   8533H     0001H     ABSOLUTE     
            XDATA   8534H     0001H     ABSOLUTE     
            XDATA   8535H     0001H     ABSOLUTE     
            XDATA   8536H     0001H     ABSOLUTE     
            XDATA   8537H     0001H     ABSOLUTE     
            XDATA   8538H     0001H     ABSOLUTE     
            XDATA   8539H     0001H     ABSOLUTE     
            XDATA   853AH     0001H     ABSOLUTE     
            XDATA   853BH     0001H     ABSOLUTE     
            XDATA   853CH     0001H     ABSOLUTE     
            XDATA   853DH     0001H     ABSOLUTE     
            XDATA   853EH     0001H     ABSOLUTE     
            XDATA   853FH     0001H     ABSOLUTE     
            XDATA   8540H     0001H     ABSOLUTE     
            XDATA   8541H     0001H     ABSOLUTE     
            XDATA   8542H     0001H     ABSOLUTE     
            XDATA   8543H     0001H     ABSOLUTE     
            XDATA   8544H     0001H     ABSOLUTE     
            XDATA   8545H     0001H     ABSOLUTE     
            XDATA   8546H     0001H     ABSOLUTE     
            XDATA   8547H     0001H     ABSOLUTE     
            XDATA   8548H     0001H     ABSOLUTE     
            XDATA   8549H     0001H     ABSOLUTE     
            XDATA   854AH     0001H     ABSOLUTE     
            XDATA   854BH     0001H     ABSOLUTE     
            XDATA   854CH     0001H     ABSOLUTE     
            XDATA   854DH     0001H     ABSOLUTE     
            XDATA   854EH     0001H     ABSOLUTE     
            XDATA   854FH     0001H     ABSOLUTE     
BL51 BANKED LINKER/LOCATER V6.22                                                      01/06/2017  14:57:29  PAGE 19


            XDATA   8550H     0001H     ABSOLUTE     
            XDATA   8551H     0001H     ABSOLUTE     
            XDATA   8552H     0001H     ABSOLUTE     
            XDATA   8553H     0001H     ABSOLUTE     
            XDATA   8554H     0001H     ABSOLUTE     
            XDATA   8555H     0001H     ABSOLUTE     
            XDATA   8556H     0001H     ABSOLUTE     
            XDATA   8557H     0001H     ABSOLUTE     
            XDATA   8558H     0001H     ABSOLUTE     
            XDATA   8559H     0001H     ABSOLUTE     
                    855AH     0005H                  *** GAP ***
            XDATA   855FH     0001H     ABSOLUTE     
                    8560H     0020H                  *** GAP ***
            XDATA   8580H     0001H     ABSOLUTE     
            XDATA   8581H     0001H     ABSOLUTE     
            XDATA   8582H     0001H     ABSOLUTE     
            XDATA   8583H     0001H     ABSOLUTE     
            XDATA   8584H     0001H     ABSOLUTE     
            XDATA   8585H     0001H     ABSOLUTE     
            XDATA   8586H     0001H     ABSOLUTE     
            XDATA   8587H     0001H     ABSOLUTE     
            XDATA   8588H     0001H     ABSOLUTE     
            XDATA   8589H     0001H     ABSOLUTE     
            XDATA   858AH     0001H     ABSOLUTE     
            XDATA   858BH     0001H     ABSOLUTE     
                    858CH     0003H                  *** GAP ***
            XDATA   858FH     0001H     ABSOLUTE     
                    8590H     0004H                  *** GAP ***
            XDATA   8594H     0001H     ABSOLUTE     
            XDATA   8595H     0001H     ABSOLUTE     
            XDATA   8596H     0001H     ABSOLUTE     
            XDATA   8597H     0001H     ABSOLUTE     
            XDATA   8598H     0001H     ABSOLUTE     
            XDATA   8599H     0001H     ABSOLUTE     
            XDATA   859AH     0001H     ABSOLUTE     
                    859BH     0001H                  *** GAP ***
            XDATA   859CH     0001H     ABSOLUTE     
            XDATA   859DH     0001H     ABSOLUTE     
            XDATA   859EH     0001H     ABSOLUTE     
                    859FH     0001H                  *** GAP ***
            XDATA   85A0H     0001H     ABSOLUTE     
            XDATA   85A1H     0001H     ABSOLUTE     
            XDATA   85A2H     0001H     ABSOLUTE     
            XDATA   85A3H     0001H     ABSOLUTE     
            XDATA   85A4H     0001H     ABSOLUTE     
            XDATA   85A5H     0001H     ABSOLUTE     
            XDATA   85A6H     0001H     ABSOLUTE     
            XDATA   85A7H     0001H     ABSOLUTE     
            XDATA   85A8H     0001H     ABSOLUTE     
            XDATA   85A9H     0001H     ABSOLUTE     
            XDATA   85AAH     0001H     ABSOLUTE     
            XDATA   85ABH     0001H     ABSOLUTE     
                    85ACH     0004H                  *** GAP ***
            XDATA   85B0H     0001H     ABSOLUTE     
            XDATA   85B1H     0001H     ABSOLUTE     
            XDATA   85B2H     0001H     ABSOLUTE     
            XDATA   85B3H     0001H     ABSOLUTE     
BL51 BANKED LINKER/LOCATER V6.22                                                      01/06/2017  14:57:29  PAGE 20


            XDATA   85B4H     0001H     ABSOLUTE     
            XDATA   85B5H     0001H     ABSOLUTE     
            XDATA   85B6H     0001H     ABSOLUTE     
            XDATA   85B7H     0001H     ABSOLUTE     
            XDATA   85B8H     0001H     ABSOLUTE     
            XDATA   85B9H     0001H     ABSOLUTE     
            XDATA   85BAH     0001H     ABSOLUTE     
            XDATA   85BBH     0001H     ABSOLUTE     
            XDATA   85BCH     0001H     ABSOLUTE     
            XDATA   85BDH     0001H     ABSOLUTE     
            XDATA   85BEH     0001H     ABSOLUTE     
            XDATA   85BFH     0001H     ABSOLUTE     
            XDATA   85C0H     0001H     ABSOLUTE     
            XDATA   85C1H     0001H     ABSOLUTE     
            XDATA   85C2H     0001H     ABSOLUTE     
            XDATA   85C3H     0001H     ABSOLUTE     
            XDATA   85C4H     0001H     ABSOLUTE     
                    85C5H     0027H                  *** GAP ***
            XDATA   85ECH     0001H     ABSOLUTE     
            XDATA   85EDH     0001H     ABSOLUTE     
            XDATA   85EEH     0001H     ABSOLUTE     
            XDATA   85EFH     0001H     ABSOLUTE     
            XDATA   85F0H     0008H     ABSOLUTE     
            XDATA   85F8H     0001H     ABSOLUTE     
            XDATA   85F9H     0001H     ABSOLUTE     
            XDATA   85FAH     0001H     ABSOLUTE     
                    85FBH     0002H                  *** GAP ***
            XDATA   85FDH     0001H     ABSOLUTE     
                    85FEH     0002H                  *** GAP ***
            XDATA   8600H     0001H     ABSOLUTE     
            XDATA   8601H     0001H     ABSOLUTE     
                    8602H     0003H                  *** GAP ***
            XDATA   8605H     0001H     ABSOLUTE     
            XDATA   8606H     0001H     ABSOLUTE     
                    8607H     0001H                  *** GAP ***
            XDATA   8608H     0001H     ABSOLUTE     
                    8609H     0011H                  *** GAP ***
            XDATA   861AH     0001H     ABSOLUTE     
            XDATA   861BH     0001H     ABSOLUTE     
            XDATA   861CH     0001H     ABSOLUTE     
            XDATA   861DH     0001H     ABSOLUTE     
            XDATA   861EH     0001H     ABSOLUTE     
                    861FH     000FH                  *** GAP ***
            XDATA   862EH     0001H     ABSOLUTE     
                    862FH     0001H                  *** GAP ***
            XDATA   8630H     0001H     ABSOLUTE     
                    8631H     0001H                  *** GAP ***
            XDATA   8632H     0001H     ABSOLUTE     
                    8633H     0007H                  *** GAP ***
            XDATA   863AH     0001H     ABSOLUTE     
            XDATA   863BH     0001H     ABSOLUTE     
            XDATA   863CH     0001H     ABSOLUTE     
            XDATA   863DH     0001H     ABSOLUTE     
                    863EH     0001H                  *** GAP ***
            XDATA   863FH     0001H     ABSOLUTE     
            XDATA   8640H     0001H     ABSOLUTE     
            XDATA   8641H     0001H     ABSOLUTE     
BL51 BANKED LINKER/LOCATER V6.22                                                      01/06/2017  14:57:29  PAGE 21


            XDATA   8642H     0001H     ABSOLUTE     
            XDATA   8643H     0001H     ABSOLUTE     
                    8644H     0001H                  *** GAP ***
            XDATA   8645H     0001H     ABSOLUTE     
            XDATA   8646H     0001H     ABSOLUTE     
                    8647H     0002H                  *** GAP ***
            XDATA   8649H     0001H     ABSOLUTE     
                    864AH     0001H                  *** GAP ***
            XDATA   864BH     0001H     ABSOLUTE     
            XDATA   864CH     0001H     ABSOLUTE     
            XDATA   864DH     0001H     ABSOLUTE     
            XDATA   864EH     0001H     ABSOLUTE     
            XDATA   864FH     0001H     ABSOLUTE     
            XDATA   8650H     0001H     ABSOLUTE     
            XDATA   8651H     0001H     ABSOLUTE     
                    8652H     0019H                  *** GAP ***
            XDATA   866BH     0001H     ABSOLUTE     
                    866CH     0003H                  *** GAP ***
            XDATA   866FH     0001H     ABSOLUTE     
            XDATA   8670H     0005H     ABSOLUTE     
            XDATA   8675H     0004H     ABSOLUTE     
                    8679H     0002H                  *** GAP ***
            XDATA   867BH     0002H     ABSOLUTE     
            XDATA   867DH     0003H     ABSOLUTE     
                    8680H     0035H                  *** GAP ***
            XDATA   86B5H     0001H     ABSOLUTE     
            XDATA   86B6H     0003H     ABSOLUTE     
                    86B9H     0047H                  *** GAP ***
            XDATA   8700H     0001H     ABSOLUTE     
                    8701H     0002H                  *** GAP ***
            XDATA   8703H     0001H     ABSOLUTE     
            XDATA   8704H     0001H     ABSOLUTE     
            XDATA   8705H     0001H     ABSOLUTE     
            XDATA   8706H     0003H     ABSOLUTE     
            XDATA   8709H     0001H     ABSOLUTE     
            XDATA   870AH     0001H     ABSOLUTE     
            XDATA   870BH     0001H     ABSOLUTE     
            XDATA   870CH     0003H     ABSOLUTE     
                    870FH     0004H                  *** GAP ***
            XDATA   8713H     0001H     ABSOLUTE     
                    8714H     0001H                  *** GAP ***
            XDATA   8715H     0001H     ABSOLUTE     
            XDATA   8716H     0001H     ABSOLUTE     
            XDATA   8717H     0001H     ABSOLUTE     
                    8718H     0001H                  *** GAP ***
            XDATA   8719H     0001H     ABSOLUTE     
            XDATA   871AH     0001H     ABSOLUTE     
            XDATA   871BH     0001H     ABSOLUTE     
            XDATA   871CH     0001H     ABSOLUTE     
            XDATA   871DH     0001H     ABSOLUTE     
                    871EH     0002H                  *** GAP ***
            XDATA   8720H     0001H     ABSOLUTE     
            XDATA   8721H     0001H     ABSOLUTE     
            XDATA   8722H     0001H     ABSOLUTE     
            XDATA   8723H     0001H     ABSOLUTE     
            XDATA   8724H     0001H     ABSOLUTE     
            XDATA   8725H     0001H     ABSOLUTE     
BL51 BANKED LINKER/LOCATER V6.22                                                      01/06/2017  14:57:29  PAGE 22


            XDATA   8726H     0001H     ABSOLUTE     
            XDATA   8727H     0001H     ABSOLUTE     
            XDATA   8728H     0001H     ABSOLUTE     
            XDATA   8729H     0001H     ABSOLUTE     
            XDATA   872AH     0001H     ABSOLUTE     
                    872BH     0005H                  *** GAP ***
            XDATA   8730H     0001H     ABSOLUTE     
                    8731H     0003H                  *** GAP ***
            XDATA   8734H     0001H     ABSOLUTE     
            XDATA   8735H     0001H     ABSOLUTE     
            XDATA   8736H     0001H     ABSOLUTE     
            XDATA   8737H     0001H     ABSOLUTE     
                    8738H     0002H                  *** GAP ***
            XDATA   873AH     0001H     ABSOLUTE     
                    873BH     0003H                  *** GAP ***
            XDATA   873EH     0001H     ABSOLUTE     
                    873FH     0001H                  *** GAP ***
            XDATA   8740H     0001H     ABSOLUTE     
            XDATA   8741H     0001H     ABSOLUTE     
            XDATA   8742H     0001H     ABSOLUTE     
            XDATA   8743H     0001H     ABSOLUTE     
            XDATA   8744H     000FH     ABSOLUTE     
                    8753H     0011H                  *** GAP ***
            XDATA   8764H     001BH     ABSOLUTE     
                    877FH     0005H                  *** GAP ***
            XDATA   8784H     000AH     ABSOLUTE     
                    878EH     0068H                  *** GAP ***
            XDATA   87F6H     0001H     ABSOLUTE     
                    87F7H     0069H                  *** GAP ***
            XDATA   8860H     001FH     ABSOLUTE     
                    887FH     0001H                  *** GAP ***
            XDATA   8880H     0009H     ABSOLUTE     
                    8889H     0016H                  *** GAP ***
            XDATA   889FH     0001H     ABSOLUTE     
            XDATA   88A0H     0001H     ABSOLUTE     
            XDATA   88A1H     0001H     ABSOLUTE     
            XDATA   88A2H     0001H     ABSOLUTE     
            XDATA   88A3H     0001H     ABSOLUTE     
            XDATA   88A4H     0001H     ABSOLUTE     
            XDATA   88A5H     0001H     ABSOLUTE     
            XDATA   88A6H     0001H     ABSOLUTE     
            XDATA   88A7H     0001H     ABSOLUTE     
            XDATA   88A8H     0001H     ABSOLUTE     
            XDATA   88A9H     0001H     ABSOLUTE     
            XDATA   88AAH     0001H     ABSOLUTE     
                    88ABH     0003H                  *** GAP ***
            XDATA   88AEH     0001H     ABSOLUTE     
                    88AFH     0001H                  *** GAP ***
            XDATA   88B0H     0001H     ABSOLUTE     
                    88B1H     0002H                  *** GAP ***
            XDATA   88B3H     0001H     ABSOLUTE     
                    88B4H     0001H                  *** GAP ***
            XDATA   88B5H     0001H     ABSOLUTE     
                    88B6H     000EH                  *** GAP ***
            XDATA   88C4H     0001H     ABSOLUTE     
                    88C5H     01D5H                  *** GAP ***
            XDATA   8A9AH     0001H     ABSOLUTE     
BL51 BANKED LINKER/LOCATER V6.22                                                      01/06/2017  14:57:29  PAGE 23


                    8A9BH     0024H                  *** GAP ***
            XDATA   8ABFH     0001H     ABSOLUTE     
                    8AC0H     0040H                  *** GAP ***
            XDATA   8B00H     0001H     ABSOLUTE     
            XDATA   8B01H     0001H     ABSOLUTE     
            XDATA   8B02H     0001H     ABSOLUTE     
            XDATA   8B03H     0001H     ABSOLUTE     
            XDATA   8B04H     0001H     ABSOLUTE     
                    8B05H     0013H                  *** GAP ***
            XDATA   8B18H     0001H     ABSOLUTE     
            XDATA   8B19H     0001H     ABSOLUTE     
                    8B1AH     0006H                  *** GAP ***
            XDATA   8B20H     0001H     ABSOLUTE     
            XDATA   8B21H     0001H     ABSOLUTE     
            XDATA   8B22H     0001H     ABSOLUTE     
            XDATA   8B23H     0001H     ABSOLUTE     
                    8B24H     0008H                  *** GAP ***
            XDATA   8B2CH     0001H     ABSOLUTE     
                    8B2DH     0004H                  *** GAP ***
            XDATA   8B31H     0001H     ABSOLUTE     
            XDATA   8B32H     0001H     ABSOLUTE     
            XDATA   8B33H     0001H     ABSOLUTE     
            XDATA   8B34H     0001H     ABSOLUTE     
                    8B35H     0003H                  *** GAP ***
            XDATA   8B38H     0001H     ABSOLUTE     
            XDATA   8B39H     0001H     ABSOLUTE     
            XDATA   8B3AH     0001H     ABSOLUTE     
                    8B3BH     0003H                  *** GAP ***
            XDATA   8B3EH     0001H     ABSOLUTE     
            XDATA   8B3FH     0001H     ABSOLUTE     
            XDATA   8B40H     0001H     ABSOLUTE     
            XDATA   8B41H     0001H     ABSOLUTE     
            XDATA   8B42H     0001H     ABSOLUTE     
            XDATA   8B43H     0001H     ABSOLUTE     
                    8B44H     0001H                  *** GAP ***
            XDATA   8B45H     0001H     ABSOLUTE     
            XDATA   8B46H     0001H     ABSOLUTE     
            XDATA   8B47H     0001H     ABSOLUTE     
            XDATA   8B48H     0001H     ABSOLUTE     
            XDATA   8B49H     0001H     ABSOLUTE     
            XDATA   8B4AH     0001H     ABSOLUTE     
            XDATA   8B4BH     0001H     ABSOLUTE     
            XDATA   8B4CH     0001H     ABSOLUTE     
            XDATA   8B4DH     0001H     ABSOLUTE     
            XDATA   8B4EH     0001H     ABSOLUTE     
                    8B4FH     0001H                  *** GAP ***
            XDATA   8B50H     0001H     ABSOLUTE     
                    8B51H     0002H                  *** GAP ***
            XDATA   8B53H     0001H     ABSOLUTE     
            XDATA   8B54H     0001H     ABSOLUTE     
            XDATA   8B55H     0001H     ABSOLUTE     
            XDATA   8B56H     0001H     ABSOLUTE     
            XDATA   8B57H     0001H     ABSOLUTE     
            XDATA   8B58H     0001H     ABSOLUTE     
            XDATA   8B59H     0001H     ABSOLUTE     
            XDATA   8B5AH     0001H     ABSOLUTE     
            XDATA   8B5BH     0001H     ABSOLUTE     
BL51 BANKED LINKER/LOCATER V6.22                                                      01/06/2017  14:57:29  PAGE 24


            XDATA   8B5CH     0001H     ABSOLUTE     
            XDATA   8B5DH     0001H     ABSOLUTE     
            XDATA   8B5EH     0001H     ABSOLUTE     
            XDATA   8B5FH     0001H     ABSOLUTE     
            XDATA   8B60H     0001H     ABSOLUTE     
            XDATA   8B61H     0001H     ABSOLUTE     
            XDATA   8B62H     0001H     ABSOLUTE     
            XDATA   8B63H     0001H     ABSOLUTE     
            XDATA   8B64H     0001H     ABSOLUTE     
            XDATA   8B65H     0001H     ABSOLUTE     
            XDATA   8B66H     0001H     ABSOLUTE     
            XDATA   8B67H     0001H     ABSOLUTE     
            XDATA   8B68H     0001H     ABSOLUTE     
            XDATA   8B69H     0001H     ABSOLUTE     
                    8B6AH     0006H                  *** GAP ***
            XDATA   8B70H     0001H     ABSOLUTE     
                    8B71H     0007H                  *** GAP ***
            XDATA   8B78H     0001H     ABSOLUTE     
            XDATA   8B79H     0001H     ABSOLUTE     
            XDATA   8B7AH     0001H     ABSOLUTE     
                    8B7BH     0005H                  *** GAP ***
            XDATA   8B80H     0001H     ABSOLUTE     
            XDATA   8B81H     0001H     ABSOLUTE     
            XDATA   8B82H     0001H     ABSOLUTE     
            XDATA   8B83H     0001H     ABSOLUTE     
            XDATA   8B84H     0001H     ABSOLUTE     
            XDATA   8B85H     0001H     ABSOLUTE     
            XDATA   8B86H     0001H     ABSOLUTE     
            XDATA   8B87H     0001H     ABSOLUTE     
            XDATA   8B88H     0001H     ABSOLUTE     
            XDATA   8B89H     0001H     ABSOLUTE     
            XDATA   8B8AH     0001H     ABSOLUTE     
            XDATA   8B8BH     0001H     ABSOLUTE     
            XDATA   8B8CH     0001H     ABSOLUTE     
            XDATA   8B8DH     0001H     ABSOLUTE     
            XDATA   8B8EH     0001H     ABSOLUTE     
            XDATA   8B8FH     0001H     ABSOLUTE     
            XDATA   8B90H     0001H     ABSOLUTE     
            XDATA   8B91H     0001H     ABSOLUTE     
            XDATA   8B92H     0001H     ABSOLUTE     
                    8B93H     000DH                  *** GAP ***
            XDATA   8BA0H     0001H     ABSOLUTE     
                    8BA1H     0001H                  *** GAP ***
            XDATA   8BA2H     0001H     ABSOLUTE     
                    8BA3H     002FH                  *** GAP ***
            XDATA   8BD2H     0001H     ABSOLUTE     
                    8BD3H     002DH                  *** GAP ***
            XDATA   8C00H     0001H     ABSOLUTE     
            XDATA   8C01H     0001H     ABSOLUTE     
            XDATA   8C02H     0001H     ABSOLUTE     
            XDATA   8C03H     0001H     ABSOLUTE     
            XDATA   8C04H     0001H     ABSOLUTE     
            XDATA   8C05H     0001H     ABSOLUTE     
            XDATA   8C06H     0001H     ABSOLUTE     
            XDATA   8C07H     0001H     ABSOLUTE     
            XDATA   8C08H     0001H     ABSOLUTE     
            XDATA   8C09H     0001H     ABSOLUTE     
BL51 BANKED LINKER/LOCATER V6.22                                                      01/06/2017  14:57:29  PAGE 25


            XDATA   8C0AH     0001H     ABSOLUTE     
            XDATA   8C0BH     0001H     ABSOLUTE     
            XDATA   8C0CH     0001H     ABSOLUTE     
            XDATA   8C0DH     0001H     ABSOLUTE     
            XDATA   8C0EH     0001H     ABSOLUTE     
            XDATA   8C0FH     0001H     ABSOLUTE     
            XDATA   8C10H     0001H     ABSOLUTE     
            XDATA   8C11H     0001H     ABSOLUTE     
                    8C12H     000EH                  *** GAP ***
            XDATA   8C20H     0001H     ABSOLUTE     
            XDATA   8C21H     0010H     ABSOLUTE     
            XDATA   8C31H     0001H     ABSOLUTE     
            XDATA   8C32H     0010H     ABSOLUTE     
                    8C42H     000EH                  *** GAP ***
            XDATA   8C50H     0020H     ABSOLUTE     
                    8C70H     000FH                  *** GAP ***
            XDATA   8C7FH     0001H     ABSOLUTE     
            XDATA   8C80H     0001H     ABSOLUTE     
            XDATA   8C81H     0001H     ABSOLUTE     
            XDATA   8C82H     0001H     ABSOLUTE     
            XDATA   8C83H     0001H     ABSOLUTE     
            XDATA   8C84H     0001H     ABSOLUTE     
            XDATA   8C85H     0001H     ABSOLUTE     
            XDATA   8C86H     0001H     ABSOLUTE     
            XDATA   8C87H     0001H     ABSOLUTE     
            XDATA   8C88H     0001H     ABSOLUTE     
                    8C89H     0077H                  *** GAP ***
            XDATA   8D00H     0001H     ABSOLUTE     
            XDATA   8D01H     0001H     ABSOLUTE     
            XDATA   8D02H     0001H     ABSOLUTE     
            XDATA   8D03H     0001H     ABSOLUTE     
            XDATA   8D04H     0001H     ABSOLUTE     
            XDATA   8D05H     0001H     ABSOLUTE     
            XDATA   8D06H     0001H     ABSOLUTE     
            XDATA   8D07H     0001H     ABSOLUTE     
            XDATA   8D08H     0001H     ABSOLUTE     
                    8D09H     0027H                  *** GAP ***
            XDATA   8D30H     0001H     ABSOLUTE     
            XDATA   8D31H     0001H     ABSOLUTE     
            XDATA   8D32H     0001H     ABSOLUTE     
            XDATA   8D33H     0001H     ABSOLUTE     
            XDATA   8D34H     0001H     ABSOLUTE     
            XDATA   8D35H     0001H     ABSOLUTE     
            XDATA   8D36H     0001H     ABSOLUTE     
            XDATA   8D37H     0001H     ABSOLUTE     
                    8D38H     0018H                  *** GAP ***
            XDATA   8D50H     0001H     ABSOLUTE     
            XDATA   8D51H     0001H     ABSOLUTE     
            XDATA   8D52H     0001H     ABSOLUTE     
            XDATA   8D53H     0001H     ABSOLUTE     
                    8D54H     0001H                  *** GAP ***
            XDATA   8D55H     0001H     ABSOLUTE     
                    8D56H     0002H                  *** GAP ***
            XDATA   8D58H     0001H     ABSOLUTE     
                    8D59H     0002H                  *** GAP ***
            XDATA   8D5BH     0001H     ABSOLUTE     
            XDATA   8D5CH     0001H     ABSOLUTE     
BL51 BANKED LINKER/LOCATER V6.22                                                      01/06/2017  14:57:29  PAGE 26


                    8D5DH     0002H                  *** GAP ***
            XDATA   8D5FH     0001H     ABSOLUTE     
                    8D60H     00A0H                  *** GAP ***
            XDATA   8E00H     0001H     ABSOLUTE     
                    8E01H     0001H                  *** GAP ***
            XDATA   8E02H     0001H     ABSOLUTE     
                    8E03H     0003H                  *** GAP ***
            XDATA   8E06H     0001H     ABSOLUTE     
            XDATA   8E07H     0001H     ABSOLUTE     
                    8E08H     0004H                  *** GAP ***
            XDATA   8E0CH     0001H     ABSOLUTE     
                    8E0DH     0005H                  *** GAP ***
            XDATA   8E12H     0001H     ABSOLUTE     
            XDATA   8E13H     0001H     ABSOLUTE     
            XDATA   8E14H     0001H     ABSOLUTE     
            XDATA   8E15H     0001H     ABSOLUTE     
                    8E16H     0005H                  *** GAP ***
            XDATA   8E1BH     0001H     ABSOLUTE     
                    8E1CH     0004H                  *** GAP ***
            XDATA   8E20H     0001H     ABSOLUTE     
                    8E21H     0001H                  *** GAP ***
            XDATA   8E22H     0001H     ABSOLUTE     
            XDATA   8E23H     0001H     ABSOLUTE     
            XDATA   8E24H     0001H     ABSOLUTE     
                    8E25H     000BH                  *** GAP ***
            XDATA   8E30H     0001H     ABSOLUTE     
                    8E31H     0002H                  *** GAP ***
            XDATA   8E33H     0001H     ABSOLUTE     
                    8E34H     0002H                  *** GAP ***
            XDATA   8E36H     0001H     ABSOLUTE     
            XDATA   8E37H     0001H     ABSOLUTE     
                    8E38H     0001H                  *** GAP ***
            XDATA   8E39H     0001H     ABSOLUTE     
            XDATA   8E3AH     0001H     ABSOLUTE     
            XDATA   8E3BH     0001H     ABSOLUTE     
            XDATA   8E3CH     0001H     ABSOLUTE     
            XDATA   8E3DH     0001H     ABSOLUTE     
            XDATA   8E3EH     0001H     ABSOLUTE     
            XDATA   8E3FH     0001H     ABSOLUTE     
            XDATA   8E40H     0001H     ABSOLUTE     
                    8E41H     0005H                  *** GAP ***
            XDATA   8E46H     0001H     ABSOLUTE     
            XDATA   8E47H     0001H     ABSOLUTE     
                    8E48H     0008H                  *** GAP ***
            XDATA   8E50H     0001H     ABSOLUTE     
                    8E51H     0001H                  *** GAP ***
            XDATA   8E52H     0001H     ABSOLUTE     
            XDATA   8E53H     0001H     ABSOLUTE     
            XDATA   8E54H     0001H     ABSOLUTE     
            XDATA   8E55H     0001H     ABSOLUTE     
            XDATA   8E56H     0001H     ABSOLUTE     
            XDATA   8E57H     0001H     ABSOLUTE     
            XDATA   8E58H     0001H     ABSOLUTE     
            XDATA   8E59H     0001H     ABSOLUTE     
            XDATA   8E5AH     0001H     ABSOLUTE     
            XDATA   8E5BH     0001H     ABSOLUTE     
            XDATA   8E5CH     0001H     ABSOLUTE     
BL51 BANKED LINKER/LOCATER V6.22                                                      01/06/2017  14:57:29  PAGE 27


            XDATA   8E5DH     0001H     ABSOLUTE     
            XDATA   8E5EH     0001H     ABSOLUTE     
            XDATA   8E5FH     0001H     ABSOLUTE     
                    8E60H     0001H                  *** GAP ***
            XDATA   8E61H     0001H     ABSOLUTE     
            XDATA   8E62H     0001H     ABSOLUTE     
            XDATA   8E63H     0001H     ABSOLUTE     
            XDATA   8E64H     0001H     ABSOLUTE     
            XDATA   8E65H     0001H     ABSOLUTE     
            XDATA   8E66H     0001H     ABSOLUTE     
            XDATA   8E67H     0001H     ABSOLUTE     
            XDATA   8E68H     0001H     ABSOLUTE     
                    8E69H     0001H                  *** GAP ***
            XDATA   8E6AH     0001H     ABSOLUTE     
            XDATA   8E6BH     0001H     ABSOLUTE     
            XDATA   8E6CH     0001H     ABSOLUTE     
                    8E6DH     0001H                  *** GAP ***
            XDATA   8E6EH     0001H     ABSOLUTE     
            XDATA   8E6FH     0001H     ABSOLUTE     
                    8E70H     0001H                  *** GAP ***
            XDATA   8E71H     0001H     ABSOLUTE     
                    8E72H     0002H                  *** GAP ***
            XDATA   8E74H     0001H     ABSOLUTE     
            XDATA   8E75H     0001H     ABSOLUTE     
            XDATA   8E76H     0001H     ABSOLUTE     
            XDATA   8E77H     0001H     ABSOLUTE     
                    8E78H     0003H                  *** GAP ***
            XDATA   8E7BH     0001H     ABSOLUTE     
            XDATA   8E7CH     0001H     ABSOLUTE     
                    8E7DH     0003H                  *** GAP ***
            XDATA   8E80H     0001H     ABSOLUTE     
            XDATA   8E81H     0001H     ABSOLUTE     
                    8E82H     0001H                  *** GAP ***
            XDATA   8E83H     0001H     ABSOLUTE     
                    8E84H     0001H                  *** GAP ***
            XDATA   8E85H     0001H     ABSOLUTE     
            XDATA   8E86H     0001H     ABSOLUTE     
                    8E87H     0001H                  *** GAP ***
            XDATA   8E88H     0001H     ABSOLUTE     
                    8E89H     0002H                  *** GAP ***
            XDATA   8E8BH     0001H     ABSOLUTE     
            XDATA   8E8CH     0001H     ABSOLUTE     
                    8E8DH     0004H                  *** GAP ***
            XDATA   8E91H     0001H     ABSOLUTE     
            XDATA   8E92H     0001H     ABSOLUTE     
            XDATA   8E93H     0001H     ABSOLUTE     
            XDATA   8E94H     0001H     ABSOLUTE     
            XDATA   8E95H     0001H     ABSOLUTE     
            XDATA   8E96H     0001H     ABSOLUTE     
            XDATA   8E97H     0001H     ABSOLUTE     
            XDATA   8E98H     0001H     ABSOLUTE     
                    8E99H     0007H                  *** GAP ***
            XDATA   8EA0H     0001H     ABSOLUTE     
                    8EA1H     0003H                  *** GAP ***
            XDATA   8EA4H     0001H     ABSOLUTE     
            XDATA   8EA5H     0001H     ABSOLUTE     
            XDATA   8EA6H     0001H     ABSOLUTE     
BL51 BANKED LINKER/LOCATER V6.22                                                      01/06/2017  14:57:29  PAGE 28


            XDATA   8EA7H     0001H     ABSOLUTE     
            XDATA   8EA8H     0001H     ABSOLUTE     
                    8EA9H     0003H                  *** GAP ***
            XDATA   8EACH     0001H     ABSOLUTE     
            XDATA   8EADH     0001H     ABSOLUTE     
            XDATA   8EAEH     0001H     ABSOLUTE     
            XDATA   8EAFH     0001H     ABSOLUTE     
            XDATA   8EB0H     0001H     ABSOLUTE     
            XDATA   8EB1H     0001H     ABSOLUTE     
            XDATA   8EB2H     000CH     ABSOLUTE     
                    8EBEH     0002H                  *** GAP ***
            XDATA   8EC0H     0001H     ABSOLUTE     
            XDATA   8EC1H     0001H     ABSOLUTE     
            XDATA   8EC2H     0001H     ABSOLUTE     
            XDATA   8EC3H     0001H     ABSOLUTE     
            XDATA   8EC4H     0001H     ABSOLUTE     
            XDATA   8EC5H     0001H     ABSOLUTE     
            XDATA   8EC6H     0001H     ABSOLUTE     
                    8EC7H     0005H                  *** GAP ***
            XDATA   8ECCH     0001H     ABSOLUTE     
            XDATA   8ECDH     0001H     ABSOLUTE     
                    8ECEH     0002H                  *** GAP ***
            XDATA   8ED0H     0001H     ABSOLUTE     
            XDATA   8ED1H     0001H     ABSOLUTE     
            XDATA   8ED2H     0001H     ABSOLUTE     
            XDATA   8ED3H     0001H     ABSOLUTE     
            XDATA   8ED4H     0001H     ABSOLUTE     
            XDATA   8ED5H     0001H     ABSOLUTE     
            XDATA   8ED6H     0001H     ABSOLUTE     
            XDATA   8ED7H     0001H     ABSOLUTE     
            XDATA   8ED8H     0001H     ABSOLUTE     
                    8ED9H     0007H                  *** GAP ***
            XDATA   8EE0H     0001H     ABSOLUTE     
            XDATA   8EE1H     0001H     ABSOLUTE     
            XDATA   8EE2H     0001H     ABSOLUTE     
            XDATA   8EE3H     0001H     ABSOLUTE     
            XDATA   8EE4H     0001H     ABSOLUTE     
            XDATA   8EE5H     0001H     ABSOLUTE     
            XDATA   8EE6H     0001H     ABSOLUTE     
            XDATA   8EE7H     0001H     ABSOLUTE     
            XDATA   8EE8H     0001H     ABSOLUTE     
                    8EE9H     0022H                  *** GAP ***
            XDATA   8F0BH     0001H     ABSOLUTE     
            XDATA   8F0CH     0001H     ABSOLUTE     
                    8F0DH     00F3H                  *** GAP ***
            XDATA   9000H     0001H     ABSOLUTE     
            XDATA   9001H     0001H     ABSOLUTE     
                    9002H     0001H                  *** GAP ***
            XDATA   9003H     0001H     ABSOLUTE     
                    9004H     000BH                  *** GAP ***
            XDATA   900FH     0001H     ABSOLUTE     
            XDATA   9010H     0001H     ABSOLUTE     
            XDATA   9011H     0001H     ABSOLUTE     
            XDATA   9012H     0001H     ABSOLUTE     
            XDATA   9013H     0001H     ABSOLUTE     
            XDATA   9014H     0001H     ABSOLUTE     
                    9015H     0005H                  *** GAP ***
BL51 BANKED LINKER/LOCATER V6.22                                                      01/06/2017  14:57:29  PAGE 29


            XDATA   901AH     0001H     ABSOLUTE     
            XDATA   901BH     0001H     ABSOLUTE     
            XDATA   901CH     0001H     ABSOLUTE     
            XDATA   901DH     0001H     ABSOLUTE     
                    901EH     0002H                  *** GAP ***
            XDATA   9020H     0001H     ABSOLUTE     
                    9021H     0003H                  *** GAP ***
            XDATA   9024H     0001H     ABSOLUTE     
            XDATA   9025H     0001H     ABSOLUTE     
            XDATA   9026H     0001H     ABSOLUTE     
            XDATA   9027H     0001H     ABSOLUTE     
            XDATA   9028H     0001H     ABSOLUTE     
            XDATA   9029H     0001H     ABSOLUTE     
            XDATA   902AH     0001H     ABSOLUTE     
            XDATA   902BH     0001H     ABSOLUTE     
            XDATA   902CH     0001H     ABSOLUTE     
                    902DH     0001H                  *** GAP ***
            XDATA   902EH     0001H     ABSOLUTE     
            XDATA   902FH     0001H     ABSOLUTE     
            XDATA   9030H     0001H     ABSOLUTE     
                    9031H     0001H                  *** GAP ***
            XDATA   9032H     0001H     ABSOLUTE     
            XDATA   9033H     0001H     ABSOLUTE     
            XDATA   9034H     0001H     ABSOLUTE     
                    9035H     0002H                  *** GAP ***
            XDATA   9037H     0001H     ABSOLUTE     
                    9038H     0001H                  *** GAP ***
            XDATA   9039H     0001H     ABSOLUTE     
            XDATA   903AH     0001H     ABSOLUTE     
                    903BH     0004H                  *** GAP ***
            XDATA   903FH     0001H     ABSOLUTE     
            XDATA   9040H     0001H     ABSOLUTE     
                    9041H     0002H                  *** GAP ***
            XDATA   9043H     0001H     ABSOLUTE     
            XDATA   9044H     0001H     ABSOLUTE     
            XDATA   9045H     0001H     ABSOLUTE     
            XDATA   9046H     0001H     ABSOLUTE     
            XDATA   9047H     0001H     ABSOLUTE     
            XDATA   9048H     0001H     ABSOLUTE     
            XDATA   9049H     0001H     ABSOLUTE     
                    904AH     0003H                  *** GAP ***
            XDATA   904DH     0001H     ABSOLUTE     
                    904EH     0002H                  *** GAP ***
            XDATA   9050H     0001H     ABSOLUTE     
                    9051H     0003H                  *** GAP ***
            XDATA   9054H     0001H     ABSOLUTE     
            XDATA   9055H     0001H     ABSOLUTE     
                    9056H     0001H                  *** GAP ***
            XDATA   9057H     0001H     ABSOLUTE     
            XDATA   9058H     0001H     ABSOLUTE     
            XDATA   9059H     0001H     ABSOLUTE     
            XDATA   905AH     0001H     ABSOLUTE     
                    905BH     0018H                  *** GAP ***
            XDATA   9073H     0001H     ABSOLUTE     
            XDATA   9074H     0001H     ABSOLUTE     
            XDATA   9075H     0001H     ABSOLUTE     
            XDATA   9076H     0001H     ABSOLUTE     
BL51 BANKED LINKER/LOCATER V6.22                                                      01/06/2017  14:57:29  PAGE 30


            XDATA   9077H     0001H     ABSOLUTE     
                    9078H     0008H                  *** GAP ***
            XDATA   9080H     0001H     ABSOLUTE     
            XDATA   9081H     0001H     ABSOLUTE     
            XDATA   9082H     0001H     ABSOLUTE     
            XDATA   9083H     0001H     ABSOLUTE     
            XDATA   9084H     0001H     ABSOLUTE     
            XDATA   9085H     0001H     ABSOLUTE     
            XDATA   9086H     0001H     ABSOLUTE     
            XDATA   9087H     0001H     ABSOLUTE     
                    9088H     0001H                  *** GAP ***
            XDATA   9089H     0001H     ABSOLUTE     
            XDATA   908AH     0001H     ABSOLUTE     
            XDATA   908BH     0001H     ABSOLUTE     
            XDATA   908CH     0001H     ABSOLUTE     
            XDATA   908DH     0001H     ABSOLUTE     
            XDATA   908EH     0001H     ABSOLUTE     
            XDATA   908FH     0001H     ABSOLUTE     
            XDATA   9090H     0001H     ABSOLUTE     
            XDATA   9091H     0001H     ABSOLUTE     
            XDATA   9092H     0001H     ABSOLUTE     
            XDATA   9093H     0001H     ABSOLUTE     
                    9094H     0009H                  *** GAP ***
            XDATA   909DH     0001H     ABSOLUTE     
            XDATA   909EH     0001H     ABSOLUTE     
                    909FH     0019H                  *** GAP ***
            XDATA   90B8H     0001H     ABSOLUTE     
                    90B9H     0003H                  *** GAP ***
            XDATA   90BCH     0001H     ABSOLUTE     
                    90BDH     0003H                  *** GAP ***
            XDATA   90C0H     0001H     ABSOLUTE     
            XDATA   90C1H     0001H     ABSOLUTE     
            XDATA   90C2H     0001H     ABSOLUTE     
                    90C3H     0005H                  *** GAP ***
            XDATA   90C8H     0001H     ABSOLUTE     
                    90C9H     0005H                  *** GAP ***
            XDATA   90CEH     0001H     ABSOLUTE     
                    90CFH     0018H                  *** GAP ***
            XDATA   90E7H     0001H     ABSOLUTE     
            XDATA   90E8H     0001H     ABSOLUTE     
                    90E9H     0008H                  *** GAP ***
            XDATA   90F1H     0001H     ABSOLUTE     
            XDATA   90F2H     0001H     ABSOLUTE     
            XDATA   90F3H     0001H     ABSOLUTE     
            XDATA   90F4H     0001H     ABSOLUTE     
            XDATA   90F5H     0001H     ABSOLUTE     
                    90F6H     0001H                  *** GAP ***
            XDATA   90F7H     0001H     ABSOLUTE     
                    90F8H     0008H                  *** GAP ***
            XDATA   9100H     0001H     ABSOLUTE     
            XDATA   9101H     0001H     ABSOLUTE     
            XDATA   9102H     0001H     ABSOLUTE     
            XDATA   9103H     0001H     ABSOLUTE     
            XDATA   9104H     0001H     ABSOLUTE     
                    9105H     0001H                  *** GAP ***
            XDATA   9106H     0001H     ABSOLUTE     
            XDATA   9107H     0001H     ABSOLUTE     
BL51 BANKED LINKER/LOCATER V6.22                                                      01/06/2017  14:57:29  PAGE 31


                    9108H     0015H                  *** GAP ***
            XDATA   911DH     0001H     ABSOLUTE     
                    911EH     0005H                  *** GAP ***
            XDATA   9123H     0001H     ABSOLUTE     
                    9124H     0001H                  *** GAP ***
            XDATA   9125H     0001H     ABSOLUTE     
            XDATA   9126H     0001H     ABSOLUTE     
                    9127H     002BH                  *** GAP ***
            XDATA   9152H     0001H     ABSOLUTE     
                    9153H     000DH                  *** GAP ***
            XDATA   9160H     0001H     ABSOLUTE     
            XDATA   9161H     0001H     ABSOLUTE     
                    9162H     001EH                  *** GAP ***
            XDATA   9180H     0001H     ABSOLUTE     
                    9181H     007FH                  *** GAP ***
            XDATA   9200H     0001H     ABSOLUTE     
            XDATA   9201H     0001H     ABSOLUTE     
            XDATA   9202H     0001H     ABSOLUTE     
                    9203H     0021H                  *** GAP ***
            XDATA   9224H     0001H     ABSOLUTE     
                    9225H     000CH                  *** GAP ***
            XDATA   9231H     0001H     ABSOLUTE     
            XDATA   9232H     0001H     ABSOLUTE     
            XDATA   9233H     0001H     ABSOLUTE     
            XDATA   9234H     0001H     ABSOLUTE     
                    9235H     0002H                  *** GAP ***
            XDATA   9237H     0001H     ABSOLUTE     
                    9238H     00C8H                  *** GAP ***
            XDATA   9300H     0100H     ABSOLUTE     
                    9400H     0260H                  *** GAP ***
            XDATA   9660H     0001H     ABSOLUTE     
            XDATA   9661H     0001H     ABSOLUTE     
            XDATA   9662H     0001H     ABSOLUTE     
            XDATA   9663H     0001H     ABSOLUTE     
            XDATA   9664H     0001H     ABSOLUTE     
            XDATA   9665H     0001H     ABSOLUTE     
            XDATA   9666H     0001H     ABSOLUTE     
                    9667H     0001H                  *** GAP ***
            XDATA   9668H     0001H     ABSOLUTE     
            XDATA   9669H     0001H     ABSOLUTE     
            XDATA   966AH     0001H     ABSOLUTE     
            XDATA   966BH     0001H     ABSOLUTE     
                    966CH     0002H                  *** GAP ***
            XDATA   966EH     0001H     ABSOLUTE     
            XDATA   966FH     0001H     ABSOLUTE     
            XDATA   9670H     0001H     ABSOLUTE     
            XDATA   9671H     0001H     ABSOLUTE     
            XDATA   9672H     0001H     ABSOLUTE     
            XDATA   9673H     0001H     ABSOLUTE     
            XDATA   9674H     0001H     ABSOLUTE     
            XDATA   9675H     0001H     ABSOLUTE     
            XDATA   9676H     0001H     ABSOLUTE     
            XDATA   9677H     0001H     ABSOLUTE     
            XDATA   9678H     0001H     ABSOLUTE     
            XDATA   9679H     0001H     ABSOLUTE     
            XDATA   967AH     0001H     ABSOLUTE     
            XDATA   967BH     0001H     ABSOLUTE     
BL51 BANKED LINKER/LOCATER V6.22                                                      01/06/2017  14:57:29  PAGE 32


            XDATA   967CH     0001H     ABSOLUTE     
            XDATA   967DH     0001H     ABSOLUTE     
            XDATA   967EH     0001H     ABSOLUTE     
            XDATA   967FH     0001H     ABSOLUTE     
            XDATA   9680H     0001H     ABSOLUTE     
            XDATA   9681H     0001H     ABSOLUTE     
            XDATA   9682H     0001H     ABSOLUTE     
                    9683H     0001H                  *** GAP ***
            XDATA   9684H     0001H     ABSOLUTE     
            XDATA   9685H     0001H     ABSOLUTE     
            XDATA   9686H     0001H     ABSOLUTE     
                    9687H     0001H                  *** GAP ***
            XDATA   9688H     0001H     ABSOLUTE     
            XDATA   9689H     0001H     ABSOLUTE     
            XDATA   968AH     0001H     ABSOLUTE     
                    968BH     0002H                  *** GAP ***
            XDATA   968DH     0001H     ABSOLUTE     
            XDATA   968EH     0001H     ABSOLUTE     
            XDATA   968FH     0001H     ABSOLUTE     
            XDATA   9690H     0001H     ABSOLUTE     
            XDATA   9691H     0001H     ABSOLUTE     
            XDATA   9692H     0001H     ABSOLUTE     
            XDATA   9693H     0001H     ABSOLUTE     
            XDATA   9694H     0001H     ABSOLUTE     
                    9695H     0003H                  *** GAP ***
            XDATA   9698H     0001H     ABSOLUTE     
            XDATA   9699H     0001H     ABSOLUTE     
            XDATA   969AH     0001H     ABSOLUTE     
            XDATA   969BH     0001H     ABSOLUTE     
            XDATA   969CH     0001H     ABSOLUTE     
                    969DH     0003H                  *** GAP ***
            XDATA   96A0H     0001H     ABSOLUTE     
            XDATA   96A1H     0001H     ABSOLUTE     
            XDATA   96A2H     0001H     ABSOLUTE     
            XDATA   96A3H     0001H     ABSOLUTE     
            XDATA   96A4H     0001H     ABSOLUTE     
            XDATA   96A5H     0001H     ABSOLUTE     
            XDATA   96A6H     0001H     ABSOLUTE     
                    96A7H     002AH                  *** GAP ***
            XDATA   96D1H     0001H     ABSOLUTE     
                    96D2H     0004H                  *** GAP ***
            XDATA   96D6H     0001H     ABSOLUTE     
                    96D7H     0029H                  *** GAP ***
            XDATA   9700H     0300H     ABSOLUTE     
            XDATA   9A00H     0300H     ABSOLUTE     
            XDATA   9D00H     0080H     ABSOLUTE     
            XDATA   9D80H     0050H     ABSOLUTE     
                    9DD0H     0010H                  *** GAP ***
            XDATA   9DE0H     0001H     ABSOLUTE     
            XDATA   9DE1H     0001H     ABSOLUTE     
                    9DE2H     000EH                  *** GAP ***
            XDATA   9DF0H     0001H     ABSOLUTE     
            XDATA   9DF1H     0001H     ABSOLUTE     
            XDATA   9DF2H     0001H     ABSOLUTE     
                    9DF3H     000DH                  *** GAP ***
            XDATA   9E00H     0080H     ABSOLUTE     
                    9E80H     0080H                  *** GAP ***
BL51 BANKED LINKER/LOCATER V6.22                                                      01/06/2017  14:57:29  PAGE 33


            XDATA   9F00H     0080H     ABSOLUTE     
                    9F80H     0080H                  *** GAP ***
            XDATA   A000H     01BDH     UNIT         ?XD?RAM
            XDATA   A1BDH     0128H     UNIT         ?XD?OSDVIEW
            XDATA   A2E5H     00FFH     UNIT         _XDATA_GROUP_
            XDATA   A3E4H     0054H     UNIT         ?XD?OSDVIEW2
            XDATA   A438H     0053H     UNIT         ?XD?DCR_SETDYMACE
            XDATA   A48BH     0053H     UNIT         ?XD?DDCCI
            XDATA   A4DEH     0049H     UNIT         ?XD?INT
            XDATA   A527H     0047H     UNIT         ?XD?DCR
            XDATA   A56EH     0030H     UNIT         ?XD?MISC
            XDATA   A59EH     0026H     UNIT         ?XD?OSDAPI_INDENT
            XDATA   A5C4H     0023H     UNIT         ?XD?KEYCTRL
            XDATA   A5E7H     001BH     UNIT         ?XD?OSDVIEW3
            XDATA   A602H     0016H     UNIT         ?XD?_OSDSHOWTOPPAGEICON?OSDVIEW
            XDATA   A618H     0014H     UNIT         ?XD?OSDSHOWSERVICEMENU?SMOSDVIEW
            XDATA   A62CH     0013H     UNIT         ?XD?SYNCHANDLER
            XDATA   A63FH     0013H     UNIT         ?XD?_OSDSHOWCUSMENUICON?OSDVIEW
            XDATA   A652H     000FH     UNIT         ?XD?COLORCONFIG
            XDATA   A661H     000DH     UNIT         ?XD?DBC
            XDATA   A66EH     000BH     UNIT         ?XD?MATRIX
            XDATA   A679H     000AH     UNIT         ?XD?SCALER_TMDS
            XDATA   A683H     000AH     UNIT         ?XD?OSDAPI
            XDATA   A68DH     0009H     UNIT         ?XD?APPCTRL
            XDATA   A696H     0009H     UNIT         ?XD?OSDCTRL
            XDATA   A69FH     0008H     UNIT         ?XD?_FACTORYOSDSHOWNUM?FOSDVIEW
            XDATA   A6A7H     0008H     UNIT         ?XD?HDCP
            XDATA   A6AFH     0008H     UNIT         ?XD?FE2P
            XDATA   A6B7H     0007H     UNIT         ?XD?SCALER_DISPLAY
            XDATA   A6BEH     0006H     UNIT         ?XD?MCU
            XDATA   A6C4H     0006H     UNIT         ?XD?_OSDSHOWSOURCEICON?OSDVIEW
            XDATA   A6CAH     0006H     UNIT         ?XD?_FOSDSHOWNUM?FOSDVIEW
            XDATA   A6D0H     0006H     UNIT         ?XD?_OSDFOCUSMAIN?OSDVIEW2
            XDATA   A6D6H     0006H     UNIT         ?XD?_OSDSHOWTOPPAGESTRING?OSDVIEW2
            XDATA   A6DCH     0005H     UNIT         ?XD?MODEHANDLER
            XDATA   A6E1H     0005H     UNIT         ?XD?SCALER_HDMI
            XDATA   A6E6H     0005H     UNIT         ?XD?SCALER_SYNC
            XDATA   A6EBH     0005H     UNIT         ?XD?_OSDSELECTLAYER4ITEM?OSDVIEW
            XDATA   A6F0H     0005H     UNIT         ?XD?FOSDVIEW
            XDATA   A6F5H     0005H     UNIT         ?XD?_OSDCLEARITEMSTRING?OSDVIEW2
            XDATA   A6FAH     0004H     UNIT         ?XD?AUTOADJ
            XDATA   A6FEH     0004H     UNIT         ?XD?_OSDSELECTDIALOGITEM?OSDVIEW
            XDATA   A702H     0004H     UNIT         ?XD?SCALER_ADC
            XDATA   A706H     0004H     UNIT         ?XD?_FOSDINITFRAME?FOSDVIEW
            XDATA   A70AH     0004H     UNIT         ?XD?_OSDPAGEMAINFRAME?OSDVIEW2
            XDATA   A70EH     0004H     UNIT         ?XD?_OSDDRAWCUSTOMHOOK?OSDVIEW2
            XDATA   A712H     0003H     UNIT         ?XD?SCALER_CSC
            XDATA   A715H     0003H     UNIT         ?XD?OSDLANGUESLECETRELOAD?OSDVIEW
            XDATA   A718H     0003H     UNIT         ?XD?_OSDSHOWCUSMENUSTRING?OSDVIEW
            XDATA   A71BH     0003H     UNIT         ?XD?SCALER_DP
            XDATA   A71EH     0003H     UNIT         ?XD?_GETSERIALNUMBER?SMOSDVIEW
            XDATA   A721H     0003H     UNIT         ?XD?_GETMINLAYER3VALIDOSDSTATE?OSDCTRL
            XDATA   A724H     0003H     UNIT         ?XD?_GETMAXLAYER3VALIDOSDSTATE?OSDCTRL
            XDATA   A727H     0003H     UNIT         ?XD?OSDSUBITM411UP?OSDCTRL
            XDATA   A72AH     0003H     UNIT         ?XD?OSDSUBITM411DOWN?OSDCTRL
            XDATA   A72DH     0003H     UNIT         ?XD?_FACTORYSHOWVALUE?FOSDVIEW
            XDATA   A730H     0003H     UNIT         ?XD?_OSDUNSELECTLAYER1ITEM?OSDVIEW2
BL51 BANKED LINKER/LOCATER V6.22                                                      01/06/2017  14:57:29  PAGE 34


            XDATA   A733H     0003H     UNIT         ?XD?_OSDUNSELECTLAYER3ITEM?OSDVIEW2
            XDATA   A736H     0003H     UNIT         ?XD?OSDCUSTOMERMENUUP?OSDVIEW2
            XDATA   A739H     0003H     UNIT         ?XD?OSDCUSTOMERMENUDOWN?OSDVIEW2
            XDATA   A73CH     0003H     UNIT         ?XD?_OSDBLINKTOPPAGEBUTTON?OSDVIEW2
            XDATA   A73FH     0003H     UNIT         ?XD?_OSDUPDATECUSTOMHOOK?OSDVIEW2
            XDATA   A742H     0002H     UNIT         ?XD?FE2P_API
            XDATA   A744H     0002H     UNIT         ?XD?_OSDSELECTLBLLAYER4ITEM?OSDVIEW
            XDATA   A746H     0002H     UNIT         ?XD?_OSDCLEARLAYER4BYITEM?OSDVIEW
            XDATA   A748H     0002H     UNIT         ?XD?_OSDSHOWCUSPICTUREMODESTRINGS?OSDVIEW
            XDATA   A74AH     0002H     UNIT         ?XD?_OSDSHOWCUSDISPLAYMODESTRINGS?OSDVIEW
            XDATA   A74CH     0002H     UNIT         ?XD?_OSDSHOWCUSINPUTSTRINGS?OSDVIEW
            XDATA   A74EH     0002H     UNIT         ?XD?_OSDSHOWCUSTOMMENUDIALOGSTRING?OSDVIEW
            XDATA   A750H     0002H     UNIT         ?XD?_OSDSHOWCUSTOMMENUTITLE?OSDVIEW
            XDATA   A752H     0002H     UNIT         ?XD?OSDENTERCONFIRINPUT?OSDCTRL
            XDATA   A754H     0002H     UNIT         ?XD?OSDSUBMENUUP1?OSDCTRL
            XDATA   A756H     0002H     UNIT         ?XD?OSDSUBMENUDOWN1?OSDCTRL
            XDATA   A758H     0002H     UNIT         ?XD?OSDEXITSUBITM411?OSDCTRL
            XDATA   A75AH     0002H     UNIT         ?XD?SCALER_CAPTURE
            XDATA   A75CH     0002H     UNIT         ?XD?_OSDSETBFMENUITM?OSDVIEW2
            XDATA   A75EH     0002H     UNIT         ?XD?_OSDUNSELECTDIALOGITEM?OSDVIEW2
            XDATA   A760H     0002H     UNIT         ?XD?_OSDCLRLAYER3MENU?OSDVIEW2
            XDATA   A762H     0002H     UNIT         ?XD?_OSDSHOWLAYER4MENU?OSDVIEW2
            XDATA   A764H     0002H     UNIT         ?XD?_OSDEXITSUBITMS?OSDVIEW2
            XDATA   A766H     0002H     UNIT         ?XD?_OSDEXITITMS?OSDVIEW2
            XDATA   A768H     0002H     UNIT         ?XD?OSDSHOWTOPPAGEMENU?OSDVIEW2
            XDATA   A76AH     0001H     UNIT         ?XD?SCALER_DP_COMMON
            XDATA   A76BH     0001H     UNIT         ?XD?SYSAPI
            XDATA   A76CH     0001H     UNIT         ?XD?KEYPAD
            XDATA   A76DH     0001H     UNIT         ?XD?_OSDUNSELECTLBLLAYER4ITEM?OSDVIEW
            XDATA   A76EH     0001H     UNIT         ?XD?BFAPI
            XDATA   A76FH     0001H     UNIT         ?XD?USERSETTING
            XDATA   A770H     0001H     UNIT         ?XD?SMOSDVIEW
            XDATA   A771H     0001H     UNIT         ?XD?_OSDSHOWCUSTOMERMENU?OSDCTRL
            XDATA   A772H     0001H     UNIT         ?XD?OSDSELECTINPUT?OSDCTRL
            XDATA   A773H     0001H     UNIT         ?XD?OSDCONFIRMITM32?OSDCTRL
            XDATA   A774H     0001H     UNIT         ?XD?OSDSHOWFACTORY?FOSDVIEW
            XDATA   A775H     0001H     UNIT         ?XD?OSDFACTORYENTERITM?FOSDVIEW
            XDATA   A776H     0001H     UNIT         ?XD?_FACTORYSHOWAUTOCOLOR?FOSDVIEW
            XDATA   A777H     0001H     UNIT         ?XD?OD
            XDATA   A778H     0001H     UNIT         ?XD?_OSDSHOWCUSKEYHOOK?OSDVIEW2
            XDATA   A779H     0001H     UNIT         ?XD?OSDSHOWMAINMENU?OSDVIEW2
            XDATA   A77AH     0001H     UNIT         ?XD?_OSDUNSELECTLAYER4ITEM?OSDVIEW2
            XDATA   A77BH     0001H     UNIT         ?XD?OSDSHOWINPUTMENU?OSDVIEW2
            XDATA   A77CH     0001H     UNIT         ?XD?_OSDDRAWCUSTOMMENUFRAME?OSDVIEW2
            XDATA   A77DH     0001H     UNIT         ?XD?OSDSHOWDISPLAYMODEMENU?OSDVIEW2
            XDATA   A77EH     0001H     UNIT         ?XD?OSDSHOWPICTUREMODEMENU?OSDVIEW2
            XDATA   A77FH     0001H     UNIT         ?XD?OSDSHOWVOLUMEMENU?OSDVIEW2
            XDATA   A780H     0001H     UNIT         ?XD?OSDSHOWMUTEMENU?OSDVIEW2
            XDATA   A781H     0001H     UNIT         ?XD?OSDSHOWBRIGHTNESSMENU?OSDVIEW2
            XDATA   A782H     0001H     UNIT         ?XD?OSDSHOWCONTRASTMENU?OSDVIEW2
            XDATA   A783H     0001H     UNIT         ?XD?_OSDISCUSTOMKEYITEMVALID?OSDVIEW2
            XDATA   A784H     0001H     UNIT         ?XD?OSDSENSEYEDEMOUP?OSDVIEW2
                    A785H     007BH                  *** GAP ***
            XDATA   A800H     0800H     ABSOLUTE     
                    B000H     4000H                  *** GAP ***
            XDATA   F000H     0001H     ABSOLUTE     
            XDATA   F001H     0001H     ABSOLUTE     
BL51 BANKED LINKER/LOCATER V6.22                                                      01/06/2017  14:57:29  PAGE 35


            XDATA   F002H     0001H     ABSOLUTE     
            XDATA   F003H     0001H     ABSOLUTE     
            XDATA   F004H     0001H     ABSOLUTE     
            XDATA   F005H     0001H     ABSOLUTE     
            XDATA   F006H     0001H     ABSOLUTE     
            XDATA   F007H     0001H     ABSOLUTE     
            XDATA   F008H     0001H     ABSOLUTE     
            XDATA   F009H     0001H     ABSOLUTE     
            XDATA   F00AH     0001H     ABSOLUTE     
            XDATA   F00BH     0001H     ABSOLUTE     
            XDATA   F00CH     0001H     ABSOLUTE     
            XDATA   F00DH     0001H     ABSOLUTE     
            XDATA   F00EH     0001H     ABSOLUTE     
            XDATA   F00FH     0001H     ABSOLUTE     
                    F010H     0008H                  *** GAP ***
            XDATA   F018H     0001H     ABSOLUTE     
                    F019H     0003H                  *** GAP ***
            XDATA   F01CH     0001H     ABSOLUTE     
            XDATA   F01DH     0001H     ABSOLUTE     
            XDATA   F01EH     0001H     ABSOLUTE     
            XDATA   F01FH     0001H     ABSOLUTE     
            XDATA   F020H     0001H     ABSOLUTE     
            XDATA   F021H     0001H     ABSOLUTE     
            XDATA   F022H     0001H     ABSOLUTE     
                    F023H     0001H                  *** GAP ***
            XDATA   F024H     0001H     ABSOLUTE     
            XDATA   F025H     0001H     ABSOLUTE     
            XDATA   F026H     0001H     ABSOLUTE     
                    F027H     0005H                  *** GAP ***
            XDATA   F02CH     0001H     ABSOLUTE     
            XDATA   F02DH     0001H     ABSOLUTE     
            XDATA   F02EH     0001H     ABSOLUTE     
                    F02FH     000AH                  *** GAP ***
            XDATA   F039H     0001H     ABSOLUTE     
            XDATA   F03AH     0001H     ABSOLUTE     
            XDATA   F03BH     0001H     ABSOLUTE     
            XDATA   F03CH     0001H     ABSOLUTE     
            XDATA   F03DH     0001H     ABSOLUTE     
            XDATA   F03EH     0001H     ABSOLUTE     
            XDATA   F03FH     0001H     ABSOLUTE     
            XDATA   F040H     0001H     ABSOLUTE     
            XDATA   F041H     0001H     ABSOLUTE     
            XDATA   F042H     0001H     ABSOLUTE     
            XDATA   F043H     0001H     ABSOLUTE     
            XDATA   F044H     0001H     ABSOLUTE     
            XDATA   F045H     0001H     ABSOLUTE     
            XDATA   F046H     0001H     ABSOLUTE     
            XDATA   F047H     0001H     ABSOLUTE     
            XDATA   F048H     0001H     ABSOLUTE     
                    F049H     0003H                  *** GAP ***
            XDATA   F04CH     0001H     ABSOLUTE     
            XDATA   F04DH     0001H     ABSOLUTE     
            XDATA   F04EH     0001H     ABSOLUTE     
            XDATA   F04FH     0001H     ABSOLUTE     
            XDATA   F050H     0001H     ABSOLUTE     
                    F051H     0002H                  *** GAP ***
            XDATA   F053H     0001H     ABSOLUTE     
BL51 BANKED LINKER/LOCATER V6.22                                                      01/06/2017  14:57:29  PAGE 36


            XDATA   F054H     0001H     ABSOLUTE     
            XDATA   F055H     0001H     ABSOLUTE     
            XDATA   F056H     0001H     ABSOLUTE     
                    F057H     0001H                  *** GAP ***
            XDATA   F058H     0001H     ABSOLUTE     
                    F059H     0004H                  *** GAP ***
            XDATA   F05DH     0001H     ABSOLUTE     
            XDATA   F05EH     0001H     ABSOLUTE     
                    F05FH     0001H                  *** GAP ***
            XDATA   F060H     0001H     ABSOLUTE     
            XDATA   F061H     0001H     ABSOLUTE     
            XDATA   F062H     0001H     ABSOLUTE     
                    F063H     0007H                  *** GAP ***
            XDATA   F06AH     0001H     ABSOLUTE     
                    F06BH     000AH                  *** GAP ***
            XDATA   F075H     0001H     ABSOLUTE     
                    F076H     0001H                  *** GAP ***
            XDATA   F077H     0001H     ABSOLUTE     
            XDATA   F078H     0001H     ABSOLUTE     
            XDATA   F079H     0001H     ABSOLUTE     
            XDATA   F07AH     0001H     ABSOLUTE     
            XDATA   F07BH     0001H     ABSOLUTE     
            XDATA   F07CH     0001H     ABSOLUTE     
            XDATA   F07DH     0001H     ABSOLUTE     
            XDATA   F07EH     0001H     ABSOLUTE     
            XDATA   F07FH     0001H     ABSOLUTE     
            XDATA   F080H     0001H     ABSOLUTE     
            XDATA   F081H     0001H     ABSOLUTE     
            XDATA   F082H     0001H     ABSOLUTE     
            XDATA   F083H     0001H     ABSOLUTE     
            XDATA   F084H     0001H     ABSOLUTE     
            XDATA   F085H     0001H     ABSOLUTE     
            XDATA   F086H     0001H     ABSOLUTE     
            XDATA   F087H     0001H     ABSOLUTE     
            XDATA   F088H     0001H     ABSOLUTE     
            XDATA   F089H     0001H     ABSOLUTE     
            XDATA   F08AH     0001H     ABSOLUTE     
            XDATA   F08BH     0001H     ABSOLUTE     
            XDATA   F08CH     0001H     ABSOLUTE     
            XDATA   F08DH     0001H     ABSOLUTE     
            XDATA   F08EH     0001H     ABSOLUTE     
            XDATA   F08FH     0001H     ABSOLUTE     
            XDATA   F090H     0001H     ABSOLUTE     
            XDATA   F091H     0001H     ABSOLUTE     
            XDATA   F092H     0001H     ABSOLUTE     
            XDATA   F093H     0001H     ABSOLUTE     
            XDATA   F094H     0001H     ABSOLUTE     
            XDATA   F095H     0001H     ABSOLUTE     
            XDATA   F096H     0001H     ABSOLUTE     
            XDATA   F097H     0001H     ABSOLUTE     
            XDATA   F098H     0001H     ABSOLUTE     
            XDATA   F099H     0001H     ABSOLUTE     
            XDATA   F09AH     0001H     ABSOLUTE     
            XDATA   F09BH     0001H     ABSOLUTE     
            XDATA   F09CH     0001H     ABSOLUTE     
            XDATA   F09DH     0001H     ABSOLUTE     
            XDATA   F09EH     0001H     ABSOLUTE     
BL51 BANKED LINKER/LOCATER V6.22                                                      01/06/2017  14:57:29  PAGE 37


            XDATA   F09FH     0001H     ABSOLUTE     
            XDATA   F0A0H     0001H     ABSOLUTE     
            XDATA   F0A1H     0001H     ABSOLUTE     
            XDATA   F0A2H     0001H     ABSOLUTE     
                    F0A3H     0005H                  *** GAP ***
            XDATA   F0A8H     0001H     ABSOLUTE     
            XDATA   F0A9H     0001H     ABSOLUTE     
            XDATA   F0AAH     0001H     ABSOLUTE     
            XDATA   F0ABH     0001H     ABSOLUTE     
            XDATA   F0ACH     0001H     ABSOLUTE     
            XDATA   F0ADH     0001H     ABSOLUTE     
                    F0AEH     0002H                  *** GAP ***
            XDATA   F0B0H     0001H     ABSOLUTE     
            XDATA   F0B1H     0001H     ABSOLUTE     
            XDATA   F0B2H     0001H     ABSOLUTE     
            XDATA   F0B3H     0001H     ABSOLUTE     
            XDATA   F0B4H     0001H     ABSOLUTE     
                    F0B5H     000BH                  *** GAP ***
            XDATA   F0C0H     0001H     ABSOLUTE     
            XDATA   F0C1H     0001H     ABSOLUTE     
            XDATA   F0C2H     0001H     ABSOLUTE     
            XDATA   F0C3H     0001H     ABSOLUTE     
            XDATA   F0C4H     0001H     ABSOLUTE     
            XDATA   F0C5H     0001H     ABSOLUTE     
            XDATA   F0C6H     0001H     ABSOLUTE     
            XDATA   F0C7H     0001H     ABSOLUTE     
            XDATA   F0C8H     0001H     ABSOLUTE     
            XDATA   F0C9H     0001H     ABSOLUTE     
            XDATA   F0CAH     0001H     ABSOLUTE     
            XDATA   F0CBH     0001H     ABSOLUTE     
            XDATA   F0CCH     0001H     ABSOLUTE     
            XDATA   F0CDH     0001H     ABSOLUTE     
            XDATA   F0CEH     0001H     ABSOLUTE     
                    F0CFH     0002H                  *** GAP ***
            XDATA   F0D1H     0001H     ABSOLUTE     
            XDATA   F0D2H     0001H     ABSOLUTE     
            XDATA   F0D3H     0001H     ABSOLUTE     
                    F0D4H     0009H                  *** GAP ***
            XDATA   F0DDH     0001H     ABSOLUTE     
            XDATA   F0DEH     0001H     ABSOLUTE     
                    F0DFH     0001H                  *** GAP ***
            XDATA   F0E0H     0001H     ABSOLUTE     
            XDATA   F0E1H     0001H     ABSOLUTE     
                    F0E2H     071EH                  *** GAP ***
            XDATA   F800H     0100H     ABSOLUTE     
            XDATA   F900H     0100H     ABSOLUTE     
            XDATA   FA00H     0100H     ABSOLUTE     
            XDATA   FB00H     0100H     ABSOLUTE     
            XDATA   FC00H     0100H     ABSOLUTE     

            * * * * * * *   C O D E   M E M O R Y   * * * * * * *
            CODE    0000H     0003H     ABSOLUTE     
            CODE    0003H     0003H     ABSOLUTE     
            CODE    0006H     0005H     UNIT         ?CO?MCUDDC
            CODE    000BH     0003H     ABSOLUTE     
            CODE    000EH     0005H     UNIT         ?PR?FE2P_GET_LIB_VER?FE2P
            CODE    0013H     0003H     ABSOLUTE     
BL51 BANKED LINKER/LOCATER V6.22                                                      01/06/2017  14:57:29  PAGE 38


                    0016H     0002H                  *** GAP ***
            CODE    0018H     0008H     ABSOLUTE     
            CODE    0020H     0003H     UNIT         ?PR?CHECKMODECHANGEFLAG?INT
            CODE    0023H     0003H     ABSOLUTE     
            CODE    0026H     00D7H     UNIT         ?CO?FE2P
            CODE    00FDH     0003H     UNIT         ?PR?CLEARMODECHANGEFLAG?INT
            CODE    0100H     0044H     ABSOLUTE     
            CODE    0144H     1479H     UNIT         ?BANK?SELECT
            CODE    15BDH     0BE9H     UNIT         ?C?LIB_CODE
            CODE    21A6H     0483H     UNIT         ?PR?PRINTF?PRINTF
            CODE    2629H     0476H     UNIT         ?C_INITSEG
            CODE    2A9FH     031DH     UNIT         ?CO?NVRAM
            CODE    2DBCH     031AH     UNIT         ?PR?_OSDAPI_SETINDENTSTRING?OSDAPI_COMMON
            CODE    30D6H     02E0H     UNIT         ?PR?INTEXT0?INT
            CODE    33B6H     01D6H     UNIT         ?PR?INTEXT1?INT
            CODE    358CH     01BBH     UNIT         ?PR?FE2P
            CODE    3747H     0194H     UNIT         ?PR?_FE2P_PAGEWRITE?FE2P
            CODE    38DBH     0191H     UNIT         ?PR?_FE2P_INIT?FE2P
            CODE    3A6CH     0172H     UNIT         ?PR?_DPPHY_POWERON?SCALER_DP_COMMON
            CODE    3BDEH     0127H     UNIT         ?PR?_FE2P_CUSTOMCMD?FE2P
            CODE    3D05H     010CH     UNIT         ?PR?READSCALERID?MAIN
            CODE    3E11H     0109H     UNIT         ?CO?SCALER_DP
            CODE    3F1AH     00EEH     UNIT         ?CO?BFAPI
            CODE    4008H     00E9H     UNIT         ?PR?OSDAPI_COMMON
            CODE    40F1H     00BFH     UNIT         ?PR?_FE2P_BYTEWRITE?FE2P
            CODE    41B0H     00BDH     UNIT         ?PR?_OSDAPI_LOADFONT?OSDAPI_COMMON
            CODE    426DH     00BDH     UNIT         ?PR?DP_INITDPCONFIGPAGE?SCALER_DP_COMMON
            CODE    432AH     009FH     UNIT         ?PR?SHOWINDENTSTRING?OSDAPI_COMMON
            CODE    43C9H     0093H     UNIT         ?PR?_FE2P_SECTORERASE?FE2P
            CODE    445CH     008EH     UNIT         ?PR?SCALERACCESS
            CODE    44EAH     0080H     UNIT         ?C_C51STARTUP
            CODE    456AH     0078H     UNIT         ?PR?_FE2P_SETPROTECT?FE2P
            CODE    45E2H     0078H     UNIT         ?PR?_FE2P_SETOFFSET?FE2P
            CODE    465AH     006CH     UNIT         ?CO?SCALER_MMU
            CODE    46C6H     006AH     UNIT         ?CO?SR
            CODE    4730H     0067H     UNIT         ?PR?DP_INITDPCD?SCALER_DP_COMMON
            CODE    4797H     0067H     UNIT         ?PR?_FE2P_PAGEREAD?FE2P
            CODE    47FEH     0064H     UNIT         ?PR?_PMC_SECTOR_UNLOCK?FE2P
            CODE    4862H     005EH     UNIT         ?PR?INTUART?INT
            CODE    48C0H     005BH     UNIT         ?PR?_OSDAPI_LOADPALETTE?OSDAPI_COMMON
            CODE    491BH     005AH     UNIT         ?PR?_FE2P_SET_SPI_CMD_BUFFER_ADDR?FE2P
            CODE    4975H     0059H     UNIT         ?PR?_READ3BYTESCALERHIGHLOWFILTER?SCALERACCESS
            CODE    49CEH     0054H     UNIT         ?PR?OSDAPI_WRITEXYSTRING?OSDAPI_COMMON
            CODE    4A22H     0052H     UNIT         ?PR?_GMAPI_LOADGAMMA320?GAMAAPI_COMMON
            CODE    4A74H     004DH     UNIT         ?CO?APPCTRL
            CODE    4AC1H     004CH     UNIT         ?PR?_WRITESCALERINDEXPORT?SCALERACCESS
            CODE    4B0DH     004AH     UNIT         ?PR?INTTIMER0?INT
            CODE    4B57H     0049H     UNIT         ?PR?MAIN?MAIN
            CODE    4BA0H     0049H     UNIT         ?PR?DPPHY_POWEROFF?SCALER_DP_COMMON
            CODE    4BE9H     0048H     UNIT         ?PR?DP_CONFIGAUX2IICSPEED?SCALER_DP_COMMON
            CODE    4C31H     003FH     UNIT         ?CO?MATRIX
            CODE    4C70H     003EH     UNIT         ?PR?_READSHORTSCALERHIGHLOWFILTER?SCALERACCESS
            CODE    4CAEH     003EH     UNIT         ?PR?_FE2P_CHECKFLASHTYPE?FE2P
            CODE    4CECH     003DH     UNIT         ?PR?_FE2P_PAGEWRITE_ACT?FE2P
            CODE    4D29H     003BH     UNIT         ?PR?_FE2P_ACTUALSECTORERASE?FE2P
            CODE    4D64H     0038H     UNIT         ?PR?_DPAUX_SELECT?SCALER_DP_COMMON
            CODE    4D9CH     0038H     UNIT         ?PR?_FE2P_BYTEREAD?FE2P
BL51 BANKED LINKER/LOCATER V6.22                                                      01/06/2017  14:57:29  PAGE 39


            CODE    4DD4H     002AH     UNIT         ?CO?DCR
                    4DFEH     0002H                  *** GAP ***
            CODE    4E00H     003CH     PAGE         ?BANK?SWITCH
            CODE    4E3CH     0037H     UNIT         ?CO?SCALER_CSC
            CODE    4E73H     0036H     UNIT         ?PR?_UART_PUTCHAR?INT
            CODE    4EA9H     0032H     UNIT         ?CO?PANEL
            CODE    4EDBH     0032H     UNIT         ?PR?PMC_SECTOR_LOCK?FE2P
            CODE    4F0DH     0031H     UNIT         ?PR?_READ3BYTESCALER?SCALERACCESS
            CODE    4F3EH     002EH     UNIT         ?PR?_PUTCHAR?INT
            CODE    4F6CH     0027H     UNIT         ?CO?MODESEARCH
            CODE    4F93H     0027H     UNIT         ?PR?FE2P_RDSR?FE2P
            CODE    4FBAH     0026H     UNIT         ?PR?FE2P_MX2026UNPROTECT?FE2P
            CODE    4FE0H     001FH     UNIT         ?PR?GETTIMERTICK?INT
                    4FFFH     87F8H                  *** GAP ***
            CODE    D7F7H     0025H     UNIT         ?PR?GETEMBEDDEDCHECKSUM?EMBEDCHECKSUM
            CODE    D81CH     0022H     UNIT         ?PR?_WRITE3BYTESCALER?SCALERACCESS
            CODE    D83EH     001FH     UNIT         ?PR?SETDPSPEED?SCALER_DP_COMMON
            CODE    D85DH     001EH     UNIT         ?CO?KEYCTRL
            CODE    D87BH     001DH     UNIT         ?PR?FE2P_WRITEENABLE?FE2P
            CODE    D898H     001CH     UNIT         ?CO?SRAPI
            CODE    D8B4H     001BH     UNIT         ?CO?KEYPAD
            CODE    D8CFH     0016H     UNIT         ?CO?FE2P_API
            CODE    D8E5H     0014H     UNIT         ?PR?GAMAAPI_COMMON
            CODE    D8F9H     0014H     UNIT         ?CO?SCALER_TMDS
            CODE    D90DH     0012H     UNIT         ?PR?_READSHORTSCALER?SCALERACCESS
            CODE    D91FH     0011H     UNIT         ?PR?MAIN
            CODE    D930H     0010H     UNIT         ?CO?NR
            CODE    D940H     000FH     UNIT         ?PR?_WRITESHORTSCALER?SCALERACCESS
            CODE    D94FH     000FH     UNIT         ?PR?DP_CLKON?SCALER_DP_COMMON
            CODE    D95EH     000FH     UNIT         ?PR?DP_CLKOFF?SCALER_DP_COMMON
            CODE    D96DH     000CH     UNIT         ?PR?_ABS?ABS
            CODE    D979H     000AH     UNIT         ?CO?MAIN
            CODE    D983H     000AH     UNIT         ?CO?EMBEDCHECKSUM
            CODE    D98DH     0009H     UNIT         ?CO?MCU
            CODE    D996H     0008H     UNIT         ?CO?SCALER_DISPLAY
            CODE    D99EH     0008H     UNIT         ?PR?_LABS?LABS
            CODE    D9A6H     0006H     UNIT         ?PR?GETDPLINK?SCALER_DP_COMMON
            CODE    D9ACH     0006H     UNIT         ?PR?CLRDPLINK?SCALER_DP_COMMON
            CODE    D9B2H     0004H     UNIT         ?CO?SYNCHANDLER
            CODE    D9B6H     0003H     UNIT         ?PR?SETMODECHANGEFLAG?INT
            CODE    D9B9H     0003H     UNIT         ?PR?_DP_INITPHY?SCALER_DP_COMMON

            * * * * * * *   C O D E   B A N K   0   * * * * * * *
                    0000H     0016H                  *** GAP ***
            BANK0   0016H     0001H     UNIT         ?PR?SCALERAUDIOPOWEROFF?SCALER_HDMI
            BANK0   0017H     0001H     UNIT         ?PR?SCALERAUDIOPOWERON?SCALER_HDMI
                    0018H     4DE6H                  *** GAP ***
            BANK0   4DFEH     0001H     UNIT         ?PR?SETLVDSCHPOLSWAP?SCALER_LVDS
            BANK0   4DFFH     0001H     UNIT         ?PR?_TMDSBANDWIDTHDETECTION?SCALER_TMDS
                    4E00H     01FFH                  *** GAP ***
            BANK0   4FFFH     0001H     UNIT         ?PR?TMDS_ENABLESCDT?SCALER_TMDS
            BANK0   5000H     0CB0H     UNIT         ?CO?MODETABLE
            BANK0   5CB0H     00F0H     UNIT         ?CO?SCALER_COMMON
            BANK0   5DA0H     09BBH     UNIT         ?PR?_TMDSCLOCKTRAINING?SCALER_TMDS
            BANK0   675BH     0430H     UNIT         ?PR?MODESEARCH?MODESEARCH
            BANK0   6B8BH     0304H     UNIT         ?PR?SCALER_TMDS
            BANK0   6E8FH     02DFH     UNIT         ?PR?_SETINPUTINTERFACE?SCALER_COMMON
BL51 BANKED LINKER/LOCATER V6.22                                                      01/06/2017  14:57:29  PAGE 40


            BANK0   716EH     02CBH     UNIT         ?PR?_CSC_CHECKINPUTFORMAT?SCALER_CSC
            BANK0   7439H     025AH     UNIT         ?PR?AUTOADJ
            BANK0   7693H     0249H     UNIT         ?PR?ISPRESETMODETIMING?MODECONFIG
            BANK0   78DCH     0228H     UNIT         ?PR?AUTOGAIN?AUTOADJ
            BANK0   7B04H     020CH     UNIT         ?PR?TMDSDEEPCOLORDETECTION?SCALER_HDMI
            BANK0   7D10H     01FDH     UNIT         ?PR?_AUTOPHASEFINETUNE?AUTOADJ
            BANK0   7F0DH     01F7H     UNIT         ?PR?HWAUTOOFFSET?AUTOADJ
            BANK0   8104H     01D8H     UNIT         ?PR?TMDS_DUALLINKDETECTION?SCALER_TMDS
            BANK0   82DCH     01BEH     UNIT         ?PR?AUTOGAINCOARSE?AUTOADJ
            BANK0   849AH     01BBH     UNIT         ?PR?CHECKINPUTSYNC?SCALER_SYNC
            BANK0   8655H     018DH     UNIT         ?PR?MCUCHECKDDCUPDATE?MCUDDC
            BANK0   87E2H     0180H     UNIT         ?PR?CHECKIMAGEOUTOFSCREEN?AUTOADJ
            BANK0   8962H     0177H     UNIT         ?PR?SETNRBYANALOGTIMING?NR
            BANK0   8AD9H     0176H     UNIT         ?PR?AUTOPOSITION?AUTOADJ
            BANK0   8C4FH     0169H     UNIT         ?PR?AUTOCLOCKBYPHASE?AUTOADJ
            BANK0   8DB8H     0156H     UNIT         ?PR?MODEHANDLER?MODEHANDLER
            BANK0   8F0EH     014BH     UNIT         ?PR?_TMDS_EQSET_EQSETTING?SCALER_TMDS
            BANK0   9059H     0146H     UNIT         ?PR?FE2P_SAVETOFLASH?FE2P_API
            BANK0   919FH     0136H     UNIT         ?PR?_CONFIGSCALERAUDIO?SCALER_HDMI
            BANK0   92D5H     0133H     UNIT         ?PR?DECODETIMESCALE?FE2P_API
            BANK0   9408H     012CH     UNIT         ?PR?CHECKPHASEDATA?AUTOADJ
            BANK0   9534H     0129H     UNIT         ?PR?AUTOCLOCK?AUTOADJ
            BANK0   965DH     0114H     UNIT         ?PR?CHECKMODECHANGE?SYNCHANDLER
            BANK0   9771H     010FH     UNIT         ?PR?_COPYMODETABLE?MODESEARCH
            BANK0   9880H     010EH     UNIT         ?PR?_NVRAMWRITETIMINGDATA?NVRAM
            BANK0   998EH     010CH     UNIT         ?PR?CHECKSOG?SCALER_SYNC
            BANK0   9A9AH     010AH     UNIT         ?PR?_EDIDSYNC?MCUDDC
            BANK0   9BA4H     0109H     UNIT         ?PR?_TMDSINITPHY?SCALER_TMDS
            BANK0   9CADH     0107H     UNIT         ?PR?SETHMASK?AUTOADJ
            BANK0   9DB4H     0104H     UNIT         ?PR?HDMIHANDLER?SCALER_HDMI
            BANK0   9EB8H     0100H     UNIT         ?PR?RECORDTIMESCALE?FE2P_API
            BANK0   9FB8H     00F3H     UNIT         ?PR?CHECKTMDSERRORCOUNTER?SCALER_TMDS
            BANK0   A0ABH     00F0H     UNIT         ?PR?GETKEY?KEYPAD
            BANK0   A19BH     00EEH     UNIT         ?PR?APHYPOWEROFF?SCALER_TMDS
            BANK0   A289H     00ECH     UNIT         ?PR?SYNCSOURCE?SYNCHANDLER
            BANK0   A375H     00E6H     UNIT         ?PR?GETAVERAGEINPUTVSYNCWIDTH?MODESEARCH
            BANK0   A45BH     00E4H     UNIT         ?PR?CSC_SETSCALERCSC?SCALER_CSC
            BANK0   A53FH     00E2H     UNIT         ?PR?DVIAUTOPOSITION?AUTOADJ
            BANK0   A621H     00DEH     UNIT         ?PR?TMDS_EQSET_FLOW?SCALER_TMDS
            BANK0   A6FFH     00DBH     UNIT         ?PR?MODESEARCH
            BANK0   A7DAH     00D7H     UNIT         ?PR?_SETVGAOVERSCANRATIO?MODECONFIG
            BANK0   A8B1H     00D4H     UNIT         ?PR?MMUINITIALIZE?SCALER_MMU
            BANK0   A985H     00D3H     UNIT         ?PR?_SETOVERSCANRATIO?MODECONFIG
            BANK0   AA58H     00C8H     UNIT         ?PR?_NVRAMREADTIMINGDATA?NVRAM
            BANK0   AB20H     00C4H     UNIT         ?PR?_SETADCPLL2?AUTOADJ
            BANK0   ABE4H     00C2H     UNIT         ?PR?MODECONFIG?MODECONFIG
            BANK0   ACA6H     00BDH     UNIT         ?PR?FE2P_RAMINITIALIZE?FE2P_API
            BANK0   AD63H     00BAH     UNIT         ?PR?_PHYLINKSELECT?SCALER_COMMON
            BANK0   AE1DH     00BAH     UNIT         ?PR?SCALER_SYNC
            BANK0   AED7H     00B6H     UNIT         ?PR?SETMINMAX?MODECONFIG
            BANK0   AF8DH     00B3H     UNIT         ?PR?SCALERINITIALIZE?SCALER_COMMON
            BANK0   B040H     00B2H     UNIT         ?PR?_NVRAMINITIALIZE?NVRAM
            BANK0   B0F2H     00B1H     UNIT         ?PR?CSC_SETCAPTURECSC?SCALER_CSC
            BANK0   B1A3H     00B0H     UNIT         ?PR?PANELPOWEROFFSEQUENCE?SYSAPI
            BANK0   B253H     00AEH     UNIT         ?PR?MODECONFIG
            BANK0   B301H     00ACH     UNIT         ?PR?NVRAMISEMPTY?NVRAM
            BANK0   B3ADH     00ABH     UNIT         ?PR?AUTOCOLOR?AUTOADJ
BL51 BANKED LINKER/LOCATER V6.22                                                      01/06/2017  14:57:29  PAGE 41


            BANK0   B458H     00AAH     UNIT         ?PR?_MCUSETIOBIT?MCUIO
            BANK0   B502H     00AAH     UNIT         ?PR?_ENABLESYNCPROCFREERUN?SCALER_SYNC
            BANK0   B5ACH     00A8H     UNIT         ?PR?NVRAM
            BANK0   B654H     00A5H     UNIT         ?PR?DETECTASPECTRATIO?MODECONFIG
            BANK0   B6F9H     00A0H     UNIT         ?PR?SETNORMALPOWERMODE?SCALER_POWER
            BANK0   B799H     00A0H     UNIT         ?PR?FE2P_API
            BANK0   B839H     009FH     UNIT         ?PR?SYNCHANDLER?SYNCHANDLER
            BANK0   B8D8H     009EH     UNIT         ?PR?_SETHSVSOFFSET?MODECONFIG
            BANK0   B976H     009DH     UNIT         ?PR?GETCURRINPUTINTERFACE?SCALER_COMMON
            BANK0   BA13H     009BH     UNIT         ?PR?FE2P_CHECKVALIDBLOCK?FE2P_API
            BANK0   BAAEH     0098H     UNIT         ?PR?_SYSAPI_PERFORMHPDOFF?SYSAPI
            BANK0   BB46H     0098H     UNIT         ?PR?GETINPUTVTOTAL?SCALER_SYNC
            BANK0   BBDEH     0097H     UNIT         ?PR?CHECKINVALIDPARAMETER?MODECONFIG
            BANK0   BC75H     0091H     UNIT         ?PR?_SCALERAUDIOSELECT?SCALER_HDMI
            BANK0   BD06H     008DH     UNIT         ?PR?_SETLOWPOWERMODE?SCALER_POWER
            BANK0   BD93H     0082H     UNIT         ?PR?ISVIDEOTIMING?MODECONFIG
            BANK0   BE15H     0081H     UNIT         ?PR?MCUINITIO?MCU
            BANK0   BE96H     007DH     UNIT         ?PR?AUTOTUNE?AUTOADJ
            BANK0   BF13H     007BH     UNIT         ?PR?_TMDS_EQSET_GETERRCNT?SCALER_TMDS
            BANK0   BF8EH     0079H     UNIT         ?PR?SCALER_HDMI
            BANK0   C007H     0078H     UNIT         ?PR?TMDSCLOCKSTABLE?SCALER_TMDS
            BANK0   C07FH     0076H     UNIT         ?PR?_MCUSETDDC?MCUDDC
            BANK0   C0F5H     0076H     UNIT         ?PR?_MCUENABLEIIC?MCUHWIIC
            BANK0   C16BH     0075H     UNIT         ?PR?GETNEXTSIMILARTIMING?MODESEARCH
            BANK0   C1E0H     0075H     UNIT         ?PR?_SETUPHSYNCOVERFLOWMASK?SCALER_SYNC
            BANK0   C255H     0075H     UNIT         ?PR?_DELAYVTIME?SCALER_SYNC
            BANK0   C2CAH     0071H     UNIT         ?PR?_NVRAMREADDVIEDID?NVRAM
            BANK0   C33BH     006EH     UNIT         ?PR?MCUPOWERUPAPLL?MCU
            BANK0   C3A9H     006EH     UNIT         ?PR?_FE2P_NVRAMWRITE?FE2P_API
            BANK0   C417H     006BH     UNIT         ?PR?HDMIDELAYAUDIOINIT?SCALER_HDMI
            BANK0   C482H     006BH     UNIT         ?PR?SYNCINIT?SCALER_SYNC
            BANK0   C4EDH     006AH     UNIT         ?PR?SETMODECHANGED?SYNCHANDLER
            BANK0   C557H     006AH     UNIT         ?PR?UPDATECAPTUREINFO?MODECONFIG
            BANK0   C5C1H     006AH     UNIT         ?PR?_PANELPOWERONSEQUENCE?SYSAPI
            BANK0   C62BH     0068H     UNIT         ?PR?ISNATIVETIMING?MODECONFIG
            BANK0   C693H     0068H     UNIT         ?PR?ISCOMPONENTTIMING?MODECONFIG
            BANK0   C6FBH     0067H     UNIT         ?PR?_ISHNONFULLSCREEN?AUTOADJCONFIG
            BANK0   C762H     0067H     UNIT         ?PR?_SETBRIGHTNESS?SYSAPI
            BANK0   C7C9H     0067H     UNIT         ?PR?MMUPOWEROFF?SCALER_MMU
            BANK0   C830H     0064H     UNIT         ?PR?_GETIOKEYCODE?KEYPAD
            BANK0   C894H     0064H     UNIT         ?PR?GETINPUTVFREQ?SCALER_SYNC
            BANK0   C8F8H     0063H     UNIT         ?PR?GETDIGINPUTHACTIVE?SCALER_TMDS
            BANK0   C95BH     0060H     UNIT         ?PR?LVDSINIT?SCALER_LVDS
            BANK0   C9BBH     005EH     UNIT         ?PR?ISOUTOFRANGE?MODECONFIG
            BANK0   CA19H     005EH     UNIT         ?PR?_SETVOLUME?SYSAPI
            BANK0   CA77H     005EH     UNIT         ?PR?_MCUGETADC?MCUADC
            BANK0   CAD5H     005EH     UNIT         ?PR?_CHECKEDIDSUM?MCUDDC
            BANK0   CB33H     005DH     UNIT         ?PR?CHECKTMDSVCOVALUE?SCALER_TMDS
            BANK0   CB90H     005DH     UNIT         ?PR?CSC_SETPOSTPATTERNCOLOR?SCALER_CSC
            BANK0   CBEDH     005CH     UNIT         ?PR?HDMIINIT?SCALER_HDMI
            BANK0   CC49H     005BH     UNIT         ?PR?_MCUENABLEADC?MCUADC
            BANK0   CCA4H     005BH     UNIT         ?PR?_MCUDISABLEADC?MCUADC
            BANK0   CCFFH     005BH     UNIT         ?PR?GETINPUTHFREQ?SCALER_SYNC
            BANK0   CD5AH     005BH     UNIT         ?PR?_FLASH_PROTECTOFF?FE2P_API
            BANK0   CDB5H     005AH     UNIT         ?PR?SCALER_COMMON
            BANK0   CE0FH     0059H     UNIT         ?PR?MCUDDC
            BANK0   CE68H     0056H     UNIT         ?PR?GETSYNCSOURCETIMER?SYNCHANDLER
BL51 BANKED LINKER/LOCATER V6.22                                                      01/06/2017  14:57:29  PAGE 42


            BANK0   CEBEH     0056H     UNIT         ?PR?MCUINITIALIZE?MCU
            BANK0   CF14H     0054H     UNIT         ?PR?_FE2P_NVRAMREAD?FE2P_API
            BANK0   CF68H     0052H     UNIT         ?PR?_MCUCFGIOTYPE?MCUIO
            BANK0   CFBAH     0052H     UNIT         ?PR?UPDATEGLOBALTIMER?MISC
            BANK0   D00CH     0051H     UNIT         ?PR?SCALERPOWERSAVING?SCALER_POWER
            BANK0   D05DH     0050H     UNIT         ?PR?MCUINITCORE?MCU
            BANK0   D0ADH     0050H     UNIT         ?PR?GETDIGINPUTVACTIVE?SCALER_TMDS
            BANK0   D0FDH     0050H     UNIT         ?PR?_TMDS_EQSET_ERRCNTINIT?SCALER_TMDS
            BANK0   D14DH     0050H     UNIT         ?PR?SETCOLORSPACE_OSD_HDMI_RGB_PC_RANGE?SCALER_CSC
            BANK0   D19DH     004FH     UNIT         ?PR?MCUINITMISC?MCU
            BANK0   D1ECH     004FH     UNIT         ?PR?CHECKFACTORYMODE?KEYPAD
            BANK0   D23BH     004EH     UNIT         ?PR?_NVRAMREADHDMIEDID?NVRAM
            BANK0   D289H     004EH     UNIT         ?PR?SCANKEYPAD?KEYPAD
            BANK0   D2D7H     004AH     UNIT         ?PR?_ISVNONFULLSCREEN?AUTOADJCONFIG
            BANK0   D321H     0049H     UNIT         ?PR?MMUPOWERON?SCALER_MMU
            BANK0   D36AH     0048H     UNIT         ?PR?GETINPUTTIMING?MODEHANDLER
            BANK0   D3B2H     0047H     UNIT         ?PR?MCUPOWERDOWNAPLL?MCU
            BANK0   D3F9H     0046H     UNIT         ?PR?CHECKOVERSCAN?MODECONFIG
            BANK0   D43FH     0043H     UNIT         ?PR?SETDVIPLL?SCALER_TMDS
            BANK0   D482H     0042H     UNIT         ?PR?NVRAMLOADDATA?NVRAM
            BANK0   D4C4H     0042H     UNIT         ?PR?ZPSYNCDETECT?SCALER_SYNC
            BANK0   D506H     0040H     UNIT         ?PR?_MCUGETIOBIT?MCUIO
            BANK0   D546H     0040H     UNIT         ?PR?BISHPDACTIVE?BOARD
            BANK0   D586H     0040H     UNIT         ?PR?RAMINITIALIZE?RAM
            BANK0   D5C6H     003FH     UNIT         ?PR?_SC_SETBITDPPPPHY?SCALER_TMDS
            BANK0   D605H     003BH     UNIT         ?PR?SYSAPI_SETPOWEROFF?SYSAPI
            BANK0   D640H     003BH     UNIT         ?PR?AUDIOMUTEON?BOARD
            BANK0   D67BH     003BH     UNIT         ?PR?SCALER_CSC
            BANK0   D6B6H     003AH     UNIT         ?PR?NVRAMCLEARALL?NVRAM
            BANK0   D6F0H     003AH     UNIT         ?PR?NVRAMCLEARTIMING?NVRAM
            BANK0   D72AH     003AH     UNIT         ?PR?_MCUENABLEDDC?MCUDDC
            BANK0   D764H     003AH     UNIT         ?PR?_MCUDISABLEDDC?MCUDDC
            BANK0   D79EH     003AH     UNIT         ?PR?_MCUDISABLEIIC?MCUHWIIC
            BANK0   D7D8H     001EH     UNIT         ?PR?CONFIGHPD?BOARD
                    D7F6H     01C6H                  *** GAP ***
            BANK0   D9BCH     003AH     UNIT         ?PR?_MCUIICPRESENDACK?MCUHWIIC
            BANK0   D9F6H     0039H     UNIT         ?PR?MEASUREIMAGESIZE?AUTOADJ
            BANK0   DA2FH     0039H     UNIT         ?PR?_MCUSETDDCWP?MCUDDC
            BANK0   DA68H     0039H     UNIT         ?PR?_MCUSETIOBYTE?MCUIO
            BANK0   DAA1H     0039H     UNIT         ?PR?_TMDSDATAALIGN?SCALER_TMDS
            BANK0   DADAH     0039H     UNIT         ?PR?FLASH_PROTECTON?FE2P_API
            BANK0   DB13H     0039H     UNIT         ?PR?ERASETIMESCALE?FE2P_API
            BANK0   DB4CH     0038H     UNIT         ?PR?NR
            BANK0   DB84H     0038H     UNIT         ?PR?SCALERPOWERDOWN?SCALER_POWER
            BANK0   DBBCH     0037H     UNIT         ?PR?_ISNONSUPPORTMODE?MODESEARCH
            BANK0   DBF3H     0037H     UNIT         ?PR?NVRAMVALIDCHECK?NVRAM
            BANK0   DC2AH     0037H     UNIT         ?PR?CSC_SETREPETITION?SCALER_CSC
            BANK0   DC61H     0033H     UNIT         ?PR?MCUINITDDC?MCU
            BANK0   DC94H     0033H     UNIT         ?PR?_MCUSETIIC?MCUHWIIC
            BANK0   DCC7H     0033H     UNIT         ?PR?_MCUIICRELEASESCL?MCUHWIIC
            BANK0   DCFAH     0033H     UNIT         ?PR?_SLEEP?MISC
            BANK0   DD2DH     0033H     UNIT         ?PR?ZPDVI1SYNCDETECT?SCALER_SYNC
            BANK0   DD60H     0033H     UNIT         ?PR?ZPDVI2SYNCDETECT?SCALER_SYNC
            BANK0   DD93H     0033H     UNIT         ?PR?ZPDVI3SYNCDETECT?SCALER_SYNC
            BANK0   DDC6H     0032H     UNIT         ?PR?SETBRIGHTNESSPWMMAX?SYSAPI
            BANK0   DDF8H     0032H     UNIT         ?PR?MCUINITIIC?MCU
            BANK0   DE2AH     0032H     UNIT         ?PR?MCU
BL51 BANKED LINKER/LOCATER V6.22                                                      01/06/2017  14:57:29  PAGE 43


            BANK0   DE5CH     0030H     UNIT         ?PR?_MCUSETIODIRBYTE?MCUIO
            BANK0   DE8CH     0030H     UNIT         ?PR?GETDIGINPUTHTOTALIMMEDIATE?SCALER_TMDS
            BANK0   DEBCH     0030H     UNIT         ?PR?GETDIGINPUTVTOTALIMMEDIATE?SCALER_TMDS
            BANK0   DEECH     002FH     UNIT         ?PR?BISCABLECONNECT?BOARD
            BANK0   DF1BH     002EH     UNIT         ?PR?_GETTMDSPHYDATA?SCALER_TMDS
            BANK0   DF49H     002DH     UNIT         ?PR?SYSAPI_PERFORMHPDON?SYSAPI
            BANK0   DF76H     002CH     UNIT         ?PR?ZPDPSYNCDETECT?SCALER_SYNC
            BANK0   DFA2H     002BH     UNIT         ?PR?SYNCHANDLER
            BANK0   DFCDH     002BH     UNIT         ?PR?EFUSE_MAPPING?SCALER_COMMON
            BANK0   DFF8H     002AH     UNIT         ?PR?MODEHANDLER
            BANK0   E022H     002AH     UNIT         ?PR?SCALERPOWERUP?SCALER_POWER
            BANK0   E04CH     0028H     UNIT         ?PR?MCUCLKDIVDERCHECK?SCALER_POWER
            BANK0   E074H     0027H     UNIT         ?PR?_CHECKADCPLLOUTOFRANGE?AUTOADJ
            BANK0   E09BH     0027H     UNIT         ?PR?_ISEDIDHEADER?NVRAM
            BANK0   E0C2H     0027H     UNIT         ?PR?GETDPPHYLINKSELECT?SCALER_COMMON
            BANK0   E0E9H     0027H     UNIT         ?PR?GETEFUSE_SCID?SCALER_COMMON
            BANK0   E110H     0025H     UNIT         ?PR?_GETUARTTIMER?MCU
            BANK0   E135H     0024H     UNIT         ?PR?_CONFIGHDMIDIGITALAUDIOGAIN?SCALER_HDMI
            BANK0   E159H     0023H     UNIT         ?PR?ISHDMIVIDEOTIMING?MODECONFIG
            BANK0   E17CH     0023H     UNIT         ?PR?_SETGLOBALTIMER?MISC
            BANK0   E19FH     0023H     UNIT         ?PR?GETSCID?SCALER_COMMON
            BANK0   E1C2H     0022H     UNIT         ?PR?ISONLYFULLASPECTRATIO?MODECONFIG
            BANK0   E1E4H     0022H     UNIT         ?PR?GETINPUTHVPOLARITY?SCALER_SYNC
            BANK0   E206H     0022H     UNIT         ?PR?_SC_SETBYTEDPPPPHY?SCALER_TMDS
            BANK0   E228H     0021H     UNIT         ?PR?AUTOTUNECOMPLETE?AUTOADJ
            BANK0   E249H     0021H     UNIT         ?PR?GETTMDSPHYLINKSELECT?SCALER_COMMON
            BANK0   E26AH     0020H     UNIT         ?PR?SIMILARTIMINGSWITCH?MODESEARCH
            BANK0   E28AH     001EH     UNIT         ?PR?MMUCONFIGFIFO?SCALER_MMU
            BANK0   E2A8H     001CH     UNIT         ?PR?CLEARINPUTTIMING?MODEHANDLER
            BANK0   E2C4H     001CH     UNIT         ?PR?GETMCUTIMER0SPEED?MCU
            BANK0   E2E0H     001CH     UNIT         ?PR?GETCPUCLCOK?MCU
            BANK0   E2FCH     001CH     UNIT         ?PR?SCALERAUDIOPREMUTE?SCALER_HDMI
            BANK0   E318H     001CH     UNIT         ?PR?_SETLVDSSWING?SCALER_LVDS
            BANK0   E334H     001CH     UNIT         ?PR?_TMDS_ENABLECKDT?SCALER_TMDS
            BANK0   E350H     001CH     UNIT         ?PR?TMDS_EQSET_FLOWRESET?SCALER_TMDS
            BANK0   E36CH     001AH     UNIT         ?PR?SYSAPI_POWERSAVING?SYSAPI
            BANK0   E386H     001AH     UNIT         ?PR?ISHDMIVIDEO?SCALER_HDMI
            BANK0   E3A0H     0019H     UNIT         ?PR?GETNEXTINPUT?SYNCHANDLER
            BANK0   E3B9H     0019H     UNIT         ?PR?UPDATESYNCSRCIDX?SYNCHANDLER
            BANK0   E3D2H     0019H     UNIT         ?PR?MCUCHECKPWRSTABLE?MCU
            BANK0   E3EBH     0019H     UNIT         ?PR?TMDS_GETCLOCK?SCALER_TMDS
            BANK0   E404H     0019H     UNIT         ?PR?MCUINITLPD?MCUMISC
            BANK0   E41DH     0018H     UNIT         ?PR?SETUPINTERLACE?SCALER_SYNC
            BANK0   E435H     0017H     UNIT         ?PR?ISCOMPONENTINPUT?MODECONFIG
            BANK0   E44CH     0017H     UNIT         ?PR?AUDIOMUTEOFF?BOARD
            BANK0   E463H     0016H     UNIT         ?PR?AUTOADJCONFIG
            BANK0   E479H     0016H     UNIT         ?PR?GETSAMEINPUT?SYNCHANDLER
            BANK0   E48FH     0016H     UNIT         ?PR?_RECORDCURRENTSOURCE?SYNCHANDLER
            BANK0   E4A5H     0015H     UNIT         ?PR?ISAUTOTUNEVALID?AUTOADJ
            BANK0   E4BAH     0015H     UNIT         ?PR?ISAUTOCOLORVALID?AUTOADJ
            BANK0   E4CFH     0015H     UNIT         ?PR?_GETGLOBALTIMER?MISC
            BANK0   E4E4H     0015H     UNIT         ?PR?GETDIGINPUTHACTIVEIMMEDIATE?SCALER_TMDS
            BANK0   E4F9H     0015H     UNIT         ?PR?GETDIGINPUTVACTIVEIMMEDIATE?SCALER_TMDS
            BANK0   E50EH     0014H     UNIT         ?PR?ISOVERSCAN?MODECONFIG
            BANK0   E522H     0014H     UNIT         ?PR?SYSAPI_WAKEUP?SYSAPI
            BANK0   E536H     0014H     UNIT         ?PR?DPHPDON?BOARD
            BANK0   E54AH     0014H     UNIT         ?PR?_TMDSINIT?SCALER_TMDS
BL51 BANKED LINKER/LOCATER V6.22                                                      01/06/2017  14:57:29  PAGE 44


            BANK0   E55EH     0013H     UNIT         ?PR?_SETSYNCSOURCE?SYNCHANDLER
            BANK0   E571H     0013H     UNIT         ?PR?_SETBLPWMBYINPUTVSYNC?SYSAPI
            BANK0   E584H     0013H     UNIT         ?PR?SCALER_MMU
            BANK0   E597H     0013H     UNIT         ?PR?TMDS_ISDUALLINK?SCALER_TMDS
            BANK0   E5AAH     0012H     UNIT         ?PR?NVRAMSAVEEDID?NVRAM
            BANK0   E5BCH     0012H     UNIT         ?PR?NVRAMLOADEDID?NVRAM
            BANK0   E5CEH     0011H     UNIT         ?PR?MCUWAITADCCOMPLETE?MCUADC
            BANK0   E5DFH     0011H     UNIT         ?PR?TURNONSCALERMAINPOWER?SCALER_POWER
            BANK0   E5F0H     0010H     UNIT         ?PR?ISDIGITAL3CONNECT?BOARD
            BANK0   E600H     0010H     UNIT         ?PR?ISDIGITAL1CONNECT?BOARD
            BANK0   E610H     0010H     UNIT         ?PR?_HDMIENABLEAVC?SCALER_HDMI
            BANK0   E620H     0010H     UNIT         ?PR?ZPLATCHDATA?SCALER_POWER
            BANK0   E630H     0010H     UNIT         ?PR?FLASH_INITPROTECTION?FE2P_API
            BANK0   E640H     000FH     UNIT         ?PR?MODEHANDLEPOWERUP?MODEHANDLER
            BANK0   E64FH     000FH     UNIT         ?PR?SYSAPI_SETPOWERON?SYSAPI
            BANK0   E65EH     000EH     UNIT         ?PR?MODEHANDLESOFTPOWEROFF?MODEHANDLER
            BANK0   E66CH     000EH     UNIT         ?PR?SETNRBYDIGITALTIMING?NR
            BANK0   E67AH     000EH     UNIT         ?PR?MCUCHECK5V?MCU
            BANK0   E688H     000EH     UNIT         ?PR?DPHPDOFF?BOARD
            BANK0   E696H     000EH     UNIT         ?PR?_HDMIENABLEPREAMBLEDETECTION?SCALER_HDMI
            BANK0   E6A4H     000EH     UNIT         ?PR?CLEARTMDSTRAINING?SCALER_TMDS
            BANK0   E6B2H     000DH     UNIT         ?PR?ISDPCONNECT?BOARD
            BANK0   E6BFH     000DH     UNIT         ?PR?ISBACKLIGHTON?BOARD
            BANK0   E6CCH     000DH     UNIT         ?PR?MISC
            BANK0   E6D9H     000DH     UNIT         ?PR?LVDSON?SCALER_LVDS
            BANK0   E6E6H     000CH     UNIT         ?PR?ISPANELPOWERON?BOARD
            BANK0   E6F2H     000CH     UNIT         ?PR?HDMISOFTRESET?SCALER_HDMI
            BANK0   E6FEH     000CH     UNIT         ?PR?TURNOFFSCALERMAINPOWER?SCALER_POWER
            BANK0   E70AH     000CH     UNIT         ?PR?POWERUPALLINPUT?SCALER_POWER
            BANK0   E716H     000CH     UNIT         ?PR?_ISTMDSLBR?SCALER_TMDS
            BANK0   E722H     000BH     UNIT         ?PR?_NVRAMREADUSERDATA?NVRAM
            BANK0   E72DH     000BH     UNIT         ?PR?_NVRAMWRITEUSERDATA?NVRAM
            BANK0   E738H     000BH     UNIT         ?PR?_NVRAMREADCALIBDATA?NVRAM
            BANK0   E743H     000BH     UNIT         ?PR?_NVRAMWRITECALIBDATA?NVRAM
            BANK0   E74EH     000BH     UNIT         ?PR?_NVRAMREADSYSTEMDATA?NVRAM
            BANK0   E759H     000BH     UNIT         ?PR?_NVRAMWRITESYSTEMDATA?NVRAM
            BANK0   E764H     000BH     UNIT         ?PR?_NVRAMWRITEHDCPDATA?NVRAM
            BANK0   E76FH     000BH     UNIT         ?PR?_NVRAMREADHDCPDATA?NVRAM
            BANK0   E77AH     000BH     UNIT         ?PR?_NVRAMWRITEDVIEDID?NVRAM
            BANK0   E785H     000BH     UNIT         ?PR?_NVRAMWRITEHDMIEDID?NVRAM
            BANK0   E790H     000BH     UNIT         ?PR?SYSAPI
            BANK0   E79BH     000BH     UNIT         ?PR?WAITLDOREADY?MCU
            BANK0   E7A6H     000BH     UNIT         ?PR?CLEARHDMISTATUS?SCALER_HDMI
            BANK0   E7B1H     000BH     UNIT         ?PR?ISHDMI?SCALER_HDMI
            BANK0   E7BCH     000BH     UNIT         ?PR?ISINTERLACESYNCPRESET?SCALER_SYNC
            BANK0   E7C7H     000BH     UNIT         ?PR?ISINTERLACED?SCALER_SYNC
            BANK0   E7D2H     000AH     UNIT         ?PR?AUTOOFFSET?AUTOADJ
            BANK0   E7DCH     000AH     UNIT         ?PR?MCUINITADC?MCU
            BANK0   E7E6H     000AH     UNIT         ?PR?_CONFIGHDMIANALOGAUDIOGAIN?SCALER_HDMI
            BANK0   E7F0H     000AH     UNIT         ?PR?SCALER_POWER
            BANK0   E7FAH     0009H     UNIT         ?PR?LEDGREENON?BOARD
            BANK0   E803H     0009H     UNIT         ?PR?LEDGREENOFF?BOARD
            BANK0   E80CH     0009H     UNIT         ?PR?LEDREDON?BOARD
            BANK0   E815H     0009H     UNIT         ?PR?LEDREDOFF?BOARD
            BANK0   E81EH     0009H     UNIT         ?PR?PANELPOWERON?BOARD
            BANK0   E827H     0009H     UNIT         ?PR?PANELPOWEROFF?BOARD
            BANK0   E830H     0009H     UNIT         ?PR?BACKLIGHTON?BOARD
BL51 BANKED LINKER/LOCATER V6.22                                                      01/06/2017  14:57:29  PAGE 45


            BANK0   E839H     0009H     UNIT         ?PR?BACKLIGHTOFF?BOARD
            BANK0   E842H     0009H     UNIT         ?PR?AUDIOPOWERON?BOARD
            BANK0   E84BH     0009H     UNIT         ?PR?AUDIOPOWEROFF?BOARD
            BANK0   E854H     0009H     UNIT         ?PR?EDIDWPON?BOARD
            BANK0   E85DH     0009H     UNIT         ?PR?EDIDWPOFF?BOARD
            BANK0   E866H     0009H     UNIT         ?PR?POWERMOSON?BOARD
            BANK0   E86FH     0009H     UNIT         ?PR?POWERMOSOFF?BOARD
            BANK0   E878H     0009H     UNIT         ?PR?DIGI3HPDON?BOARD
            BANK0   E881H     0009H     UNIT         ?PR?DIGI3HPDOFF?BOARD
            BANK0   E88AH     0009H     UNIT         ?PR?DIGI2HPDON?BOARD
            BANK0   E893H     0009H     UNIT         ?PR?DIGI2HPDOFF?BOARD
            BANK0   E89CH     0009H     UNIT         ?PR?DIGI1HPDON?BOARD
            BANK0   E8A5H     0009H     UNIT         ?PR?DIGI1HPDOFF?BOARD
            BANK0   E8AEH     0009H     UNIT         ?PR?RAM
            BANK0   E8B7H     0009H     UNIT         ?PR?FLASH_WP_ON?FE2P_API
            BANK0   E8C0H     0009H     UNIT         ?PR?FLASH_WP_OFF?FE2P_API
            BANK0   E8C9H     0008H     UNIT         ?PR?HOLDMODEDISPLAY?MODEHANDLER
            BANK0   E8D1H     0008H     UNIT         ?PR?CONTINUEMODEDISPLAY?MODEHANDLER
            BANK0   E8D9H     0008H     UNIT         ?PR?SYSAPI_CHECKSYSPOWER?SYSAPI
            BANK0   E8E1H     0008H     UNIT         ?PR?MCUSTARTADC?MCUADC
            BANK0   E8E9H     0008H     UNIT         ?PR?MCUPOWERUPADC?MCUADC
            BANK0   E8F1H     0008H     UNIT         ?PR?MCUPOWERDOWNADC?MCUADC
            BANK0   E8F9H     0008H     UNIT         ?PR?KEYPAD
            BANK0   E901H     0008H     UNIT         ?PR?EDP_POWEROFF?SCALER_COMMON
            BANK0   E909H     0008H     UNIT         ?PR?SCALER_LVDS
            BANK0   E911H     0008H     UNIT         ?PR?POWERDOWNREGISTERACCESS?SCALER_POWER
            BANK0   E919H     0008H     UNIT         ?PR?POWERUPREGISTERACCESS?SCALER_POWER
            BANK0   E921H     0008H     UNIT         ?PR?DVI_POWEROFF?SCALER_TMDS
            BANK0   E929H     0008H     UNIT         ?PR?DVI_POWERON?SCALER_TMDS
            BANK0   E931H     0008H     UNIT         ?PR?_SETCSCCOLORSPACE?SCALER_CSC
            BANK0   E939H     0007H     UNIT         ?PR?MODEHANDLEPOWERSAVING?MODEHANDLER
            BANK0   E940H     0007H     UNIT         ?PR?MODEHANDLESOFTPOWERON?MODEHANDLER
            BANK0   E947H     0007H     UNIT         ?PR?BOARD
            BANK0   E94EH     0007H     UNIT         ?PR?LVDSOFF?SCALER_LVDS
            BANK0   E955H     0007H     UNIT         ?PR?_GETMMUDRAMIF?SCALER_MMU
            BANK0   E95CH     0007H     UNIT         ?PR?_GETMMUDQSDELAY?SCALER_MMU
            BANK0   E963H     0007H     UNIT         ?PR?_GETMMUPLL?SCALER_MMU
            BANK0   E96AH     0007H     UNIT         ?PR?_GETMMUPLLSKEW?SCALER_MMU
            BANK0   E971H     0007H     UNIT         ?PR?_GETMMUPLLFREQ?SCALER_MMU
            BANK0   E978H     0006H     UNIT         ?PR?GETINPUTSYNCMODE?SYNCHANDLER
            BANK0   E97EH     0006H     UNIT         ?PR?GETMODEHANDLESTATE?MODEHANDLER
            BANK0   E984H     0006H     UNIT         ?PR?SYSAPI_FORCEPOWERSAVING?SYSAPI
            BANK0   E98AH     0006H     UNIT         ?PR?GETINPUTHSYNCWIDTH?SCALER_SYNC
            BANK0   E990H     0006H     UNIT         ?PR?GETINPUTVSYNCWIDTH?SCALER_SYNC
            BANK0   E996H     0006H     UNIT         ?PR?GETSCALERCOLORSPACE?SCALER_CSC
            BANK0   E99CH     0005H     UNIT         ?PR?ISDIGITAL2CONNECT?BOARD
            BANK0   E9A1H     0003H     UNIT         ?PR?_NVRAMWRITE?NVRAM
            BANK0   E9A4H     0003H     UNIT         ?PR?_NVRAMREAD?NVRAM
            BANK0   E9A7H     0003H     UNIT         ?PR?ISHDMIDATAMUTE?SCALER_HDMI
            BANK0   E9AAH     0003H     UNIT         ?PR?SETFORCETOSLEEP?SCALER_POWER
            BANK0   E9ADH     0003H     UNIT         ?PR?CLEARFORCETOSLEEP?SCALER_POWER
            BANK0   E9B0H     0003H     UNIT         ?PR?ISFORCETOSLEEP?SCALER_POWER
            BANK0   E9B3H     0003H     UNIT         ?PR?ISZPMODE?SCALER_POWER
            BANK0   E9B6H     0003H     UNIT         ?PR?POWERDOWNDIGITALINPUT?SCALER_POWER
            BANK0   E9B9H     0003H     UNIT         ?PR?POWERDOWNANALOGINPUT?SCALER_POWER
            BANK0   E9BCH     0003H     UNIT         ?PR?SETCOLORSPACE?SCALER_CSC

BL51 BANKED LINKER/LOCATER V6.22                                                      01/06/2017  14:57:29  PAGE 46


            * * * * * * *   C O D E   B A N K   1   * * * * * * *
                    0000H     0016H                  *** GAP ***
            BANK1   0016H     0001H     UNIT         ?PR?_KEYACTIONDISPATCHER?KEYCTRL
                    0017H     4FE9H                  *** GAP ***
            BANK1   5000H     6042H     UNIT         ?CO?OSDINDEX
            BANK1   B042H     0033H     UNIT         ?CO?OSDVIEW
            BANK1   B075H     03C0H     UNIT         ?CO?GAMA_4
            BANK1   B435H     0300H     UNIT         ?CO?DBC
            BANK1   B735H     053FH     UNIT         ?PR?OSDVIEW
            BANK1   BC74H     049BH     UNIT         ?PR?_OSDSELECTLAYER2ITEM?OSDVIEW
            BANK1   C10FH     048FH     UNIT         ?PR?_OSDSHOWTOPPAGEICON?OSDVIEW
            BANK1   C59EH     029CH     UNIT         ?PR?_OSDSELECTLAYER4ITEM?OSDVIEW
            BANK1   C83AH     0211H     UNIT         ?PR?_OSDSHOWLAYER4?OSDVIEW
            BANK1   CA4BH     0208H     UNIT         ?PR?KEYGETKEYEVENT?KEYCTRL
            BANK1   CC53H     01BAH     UNIT         ?PR?_OSDSHOWCUSMENUICON?OSDVIEW
            BANK1   CE0DH     01B5H     UNIT         ?PR?OSDLANGUESLECETRELOAD?OSDVIEW
            BANK1   CFC2H     0178H     UNIT         ?PR?_OSDSELECTLAYER3ITEM?OSDVIEW
            BANK1   D13AH     0175H     UNIT         ?PR?_OSDSHOWSOURCEICON?OSDVIEW
            BANK1   D2AFH     0102H     UNIT         ?PR?OSDSHOWINPUTNOTICEDIALOGSTRING?OSDVIEW
            BANK1   D3B1H     00EDH     UNIT         ?PR?_OSDSELECTDIALOGITEM?OSDVIEW
            BANK1   D49EH     00E4H     UNIT         ?PR?_OSDCLEARLAYER4BYITEM?OSDVIEW
            BANK1   D582H     00CFH     UNIT         ?PR?_OSDSELECTLAYER1ITEM?OSDVIEW
            BANK1   D651H     00C0H     UNIT         ?PR?_OSDSHOWCUSDISPLAYMODESTRINGS?OSDVIEW
            BANK1   D711H     00B8H     UNIT         ?PR?_OSDSHOWLAYER3PAGESTRING?OSDVIEW
            BANK1   D7C9H     001CH     UNIT         ?PR?_OSDCHECKL3ITEMNUM?OSDVIEW
            BANK1   D7E5H     0012H     UNIT         ?PR?_OSDGETLAYER3ITEMNUM?OSDVIEW
                    D7F7H     01C5H                  *** GAP ***
            BANK1   D9BCH     00A6H     UNIT         ?PR?_DBCAPI_CONFIGPWM?DBCAPI
            BANK1   DA62H     0091H     UNIT         ?PR?OSDSHOWMAINMENUSTRINGS?OSDVIEW
            BANK1   DAF3H     008DH     UNIT         ?PR?_OSDSELECTLBLLAYER4ITEM?OSDVIEW
            BANK1   DB80H     0087H     UNIT         ?PR?DBCLIMITTRACKER?DBC
            BANK1   DC07H     007EH     UNIT         ?PR?_OSDSHOWCUSPICTUREMODESTRINGS?OSDVIEW
            BANK1   DC85H     006FH     UNIT         ?PR?DBCBRIGHTNESSTRACKER?DBC
            BANK1   DCF4H     006EH     UNIT         ?PR?_OSDSHOWCUSINPUTSTRINGS?OSDVIEW
            BANK1   DD62H     006DH     UNIT         ?PR?INITDBC?DBC
            BANK1   DDCFH     006CH     UNIT         ?PR?OSDSHOWINFO?OSDVIEW
            BANK1   DE3BH     006CH     UNIT         ?PR?_OSDSHOWCUSTOMMENUDIALOGSTRING?OSDVIEW
            BANK1   DEA7H     0066H     UNIT         ?PR?_OSDSHOWARROW?OSDVIEW
            BANK1   DF0DH     0064H     UNIT         ?PR?ENABLEDBC?DBC
            BANK1   DF71H     005AH     UNIT         ?PR?KEYCTRL
            BANK1   DFCBH     0056H     UNIT         ?PR?_OSDSHOWCUSMENUSTRING?OSDVIEW
            BANK1   E021H     0051H     UNIT         ?PR?_DISABLEDBCSMOOTH?DBC
            BANK1   E072H     004FH     UNIT         ?PR?_OSDSHOWCUSTOMMENUTITLE?OSDVIEW
            BANK1   E0C1H     004BH     UNIT         ?PR?_OSDUNSELECTLBLLAYER4ITEM?OSDVIEW
            BANK1   E10CH     004AH     UNIT         ?PR?DBC
            BANK1   E156H     0049H     UNIT         ?PR?_KEYSETLOCKEVENT?KEYCTRL
            BANK1   E19FH     0046H     UNIT         ?PR?_KEYSETMFUNCEVENT?KEYCTRL
            BANK1   E1E5H     0043H     UNIT         ?PR?_KEYSETREPEATEVENT?KEYCTRL
            BANK1   E228H     0043H     UNIT         ?PR?_KEYSETHOLDEVENT?KEYCTRL
            BANK1   E26BH     0042H     UNIT         ?PR?_DBCAPI_LOADTABLE?DBCAPI
            BANK1   E2ADH     0034H     UNIT         ?PR?CLRLAYER4?OSDVIEW
            BANK1   E2E1H     0032H     UNIT         ?PR?_OSDCLEARARROW?OSDVIEW
            BANK1   E313H     001CH     UNIT         ?PR?_SEARCHKEYCODEINDEX?KEYCTRL
            BANK1   E32FH     0018H     UNIT         ?PR?_DBCAPI_ENABLEDBCPWM?DBCAPI
            BANK1   E347H     0018H     UNIT         ?PR?_DBCAPI_DISABLEDBCPWM?DBCAPI
            BANK1   E35FH     0017H     UNIT         ?PR?DISABLEDBC?DBC
            BANK1   E376H     0017H     UNIT         ?PR?_DBCAPI_SETNLGAINBREAK?DBCAPI
BL51 BANKED LINKER/LOCATER V6.22                                                      01/06/2017  14:57:29  PAGE 47


            BANK1   E38DH     0014H     UNIT         ?PR?_DBCAPI_SETPWMADJUSTMENT?DBCAPI
            BANK1   E3A1H     0014H     UNIT         ?PR?_DBCAPI_ENABLEABRUPTCHANGE?DBCAPI
            BANK1   E3B5H     0014H     UNIT         ?PR?_DBCAPI_SETABRUPTSTEP?DBCAPI
            BANK1   E3C9H     0012H     UNIT         ?PR?_SEARCHKEYEVENTINDEX?KEYCTRL
            BANK1   E3DBH     0012H     UNIT         ?PR?_DBCAPI_SETNLGAIN?DBCAPI
            BANK1   E3EDH     0010H     UNIT         ?PR?_DBCAPI_SETABRUPTMODE?DBCAPI
            BANK1   E3FDH     0010H     UNIT         ?PR?_DBCAPI_SETLUTREF?DBCAPI
            BANK1   E40DH     000FH     UNIT         ?PR?DBCAPI_SETPWMINVERT?DBCAPI
            BANK1   E41CH     000EH     UNIT         ?PR?DBCAPI
            BANK1   E42AH     000DH     UNIT         ?PR?_DBCAPI_SETDISTORTION?DBCAPI
            BANK1   E437H     000BH     UNIT         ?PR?DBCAPI_ENABLEDBC?DBCAPI
            BANK1   E442H     000BH     UNIT         ?PR?DBCAPI_DISABLEDBC?DBCAPI
            BANK1   E44DH     000BH     UNIT         ?PR?_DBCAPI_SETDBCMINMAX?DBCAPI
            BANK1   E458H     0009H     UNIT         ?PR?_KEYSETHOLDTIME?KEYCTRL
            BANK1   E461H     0009H     UNIT         ?PR?_KEYSETREPEATTIME?KEYCTRL
            BANK1   E46AH     0009H     UNIT         ?PR?_KEYSETLONGPRESSTIME?KEYCTRL
            BANK1   E473H     0009H     UNIT         ?PR?LOADGAMA_4?GAMA_4
            BANK1   E47CH     0009H     UNIT         ?PR?_DBCAPI_SETSAVINGRATIO?DBCAPI
            BANK1   E485H     0009H     UNIT         ?PR?_DBCAPI_SETDEBOUNCINGMODE?DBCAPI
            BANK1   E48EH     0008H     UNIT         ?PR?DBCAPI_ENABLERGBCOMPENSATION?DBCAPI
            BANK1   E496H     0008H     UNIT         ?PR?DBCAPI_DISABLERGBCOMPENSATION?DBCAPI
            BANK1   E49EH     0008H     UNIT         ?PR?DBCAPI_DISABLEABRUPTCHANGE?DBCAPI
            BANK1   E4A6H     0008H     UNIT         ?PR?DBCAPI_DISABLENLGAIN?DBCAPI
            BANK1   E4AEH     0006H     UNIT         ?PR?_DBCAPI_SETLUTGRAY2PWMLIM?DBCAPI
            BANK1   E4B4H     0006H     UNIT         ?PR?_DBCAPI_SETLUTGRAY2GAINLIM?DBCAPI
            BANK1   E4BAH     0006H     UNIT         ?PR?_DBCAPI_SETGRAY2PWMLIM?DBCAPI
            BANK1   E4C0H     0006H     UNIT         ?PR?_DBCAPI_SETGRAY2GAINLIM?DBCAPI
            BANK1   E4C6H     0004H     UNIT         ?PR?KEYACTIONDEMANDER?KEYCTRL

            * * * * * * *   C O D E   B A N K   2   * * * * * * *
                    0000H     5000H                  *** GAP ***
            BANK2   5000H     87F7H     UNIT         ?CO?OSDFONT
                    D7F7H     01C5H                  *** GAP ***
            BANK2   D9BCH     02DCH     UNIT         ?PR?APPTIMERROUTINE?APPCTRL
            BANK2   DC98H     0282H     UNIT         ?PR?_OSDLOADFONT?OSDFONT
            BANK2   DF1AH     01B1H     UNIT         ?PR?APPINITSYSTEM?APPCTRL
            BANK2   E0CBH     0182H     UNIT         ?PR?_APPACTIONDISPATCHER?APPCTRL
            BANK2   E24DH     0180H     UNIT         ?PR?APPSYNCPUBLISHER?APPCTRL
            BANK2   E3CDH     0123H     UNIT         ?PR?CUSTOM_SYSTEM_INIT?APPCTRL
            BANK2   E4F0H     00E0H     UNIT         ?PR?_APPSETSYSTEMPOWERSTATE?APPCTRL
            BANK2   E5D0H     0052H     UNIT         ?PR?APPTOGGLEFACTORYMODE?APPCTRL
            BANK2   E622H     0049H     UNIT         ?PR?APPTASKSAFTERMUTE?APPCTRL
            BANK2   E66BH     0046H     UNIT         ?PR?APPPERFORMBURNIN?APPCTRL
            BANK2   E6B1H     0033H     UNIT         ?PR?APPTASKSAFTERDISPLAY?APPCTRL
            BANK2   E6E4H     0030H     UNIT         ?PR?APPTASKSBEFOREDISPLAY?APPCTRL
            BANK2   E714H     002CH     UNIT         ?PR?APPENTERPOWERONLOGO?APPCTRL
            BANK2   E740H     0026H     UNIT         ?PR?_EVENTCOLLECTOR?EVENTHANDLE
            BANK2   E766H     0020H     UNIT         ?PR?EVENTHANDLER?EVENTHANDLE
            BANK2   E786H     0020H     UNIT         ?PR?_EVENTDISPATCHER?EVENTHANDLE
            BANK2   E7A6H     001FH     UNIT         ?PR?APPCOUNTREDLED?APPCTRL
            BANK2   E7C5H     0017H     UNIT         ?PR?APPTOGGLEDEMOMODE?APPCTRL
            BANK2   E7DCH     0013H     UNIT         ?PR?APPISOUTOFLIMIT?APPCTRL
            BANK2   E7EFH     0012H     UNIT         ?PR?APPCTRL
            BANK2   E801H     0011H     UNIT         ?PR?APPACTIONDEMANDER?APPCTRL
            BANK2   E812H     0011H     UNIT         ?PR?APPESCAPEPOWERONLOGO?APPCTRL
            BANK2   E823H     000CH     UNIT         ?PR?ISNOSYNCSTATE?APPCTRL
            BANK2   E82FH     000CH     UNIT         ?PR?ISNOCABLESTATE?APPCTRL
BL51 BANKED LINKER/LOCATER V6.22                                                      01/06/2017  14:57:29  PAGE 48


            BANK2   E83BH     000CH     UNIT         ?PR?ISOUTRANGESTATE?APPCTRL
            BANK2   E847H     0007H     UNIT         ?PR?APPRESENDAPPSYNC?APPCTRL
            BANK2   E84EH     0006H     UNIT         ?PR?APPCLOSEPOWERONLOGO?APPCTRL
            BANK2   E854H     0006H     UNIT         ?PR?CHECKTOTALPORTNUM?APPCTRL

            * * * * * * *   C O D E   B A N K   3   * * * * * * *
                    0000H     0016H                  *** GAP ***
            BANK3   0016H     0001H     UNIT         ?PR?_SETSENSEEYELEFTMODE?COLORCONFIG
            BANK3   0017H     0001H     UNIT         ?PR?DPCONFIGHWHPD?SCALER_DP
                    0018H     4DE6H                  *** GAP ***
            BANK3   4DFEH     0001H     UNIT         ?PR?DPCONFIGCRC?SCALER_DP
                    4DFFH     0201H                  *** GAP ***
            BANK3   5000H     0264H     UNIT         ?CO?DDCCI
            BANK3   5264H     0001H     UNIT         ?CO?LD
            BANK3   5265H     0001H     UNIT         ?CO?MHL
            BANK3   5266H     1000H     UNIT         ?CO?SCALER_DP_6502
            BANK3   6266H     0001H     UNIT         ?CO?USBTYPECHANDLER
            BANK3   6267H     0001H     UNIT         ?CO?USBTYPEC
            BANK3   6268H     42EBH     UNIT         ?CO?OSDFONT_TC
            BANK3   A553H     0528H     UNIT         ?CO?COLORCONFIG
            BANK3   AA7BH     04CAH     UNIT         ?PR?SETFIXHR2?SCALER_DISPLAY
            BANK3   AF45H     034EH     UNIT         ?PR?_SETUPDISPLAYTIMING?SCALER_DISPLAY
            BANK3   B293H     030DH     UNIT         ?PR?_SETPICTUREMODE?COLORCONFIG
            BANK3   B5A0H     02CAH     UNIT         ?PR?SCALER_DISPLAY
            BANK3   B86AH     02A4H     UNIT         ?PR?CHECKINTERLACEDSIGNALFIELD?SCALER_DISPLAY
            BANK3   BB0EH     027AH     UNIT         ?PR?DCR_BENQ_SETDYMBACKLIGHT?COLORCONFIG
            BANK3   BD88H     01F9H     UNIT         ?PR?_MTXAPI_SETCONTRAST?MATRIX
            BANK3   BF81H     01B8H     UNIT         ?PR?_SETTHEMEMODE?COLORCONFIG
            BANK3   C139H     01A3H     UNIT         ?PR?_BFAPI_SETPREACEMODEWITHSTEP?COLORCONFIG
            BANK3   C2DCH     0174H     UNIT         ?PR?COLORCONFIG
            BANK3   C450H     016EH     UNIT         ?PR?_DCR_SETDYMACE?DCR_SETDYMACE
            BANK3   C5BEH     0161H     UNIT         ?PR?_DISPCLKCOMPRESS?SCALER_DISPLAY
            BANK3   C71FH     0152H     UNIT         ?PR?_BFAPI_SETWINDOWSIZE?BFAPI
            BANK3   C871H     0126H     UNIT         ?PR?LOADDEFAULTPANELDATA?SCALER_DISPLAY
            BANK3   C997H     010CH     UNIT         ?PR?SETCLRTMP_BRICON?COLORCONFIG
            BANK3   CAA3H     0104H     UNIT         ?PR?_SETCUSTOMASPRATIO?SCALER_DISPLAY
            BANK3   CBA7H     00FFH     UNIT         ?PR?_SETDISPLAYMODE?SCALER_DISPLAY
            BANK3   CCA6H     00FCH     UNIT         ?PR?_DPINIT?SCALER_DP
            BANK3   CDA2H     00EFH     UNIT         ?PR?DCR_NEWIGBYHISTOGRAM?DCR_SETDYMACE
            BANK3   CE91H     00E6H     UNIT         ?PR?_BFAPI_SETLOCALMATRIX?BFAPI
            BANK3   CF77H     00DCH     UNIT         ?PR?DP_GETCLOCK?SCALER_DP
            BANK3   D053H     00CCH     UNIT         ?PR?BFAPI
            BANK3   D11FH     00CBH     UNIT         ?PR?_DCR_UPDATEHISTOGRAM?DCR
            BANK3   D1EAH     00CAH     UNIT         ?PR?_SETCOLORTEMPERATURE?COLORCONFIG
            BANK3   D2B4H     00B5H     UNIT         ?PR?GETGAMMANUM?COLORCONFIG
            BANK3   D369H     00B4H     UNIT         ?PR?SETLOCALMATRIX?COLORCONFIG
            BANK3   D41DH     00B2H     UNIT         ?PR?WAITDISVSYNC?SCALER_DISPLAY
            BANK3   D4CFH     00ADH     UNIT         ?PR?DPCONFIGAUXDETECT?SCALER_DP
            BANK3   D57CH     00A7H     UNIT         ?PR?_SETGAMMANUM?COLORCONFIG
            BANK3   D623H     00A0H     UNIT         ?PR?DPHANDLER?SCALER_DP
            BANK3   D6C3H     009EH     UNIT         ?PR?SETCLRTMP_SHARPNESS?COLORCONFIG
            BANK3   D761H     0096H     UNIT         ?PR?_SET6502ACTIVE?SCALER_DP_6502
                    D7F7H     01C5H                  *** GAP ***
            BANK3   D9BCH     0099H     UNIT         ?PR?CHECKFIFO?SCALER_DISPLAY
            BANK3   DA55H     0098H     UNIT         ?PR?GETVCOUNTER?SCALER_DISPLAY
            BANK3   DAEDH     008EH     UNIT         ?PR?_BFAPI_SETPREACEMODE?BFAPI
            BANK3   DB7BH     008DH     UNIT         ?PR?NORMALDISPLAY?SCALER_DISPLAY
BL51 BANKED LINKER/LOCATER V6.22                                                      01/06/2017  14:57:29  PAGE 49


            BANK3   DC08H     0084H     UNIT         ?PR?SCALER_DP
            BANK3   DC8CH     0077H     UNIT         ?PR?SETLBLMODE?COLORCONFIG
            BANK3   DD03H     0075H     UNIT         ?PR?SETDEMO?COLORCONFIG
            BANK3   DD78H     0073H     UNIT         ?PR?DCR_ISSCENECHANGED?DCR
            BANK3   DDEBH     0072H     UNIT         ?PR?DISPLAYINIT?SCALER_DISPLAY
            BANK3   DE5DH     0071H     UNIT         ?PR?_BFAPI_INIT?BFAPI
            BANK3   DECEH     0071H     UNIT         ?PR?DCR_SETDYMACE
            BANK3   DF3FH     0070H     UNIT         ?PR?SRAPI_INITSR?SRAPI
            BANK3   DFAFH     006FH     UNIT         ?PR?_BFAPI_SETHITABLE?BFAPI
            BANK3   E01EH     006EH     UNIT         ?PR?_BFAPI_DISABLECM?BFAPI
            BANK3   E08CH     006BH     UNIT         ?PR?DP_AUDIOMNCHECKER?SCALER_DP
            BANK3   E0F7H     0066H     UNIT         ?PR?DPCONFIGFIFO?SCALER_DP
            BANK3   E15DH     0063H     UNIT         ?PR?_SETDCLKSSCRATIO?SCALER_DISPLAY
            BANK3   E1C0H     0062H     UNIT         ?PR?_BFAPI_ENABLECM?BFAPI
            BANK3   E222H     0061H     UNIT         ?PR?_BFAPI_SETHSTABLE?BFAPI
            BANK3   E283H     005FH     UNIT         ?PR?_PERFORMDCR?COLORCONFIG
            BANK3   E2E2H     0056H     UNIT         ?PR?_BFAPI_SETHHTABLE?BFAPI
            BANK3   E338H     0055H     UNIT         ?PR?SETLBLMODE_BRICON?COLORCONFIG
            BANK3   E38DH     0055H     UNIT         ?PR?_BFAPI_CORRECTFLESHTONE?BFAPI
            BANK3   E3E2H     0054H     UNIT         ?PR?ISDPTRAININGDONE?SCALER_DP
            BANK3   E436H     0053H     UNIT         ?PR?SETDPLL?SCALER_DISPLAY
            BANK3   E489H     004DH     UNIT         ?PR?MATRIX
            BANK3   E4D6H     0046H     UNIT         ?PR?_DCR_SETDYNACEPNTS?DCR_SETDYMACE
            BANK3   E51CH     0046H     UNIT         ?PR?_SRAPI_SETUSMFILTER?SRAPI
            BANK3   E562H     0044H     UNIT         ?PR?_LOAD6502ROM?SCALER_DP_6502
            BANK3   E5A6H     0043H     UNIT         ?PR?USERSETANIMATION?COLORCONFIG
            BANK3   E5E9H     003DH     UNIT         ?PR?SRAPI
            BANK3   E626H     003CH     UNIT         ?PR?_SETDBCBACKLIGHT?COLORCONFIG
            BANK3   E662H     0039H     UNIT         ?PR?_BFAPI_SETCUSTOMWINDOW?BFAPI
            BANK3   E69BH     0039H     UNIT         ?PR?DCR
            BANK3   E6D4H     0035H     UNIT         ?PR?ENABLEDPLL?SCALER_DISPLAY
            BANK3   E709H     0035H     UNIT         ?PR?SETLBLMODE_SHARPNESS?COLORCONFIG
            BANK3   E73EH     0032H     UNIT         ?PR?_BFAPI_ENABLEWINDOW?BFAPI
            BANK3   E770H     0032H     UNIT         ?PR?_BFAPI_ENHANCERED?BFAPI
            BANK3   E7A2H     0032H     UNIT         ?PR?_BFAPI_COLORENHANCE?BFAPI
            BANK3   E7D4H     0032H     UNIT         ?PR?DP_AUDIOGETFIFOSTATUS?SCALER_DP
            BANK3   E806H     0031H     UNIT         ?PR?_BFAPI_SETTEXTENHANCEMENT?BFAPI
            BANK3   E837H     0031H     UNIT         ?PR?_SRAPI_SETMDNFILTER?SRAPI
            BANK3   E868H     0031H     UNIT         ?PR?_SRAPI_SETCAPTURESIZE?SRAPI
            BANK3   E899H     0030H     UNIT         ?PR?ISBLANKVIDEO?COLORCONFIG
            BANK3   E8C9H     002FH     UNIT         ?PR?_MTXAPI_SETRGBOFFSET?MATRIX
            BANK3   E8F8H     002DH     UNIT         ?PR?_SRAPI_TURNONOFF?SRAPI
            BANK3   E925H     002BH     UNIT         ?PR?_BFAPI_SETYPEAKING?BFAPI
            BANK3   E950H     002AH     UNIT         ?PR?SET6502RESET?SCALER_DP_6502
            BANK3   E97AH     0029H     UNIT         ?PR?DISABLEDPLL?SCALER_DISPLAY
            BANK3   E9A3H     0027H     UNIT         ?PR?_SETDCLKSSC?SCALER_DISPLAY
            BANK3   E9CAH     0027H     UNIT         ?PR?_BFAPI_SETHUE?BFAPI
            BANK3   E9F1H     0026H     UNIT         ?PR?_BFAPI_SETSHARPNESS?BFAPI
            BANK3   EA17H     0025H     UNIT         ?PR?_SETDCLKSSCFREQ?SCALER_DISPLAY
            BANK3   EA3CH     0025H     UNIT         ?PR?_BFAPI_SETACTIVEWINDOW?BFAPI
            BANK3   EA61H     0025H     UNIT         ?PR?_SRAPI_SETHTOTAL?SRAPI
            BANK3   EA86H     0024H     UNIT         ?PR?_FORCE2BACKGROUND?SCALER_DISPLAY
            BANK3   EAAAH     0024H     UNIT         ?PR?_SET6502HOLD?SCALER_DP_6502
            BANK3   EACEH     0022H     UNIT         ?PR?SETFREERUNCLK?SCALER_DISPLAY
            BANK3   EAF0H     0021H     UNIT         ?PR?USERSETSATURATION?COLORCONFIG
            BANK3   EB11H     0020H     UNIT         ?PR?DCR_BENQ_RESET?COLORCONFIG
            BANK3   EB31H     0020H     UNIT         ?PR?_MTXAPI_ENABLELOCALMATRIX?MATRIX
BL51 BANKED LINKER/LOCATER V6.22                                                      01/06/2017  14:57:29  PAGE 50


            BANK3   EB51H     001FH     UNIT         ?PR?_SRAPI_SETDEMOREGION?SRAPI
            BANK3   EB70H     001BH     UNIT         ?PR?USERSETHUE?COLORCONFIG
            BANK3   EB8BH     0019H     UNIT         ?PR?_MTXAPI_SETRGBGAINVALUE?MATRIX
            BANK3   EBA4H     0019H     UNIT         ?PR?_MTXAPI_SELMATRIX?MATRIX
            BANK3   EBBDH     0018H     UNIT         ?PR?SRAPI_SRBLOCKENABLE?SRAPI
            BANK3   EBD5H     0017H     UNIT         ?PR?_BFAPI_DISABLEWINDOW?BFAPI
            BANK3   EBECH     0017H     UNIT         ?PR?BFAPI_ENABLEACEMODE?BFAPI
            BANK3   EC03H     0017H     UNIT         ?PR?DP_AUDIOMNCHECKERINIT?SCALER_DP
            BANK3   EC1AH     0017H     UNIT         ?PR?INITFONT_TC_TABLE1?OSDFONT_TC
            BANK3   EC31H     0017H     UNIT         ?PR?INITFONT_TC_TABLE2?OSDFONT_TC
            BANK3   EC48H     0016H     UNIT         ?PR?CLEARDPAUXDETECT?SCALER_DP
            BANK3   EC5EH     0016H     UNIT         ?PR?_DP_AUDIOSETAUDIOPATH?SCALER_DP
            BANK3   EC74H     0015H     UNIT         ?PR?_BFAPI_SETROFFSET?BFAPI
            BANK3   EC89H     0015H     UNIT         ?PR?_BFAPI_SETGOFFSET?BFAPI
            BANK3   EC9EH     0015H     UNIT         ?PR?_BFAPI_SETBOFFSET?BFAPI
            BANK3   ECB3H     0015H     UNIT         ?PR?BFAPI_DISABLEACEMODE?BFAPI
            BANK3   ECC8H     0014H     UNIT         ?PR?ENABLEDCLKSSC?SCALER_DISPLAY
            BANK3   ECDCH     0014H     UNIT         ?PR?FRCISFRCENABLED?SCALER_FRC
            BANK3   ECF0H     0011H     UNIT         ?PR?_DCR_GETHISTOGRAMDIFF?DCR
            BANK3   ED01H     0011H     UNIT         ?PR?_SRAPI_SETUSMLPTHRESHOLD?SRAPI
            BANK3   ED12H     0010H     UNIT         ?PR?_SETPOSTBGCOLOR?SCALER_DISPLAY
            BANK3   ED22H     0010H     UNIT         ?PR?_MTXAPI_SETGOFFSET?MATRIX
            BANK3   ED32H     0010H     UNIT         ?PR?DCR_UPDATEPREVHISTOGRAM?DCR
            BANK3   ED42H     000FH     UNIT         ?PR?INITCOLOR?COLORCONFIG
            BANK3   ED51H     000FH     UNIT         ?PR?_SRAPI_SETUSMDARKLIMIT?SRAPI
            BANK3   ED60H     000EH     UNIT         ?PR?_MTXAPI_SETBGAIN?MATRIX
            BANK3   ED6EH     000EH     UNIT         ?PR?_MTXAPI_SETROFFSET?MATRIX
            BANK3   ED7CH     000EH     UNIT         ?PR?_MTXAPI_SETBOFFSET?MATRIX
            BANK3   ED8AH     000DH     UNIT         ?PR?SCALER_DP_6502
            BANK3   ED97H     000CH     UNIT         ?PR?_BFAPI_ENHANCEGREEN?BFAPI
            BANK3   EDA3H     000CH     UNIT         ?PR?_BFAPI_ENHANCEBLUE?BFAPI
            BANK3   EDAFH     000CH     UNIT         ?PR?_MTXAPI_SETRGBOFFSETVALUE?MATRIX
            BANK3   EDBBH     000CH     UNIT         ?PR?ISDPAUXDETECT?SCALER_DP
            BANK3   EDC7H     000BH     UNIT         ?PR?_DCR_BENQ_RESETDYNBACKLIGHT?COLORCONFIG
            BANK3   EDD2H     000BH     UNIT         ?PR?_MTXAPI_SETRGBGAIN?MATRIX
            BANK3   EDDDH     000BH     UNIT         ?PR?GETDPINPUTHDEIMMEDIATE?SCALER_DP
            BANK3   EDE8H     000BH     UNIT         ?PR?GETDPINPUTVDEIMMEDIATE?SCALER_DP
            BANK3   EDF3H     000AH     UNIT         ?PR?FORLDCOMPILERCODEPASS?LD
            BANK3   EDFDH     000AH     UNIT         ?PR?FORMHLCOMPILERCODEPASS?MHL
            BANK3   EE07H     000AH     UNIT         ?PR?FORUSBTYPECCOMPILERCODEPASS1?USBTYPEC
            BANK3   EE11H     000AH     UNIT         ?PR?FORUSBTYPECCOMPILERCODEPASS2?USBTYPECHANDLER
            BANK3   EE1BH     0009H     UNIT         ?PR?DCR_BENQ_INIT?COLORCONFIG
            BANK3   EE24H     0009H     UNIT         ?PR?_MTXAPI_SETRGAIN?MATRIX
            BANK3   EE2DH     0009H     UNIT         ?PR?_MTXAPI_SETGGAIN?MATRIX
            BANK3   EE36H     0008H     UNIT         ?PR?ENABLEDCLK?SCALER_DISPLAY
            BANK3   EE3EH     0008H     UNIT         ?PR?_DISPLAYPOSTPATTERN?SCALER_DISPLAY
            BANK3   EE46H     0008H     UNIT         ?PR?DISABLEDCLKSSC?SCALER_DISPLAY
            BANK3   EE4EH     0008H     UNIT         ?PR?SRAPI_SRBLOCKDISABLE?SRAPI
            BANK3   EE56H     0008H     UNIT         ?PR?DP_POWERON?SCALER_DP
            BANK3   EE5EH     0007H     UNIT         ?PR?DISPLAYMUTEIMAGE?SCALER_DISPLAY
            BANK3   EE65H     0007H     UNIT         ?PR?DISPLAYNORMALIMAGE?SCALER_DISPLAY
            BANK3   EE6CH     0006H     UNIT         ?PR?_BFAPI_SETRGAIN?BFAPI
            BANK3   EE72H     0006H     UNIT         ?PR?_BFAPI_SETGGAIN?BFAPI
            BANK3   EE78H     0006H     UNIT         ?PR?_BFAPI_SETBGAIN?BFAPI
            BANK3   EE7EH     0006H     UNIT         ?PR?_BFAPI_SETSATURATION?BFAPI
            BANK3   EE84H     0006H     UNIT         ?PR?_BFAPI_SETINTENSITY?BFAPI
            BANK3   EE8AH     0006H     UNIT         ?PR?_MTXAPI_SETCONTRASTVALUE?MATRIX
BL51 BANKED LINKER/LOCATER V6.22                                                      01/06/2017  14:57:29  PAGE 51


            BANK3   EE90H     0006H     UNIT         ?PR?_DCR_SETDYNACETYPE?DCR_SETDYMACE
            BANK3   EE96H     0006H     UNIT         ?PR?DP_POWEROFF?SCALER_DP
            BANK3   EE9CH     0004H     UNIT         ?PR?GRAPHICDISPLAYWINDOWDISABLE?SCALER_DISPLAY
            BANK3   EEA0H     0004H     UNIT         ?PR?GRAPHICDISPLAYWINDOWENABLE?SCALER_DISPLAY
            BANK3   EEA4H     0003H     UNIT         ?PR?DCR_BENQ_FROCESETBK?COLORCONFIG
            BANK3   EEA7H     0003H     UNIT         ?PR?DISABLEDCR?COLORCONFIG
            BANK3   EEAAH     0003H     UNIT         ?PR?_FINDTABLE_TC?OSDFONT_TC

            * * * * * * *   C O D E   B A N K   4   * * * * * * *
                    0000H     0016H                  *** GAP ***
            BANK4   0016H     0001H     UNIT         ?PR?OSDDUMMYFUNCTION?OSDCTRL
                    0017H     4FE9H                  *** GAP ***
            BANK4   5000H     014EH     UNIT         ?CO?SMOSDVIEW
            BANK4   514EH     2DECH     UNIT         ?CO?OSDINDEX3
            BANK4   7F3AH     001EH     UNIT         ?CO?OSDCTRL
            BANK4   7F58H     0CEAH     UNIT         ?CO?OSDFUNC
            BANK4   8C42H     000FH     UNIT         ?CO?USERSETTING
            BANK4   8C51H     03C0H     UNIT         ?CO?GAMA_3
            BANK4   9011H     05BAH     UNIT         ?PR?_OSDSHOWSELECTPAGEBUTTON_LEFT?OSDVIEW3
            BANK4   95CBH     04F4H     UNIT         ?PR?_OSDSHOWDIALOG?OSDVIEW3
            BANK4   9ABFH     04D1H     UNIT         ?PR?_OSDSHOWSELECTPAGEBUTTON_RIGHT?OSDVIEW3
            BANK4   9F90H     04ACH     UNIT         ?PR?OSDCTRL
            BANK4   A43CH     0388H     UNIT         ?PR?OSDTIMERROUTINE?OSDCTRL
            BANK4   A7C4H     02AAH     UNIT         ?PR?OSDSHOWSERVICEMENU?SMOSDVIEW
            BANK4   AA6EH     0288H     UNIT         ?PR?_OSDPAGEMAINFRAME_LEFT?OSDVIEW3
            BANK4   ACF6H     022EH     UNIT         ?PR?USERRECALLCOLOR?USERSETTING
            BANK4   AF24H     01A0H     UNIT         ?PR?_OSDCANCELPREVIEW?OSDCTRL
            BANK4   B0C4H     0171H     UNIT         ?PR?OSDVIEW3
            BANK4   B235H     011CH     UNIT         ?PR?USERSETCOLORTEMP?USERSETTING
            BANK4   B351H     011BH     UNIT         ?PR?USERRECALLCONFIGURATION?USERSETTING
            BANK4   B46CH     0111H     UNIT         ?PR?USERSETASPECTRATIO?USERSETTING
            BANK4   B57DH     0101H     UNIT         ?PR?_OSDACTIONDISPATCHER?OSDCTRL
            BANK4   B67EH     00F1H     UNIT         ?PR?USERSETOD?USERSETTING
            BANK4   B76FH     00E8H     UNIT         ?PR?OSDCONFIRMITM32?OSDCTRL
            BANK4   B857H     00E2H     UNIT         ?PR?_OSDSHOWCUSTOMERMENU?OSDCTRL
            BANK4   B939H     00C3H     UNIT         ?PR?GETASPRATIOSETTING?USERSETTING
            BANK4   B9FCH     00C2H     UNIT         ?PR?SMOSDVIEW
            BANK4   BABEH     00A8H     UNIT         ?PR?OSDSERVICEMENUADJITM?SMOSDVIEW
            BANK4   BB66H     00A3H     UNIT         ?PR?OSDSUBITM411UP?OSDCTRL
            BANK4   BC09H     00A3H     UNIT         ?PR?OSDSUBITM411DOWN?OSDCTRL
            BANK4   BCACH     009AH     UNIT         ?PR?_OSDSHOWLAYER3PAGEHOOKICON?OSDVIEW3
            BANK4   BD46H     0090H     UNIT         ?PR?USERSETTING
            BANK4   BDD6H     0087H     UNIT         ?PR?USERSETAUDIOCHANNEL?USERSETTING
            BANK4   BE5DH     0084H     UNIT         ?PR?USERGETSMARTREMINDERTIMER?USERSETTING
            BANK4   BEE1H     006AH     UNIT         ?PR?USERPERFORMAUTOTUNE?USERSETTING
            BANK4   BF4BH     0068H     UNIT         ?PR?USERSETDCR?USERSETTING
            BANK4   BFB3H     0065H     UNIT         ?PR?USERSETAUTOPOWEROFFTIMER?USERSETTING
            BANK4   C018H     0065H     UNIT         ?PR?OSDEXITSUBITM411?OSDCTRL
            BANK4   C07DH     005FH     UNIT         ?PR?SERVICEMENUSHOWDPHPD?SMOSDVIEW
            BANK4   C0DCH     005FH     UNIT         ?PR?SERVICEMENUSHOWDVIHPD?SMOSDVIEW
            BANK4   C13BH     005FH     UNIT         ?PR?SERVICEMENUSHOWLOGO?SMOSDVIEW
            BANK4   C19AH     005FH     UNIT         ?PR?SERVICEMENUSHOWAUTOPOWER?SMOSDVIEW
            BANK4   C1F9H     005FH     UNIT         ?PR?SERVICEMENUSHOWCABLE?SMOSDVIEW
            BANK4   C258H     005AH     UNIT         ?PR?USERRECALLHVPOSITION?USERSETTING
            BANK4   C2B2H     0055H     UNIT         ?PR?SERVICEMENUSHOWHDMIHPD?SMOSDVIEW
            BANK4   C307H     0054H     UNIT         ?PR?ISTIMINGCHANGED?USERSETTING
            BANK4   C35BH     004FH     UNIT         ?PR?_OSDSHOWLAYER4SLIDERBAR?OSDVIEW3
BL51 BANKED LINKER/LOCATER V6.22                                                      01/06/2017  14:57:29  PAGE 52


            BANK4   C3AAH     004CH     UNIT         ?PR?_ISOSDCLEARLAYER4?OSDVIEW3
            BANK4   C3F6H     004AH     UNIT         ?PR?OSDENTERSUBITM2541?OSDCTRL
            BANK4   C440H     0046H     UNIT         ?PR?OSDDISABLEWINROTATION?OSDVIEW3
            BANK4   C486H     0044H     UNIT         ?PR?USERSETTRANSPARENT?USERSETTING
            BANK4   C4CAH     0043H     UNIT         ?PR?OSDSUBMENUUP2?OSDCTRL
            BANK4   C50DH     0041H     UNIT         ?PR?OSDACTIONDEMANDER?OSDCTRL
            BANK4   C54EH     0041H     UNIT         ?PR?OSDSUBMENUDOWN1?OSDCTRL
            BANK4   C58FH     0040H     UNIT         ?PR?USERSETSHARPNESS?USERSETTING
            BANK4   C5CFH     0040H     UNIT         ?PR?OSDSUBMENUUP1?OSDCTRL
            BANK4   C60FH     003FH     UNIT         ?PR?OSDCONFIGKEYBEHAVIOR?OSDCTRL
            BANK4   C64EH     003FH     UNIT         ?PR?OSDENTERSUBITM411?OSDCTRL
            BANK4   C68DH     003DH     UNIT         ?PR?USERSETCONTRAST?USERSETTING
            BANK4   C6CAH     003DH     UNIT         ?PR?CURRENTTIMINGSAVED?USERSETTING
            BANK4   C707H     003CH     UNIT         ?PR?OSDENTERSUBMENU2?OSDCTRL
            BANK4   C743H     003CH     UNIT         ?PR?OSDENTERSUBMENU4?OSDCTRL
            BANK4   C77FH     003BH     UNIT         ?PR?SETASPRATIOSETTING?USERSETTING
            BANK4   C7BAH     003BH     UNIT         ?PR?_GETSERIALNUMBER?SMOSDVIEW
            BANK4   C7F5H     003BH     UNIT         ?PR?OSDENTERSUBMENU3?OSDCTRL
            BANK4   C830H     003AH     UNIT         ?PR?USERSETDUALVIEW?USERSETTING
            BANK4   C86AH     003AH     UNIT         ?PR?_OSDEXITCUSTOMERKEYMENU?OSDCTRL
            BANK4   C8A4H     0039H     UNIT         ?PR?OSDITM34EXITTOPPAGEMENU?OSDCTRL
            BANK4   C8DDH     0039H     UNIT         ?PR?OSDEXITITMAUDIO3?OSDCTRL
            BANK4   C916H     0038H     UNIT         ?PR?OSDENTERSUBMENU1?OSDCTRL
            BANK4   C94EH     0038H     UNIT         ?PR?OSDENTERSUBMENUAUDIO?OSDCTRL
            BANK4   C986H     0038H     UNIT         ?PR?OSDCONFIRMITM411?OSDCTRL
            BANK4   C9BEH     0037H     UNIT         ?PR?OSDAUDIO3EXITTOPPAGEMENU?OSDCTRL
            BANK4   C9F5H     0037H     UNIT         ?PR?OSDITM34DOWN?OSDCTRL
            BANK4   CA2CH     0036H     UNIT         ?PR?OSDSUBMENUDOWN2?OSDCTRL
            BANK4   CA62H     0036H     UNIT         ?PR?OSDSUBMENUUP4?OSDCTRL
            BANK4   CA98H     0036H     UNIT         ?PR?OSDSUBMENUDOWN4?OSDCTRL
            BANK4   CACEH     0036H     UNIT         ?PR?OSDITM32UP?OSDCTRL
            BANK4   CB04H     0036H     UNIT         ?PR?OSDITM32DOWN?OSDCTRL
            BANK4   CB3AH     0036H     UNIT         ?PR?OSDEXITITM34?OSDCTRL
            BANK4   CB70H     0035H     UNIT         ?PR?_OSDCONFIRMCUSTOMERKEYMENU?OSDCTRL
            BANK4   CBA5H     0035H     UNIT         ?PR?OSDENTERCONFIRINPUT?OSDCTRL
            BANK4   CBDAH     0034H     UNIT         ?PR?_DUALVIEWPOINTOBFMODE?USERSETTING
            BANK4   CC0EH     0034H     UNIT         ?PR?OSDENTERITMAUDIO3?OSDCTRL
            BANK4   CC42H     0034H     UNIT         ?PR?OSDENTERSUBITM313?OSDCTRL
            BANK4   CC76H     0033H     UNIT         ?PR?OSDENTERCONFIRAUDIOMUTE?OSDCTRL
            BANK4   CCA9H     0032H     UNIT         ?PR?OSDENTERCUSTOMER2MENU?OSDCTRL
            BANK4   CCDBH     0032H     UNIT         ?PR?OSDENTERCUSTOMER3MENU?OSDCTRL
            BANK4   CD0DH     0032H     UNIT         ?PR?OSDITM34UP?OSDCTRL
            BANK4   CD3FH     0031H     UNIT         ?PR?_USERSETHPOSN100?USERSETTING
            BANK4   CD70H     0031H     UNIT         ?PR?OSDENTERCUSTOMER1MENU?OSDCTRL
            BANK4   CDA1H     0031H     UNIT         ?PR?OSDENTERSUBITMANIMATION?OSDCTRL
            BANK4   CDD2H     0030H     UNIT         ?PR?USERSETADCGAINOFFSET?USERSETTING
            BANK4   CE02H     0030H     UNIT         ?PR?OSDENTERITM32?OSDCTRL
            BANK4   CE32H     002FH     UNIT         ?PR?OSDENTERITM34?OSDCTRL
            BANK4   CE61H     002FH     UNIT         ?PR?OSDENTERITMAUDIO2?OSDCTRL
            BANK4   CE90H     002FH     UNIT         ?PR?OSDCONFIRMSUBITM313?OSDCTRL
            BANK4   CEBFH     002EH     UNIT         ?PR?_USERSETVPOSN100?USERSETTING
            BANK4   CEEDH     002EH     UNIT         ?PR?USERGETNORMALHPOSN?USERSETTING
            BANK4   CF1BH     002EH     UNIT         ?PR?OSDSELECTINPUT?OSDCTRL
            BANK4   CF49H     002EH     UNIT         ?PR?OSDITM42UP?OSDCTRL
            BANK4   CF77H     002EH     UNIT         ?PR?OSDITM42DOWN?OSDCTRL
            BANK4   CFA5H     002EH     UNIT         ?PR?OSDITM43UP?OSDCTRL
            BANK4   CFD3H     002EH     UNIT         ?PR?OSDITM43DOWN?OSDCTRL
BL51 BANKED LINKER/LOCATER V6.22                                                      01/06/2017  14:57:29  PAGE 53


            BANK4   D001H     002EH     UNIT         ?PR?OSDITM44UP?OSDCTRL
            BANK4   D02FH     002EH     UNIT         ?PR?OSDITM44DOWN?OSDCTRL
            BANK4   D05DH     002CH     UNIT         ?PR?OSDITM31UP?OSDCTRL
            BANK4   D089H     002CH     UNIT         ?PR?OSDITM31DOWN?OSDCTRL
            BANK4   D0B5H     002CH     UNIT         ?PR?ISOSDARABALIGNRIGHT?OSDVIEW3
            BANK4   D0E1H     002BH     UNIT         ?PR?USERGETINPUTSOURCE?USERSETTING
            BANK4   D10CH     002BH     UNIT         ?PR?OSDITM35UP?OSDCTRL
            BANK4   D137H     002BH     UNIT         ?PR?OSDITM35DOWN?OSDCTRL
            BANK4   D162H     002BH     UNIT         ?PR?OSDCONFIRMDCRINFOR?OSDCTRL
            BANK4   D18DH     002AH     UNIT         ?PR?OSDENTERTOPPAGEMENU?OSDCTRL
            BANK4   D1B7H     0029H     UNIT         ?PR?_USERSETCLOCK100?USERSETTING
            BANK4   D1E0H     0029H     UNIT         ?PR?_GETINPUTPORTNAME?USERSETTING
            BANK4   D209H     0028H     UNIT         ?PR?OSDEXITCUSTOMERMENU?OSDCTRL
            BANK4   D231H     0028H     UNIT         ?PR?_GETMAXLAYER3VALIDOSDSTATE?OSDCTRL
            BANK4   D259H     0028H     UNIT         ?PR?OSDSUBITMANIMATIONDOWN?OSDCTRL
            BANK4   D281H     0027H     UNIT         ?PR?USERSETOSDH?USERSETTING
            BANK4   D2A8H     0027H     UNIT         ?PR?OSDRESETSMARTREMIDERTIMER?OSDCTRL
            BANK4   D2CFH     0026H     UNIT         ?PR?USERGETNORMALCLOCK?USERSETTING
            BANK4   D2F5H     0026H     UNIT         ?PR?OSDSUBMENUUP3?OSDCTRL
            BANK4   D31BH     0026H     UNIT         ?PR?OSDSUBMENUUPAUDIO?OSDCTRL
            BANK4   D341H     0026H     UNIT         ?PR?_GETMINLAYER3VALIDOSDSTATE?OSDCTRL
            BANK4   D367H     0026H     UNIT         ?PR?OSDENTERSUBITM412?OSDCTRL
            BANK4   D38DH     0026H     UNIT         ?PR?OSDSUBITM412DOWN?OSDCTRL
            BANK4   D3B3H     0025H     UNIT         ?PR?OSDEXITITM31?OSDCTRL
            BANK4   D3D8H     0025H     UNIT         ?PR?OSDEXITSUBITM313?OSDCTRL
            BANK4   D3FDH     0024H     UNIT         ?PR?_GETPORTTABINTERTFACE?USERSETTING
            BANK4   D421H     0024H     UNIT         ?PR?USERSETBRIGHTNESS?USERSETTING
            BANK4   D445H     0024H     UNIT         ?PR?OSDSUBITM321EXITTOPPAGEMENU?OSDCTRL
            BANK4   D469H     0024H     UNIT         ?PR?OSDMAINMENUUP?OSDCTRL
            BANK4   D48DH     0024H     UNIT         ?PR?OSDMAINMENUDOWN?OSDCTRL
            BANK4   D4B1H     0024H     UNIT         ?PR?OSDSUBMENUDOWN3?OSDCTRL
            BANK4   D4D5H     0024H     UNIT         ?PR?OSDSUBMENUDOWNAUDIO?OSDCTRL
            BANK4   D4F9H     0024H     UNIT         ?PR?OSDCONFIRMSUBITM412?OSDCTRL
            BANK4   D51DH     0024H     UNIT         ?PR?OSDENTERNORMAL?OSDCTRL
            BANK4   D541H     0023H     UNIT         ?PR?OSDENTERITM411?OSDCTRL
            BANK4   D564H     0023H     UNIT         ?PR?FNGETCUSTOMERKEYITEM?OSDCTRL
            BANK4   D587H     0022H     UNIT         ?PR?OSDENTERITM36?OSDCTRL
            BANK4   D5A9H     0022H     UNIT         ?PR?OSDEXITITM36?OSDCTRL
            BANK4   D5CBH     0022H     UNIT         ?PR?OSDENTERITM49?OSDCTRL
            BANK4   D5EDH     0021H     UNIT         ?PR?OSDENTERITM35?OSDCTRL
            BANK4   D60EH     0021H     UNIT         ?PR?OSDENTERITM37?OSDCTRL
            BANK4   D62FH     0021H     UNIT         ?PR?OSDCONFIRMITM321?OSDCTRL
            BANK4   D650H     0020H     UNIT         ?PR?OSDCONFIRMCUSTOMERMENU?OSDCTRL
            BANK4   D670H     0020H     UNIT         ?PR?OSDEXITITM24?OSDCTRL
            BANK4   D690H     0020H     UNIT         ?PR?OSDEXITITM25?OSDCTRL
            BANK4   D6B0H     0020H     UNIT         ?PR?OSDCONFIRMCUSTOMEKEY1?OSDCTRL
            BANK4   D6D0H     0020H     UNIT         ?PR?OSDCONFIRMCUSTOMEKEY2?OSDCTRL
            BANK4   D6F0H     0020H     UNIT         ?PR?OSDCONFIRMCUSTOMEKEY3?OSDCTRL
            BANK4   D710H     0020H     UNIT         ?PR?OSDCONFIRMITM48?OSDCTRL
            BANK4   D730H     001FH     UNIT         ?PR?OSDITM25UP?OSDCTRL
            BANK4   D74FH     001FH     UNIT         ?PR?OSDITM25DOWN?OSDCTRL
            BANK4   D76EH     001FH     UNIT         ?PR?OSDENTERITM29?OSDCTRL
            BANK4   D78DH     001FH     UNIT         ?PR?OSDEXITITM32?OSDCTRL
            BANK4   D7ACH     001FH     UNIT         ?PR?OSDITMAUDIO3UP?OSDCTRL
            BANK4   D7CBH     001FH     UNIT         ?PR?OSDITMAUDIO3DOWN?OSDCTRL
            BANK4   D7EAH     000DH     UNIT         ?PR?USERSETLANGUAGE?USERSETTING
                    D7F7H     01C5H                  *** GAP ***
BL51 BANKED LINKER/LOCATER V6.22                                                      01/06/2017  14:57:29  PAGE 54


            BANK4   D9BCH     001FH     UNIT         ?PR?OSDSUBITMANIMATIONUP?OSDCTRL
            BANK4   D9DBH     001EH     UNIT         ?PR?OSDEXITITM35?OSDCTRL
            BANK4   D9F9H     001EH     UNIT         ?PR?OSDSUBITM412UP?OSDCTRL
            BANK4   DA17H     001DH     UNIT         ?PR?USERSETVOLUME?USERSETTING
            BANK4   DA34H     001DH     UNIT         ?PR?USERSETDBC?USERSETTING
            BANK4   DA51H     001DH     UNIT         ?PR?OSDENTERMAINMENU?OSDCTRL
            BANK4   DA6EH     001DH     UNIT         ?PR?OSDITM24UP?OSDCTRL
            BANK4   DA8BH     001DH     UNIT         ?PR?OSDITM24DOWN?OSDCTRL
            BANK4   DAA8H     001DH     UNIT         ?PR?OSDITM29DOWN?OSDCTRL
            BANK4   DAC5H     001DH     UNIT         ?PR?OSDITM37UP?OSDCTRL
            BANK4   DAE2H     001DH     UNIT         ?PR?OSDITM37DOWN?OSDCTRL
            BANK4   DAFFH     001DH     UNIT         ?PR?OSDEXITSUBITM321?OSDCTRL
            BANK4   DB1CH     001DH     UNIT         ?PR?ISOSDROTATIONAVAILABLE?OSDVIEW3
            BANK4   DB39H     001CH     UNIT         ?PR?USERSETBF?USERSETTING
            BANK4   DB55H     001CH     UNIT         ?PR?_GETINPUTPORTINDEX?USERSETTING
            BANK4   DB71H     001CH     UNIT         ?PR?ISSHOWRESOLUTIONNOTICE?USERSETTING
            BANK4   DB8DH     001CH     UNIT         ?PR?OSDITM31EXITTOPPAGEMENU?OSDCTRL
            BANK4   DBA9H     001CH     UNIT         ?PR?OSDITM35EXITTOPPAGEMENU?OSDCTRL
            BANK4   DBC5H     001CH     UNIT         ?PR?OSDEXITITM37?OSDCTRL
            BANK4   DBE1H     001CH     UNIT         ?PR?OSDEXITSUBITMANIMATION?OSDCTRL
            BANK4   DBFDH     001CH     UNIT         ?PR?OSDENTERNOSYNC?OSDCTRL
            BANK4   DC19H     001CH     UNIT         ?PR?OSDENTERNOCABLE?OSDCTRL
            BANK4   DC35H     001BH     UNIT         ?PR?OSDENTERITM48?OSDCTRL
            BANK4   DC50H     001BH     UNIT         ?PR?OSDENTERSUBITM2543TO1?OSDCTRL
            BANK4   DC6BH     001BH     UNIT         ?PR?OSDENTERSUBITM2542?OSDCTRL
            BANK4   DC86H     001BH     UNIT         ?PR?OSDENTERSUBITM2543?OSDCTRL
            BANK4   DCA1H     001BH     UNIT         ?PR?ISDVIDPINPUT?OSDVIEW3
            BANK4   DCBCH     001AH     UNIT         ?PR?OSDEXITANIMATIONTOPPAGEMENU?OSDCTRL
            BANK4   DCD6H     001AH     UNIT         ?PR?OSDEXITLBLTOPPAGEMENU?OSDCTRL
            BANK4   DCF0H     001AH     UNIT         ?PR?OSDITM24EXITTOPPAGEMENU?OSDCTRL
            BANK4   DD0AH     001AH     UNIT         ?PR?OSDITM25EXITTOPPAGEMENU?OSDCTRL
            BANK4   DD24H     001AH     UNIT         ?PR?OSDITM29EXITTOPPAGEMENU?OSDCTRL
            BANK4   DD3EH     001AH     UNIT         ?PR?OSDITM32EXITTOPPAGEMENU?OSDCTRL
            BANK4   DD58H     001AH     UNIT         ?PR?OSDITM37EXITTOPPAGEMENU?OSDCTRL
            BANK4   DD72H     001AH     UNIT         ?PR?OSDITM12UP?OSDCTRL
            BANK4   DD8CH     001AH     UNIT         ?PR?OSDITM12DOWN?OSDCTRL
            BANK4   DDA6H     001AH     UNIT         ?PR?OSDITM29UP?OSDCTRL
            BANK4   DDC0H     001AH     UNIT         ?PR?OSDITM41UP?OSDCTRL
            BANK4   DDDAH     001AH     UNIT         ?PR?OSDITM41DOWN?OSDCTRL
            BANK4   DDF4H     001AH     UNIT         ?PR?ISOSDALLOWDCR?OSDVIEW3
            BANK4   DE0EH     0019H     UNIT         ?PR?_USERSETPHASE100?USERSETTING
            BANK4   DE27H     0019H     UNIT         ?PR?USERSETROFFSET?USERSETTING
            BANK4   DE40H     0019H     UNIT         ?PR?USERSETGOFFSET?USERSETTING
            BANK4   DE59H     0019H     UNIT         ?PR?USERSETBOFFSET?USERSETTING
            BANK4   DE72H     0019H     UNIT         ?PR?OSDENTERITM21?OSDCTRL
            BANK4   DE8BH     0019H     UNIT         ?PR?OSDENTERITM22?OSDCTRL
            BANK4   DEA4H     0019H     UNIT         ?PR?OSDENTERITM23?OSDCTRL
            BANK4   DEBDH     0019H     UNIT         ?PR?OSDENTERITM26?OSDCTRL
            BANK4   DED6H     0019H     UNIT         ?PR?OSDENTERITM27?OSDCTRL
            BANK4   DEEFH     0019H     UNIT         ?PR?OSDENTERITM33?OSDCTRL
            BANK4   DF08H     0019H     UNIT         ?PR?OSDENTERITMAUDIO1?OSDCTRL
            BANK4   DF21H     0019H     UNIT         ?PR?OSDCONFIRMRESETINFOR?OSDCTRL
            BANK4   DF3AH     0019H     UNIT         ?PR?OSDCONFIRMRESETCOLORINFOR?OSDCTRL
            BANK4   DF53H     0018H     UNIT         ?PR?USERSETRGAIN?USERSETTING
            BANK4   DF6BH     0018H     UNIT         ?PR?USERSETGGAIN?USERSETTING
            BANK4   DF83H     0018H     UNIT         ?PR?USERSETBGAIN?USERSETTING
            BANK4   DF9BH     0018H     UNIT         ?PR?OSDENTERITM28?OSDCTRL
BL51 BANKED LINKER/LOCATER V6.22                                                      01/06/2017  14:57:29  PAGE 55


            BANK4   DFB3H     0018H     UNIT         ?PR?OSDCHECKITM31?OSDCTRL
            BANK4   DFCBH     0018H     UNIT         ?PR?OSDEXITITM33?OSDCTRL
            BANK4   DFE3H     0018H     UNIT         ?PR?OSDSUBITM313UP?OSDCTRL
            BANK4   DFFBH     0018H     UNIT         ?PR?OSDSUBITM313DOWN?OSDCTRL
            BANK4   E013H     0018H     UNIT         ?PR?ISOSDALLOWRESNOTICE?OSDVIEW3
            BANK4   E02BH     0018H     UNIT         ?PR?ISOSDCUSKEYBRICONDISABLE?OSDVIEW3
            BANK4   E043H     0017H     UNIT         ?PR?OSDCLOSEALL?OSDCTRL
            BANK4   E05AH     0017H     UNIT         ?PR?OSDENTERITM12?OSDCTRL
            BANK4   E071H     0017H     UNIT         ?PR?OSDENTERITM24?OSDCTRL
            BANK4   E088H     0017H     UNIT         ?PR?OSDENTERITM25?OSDCTRL
            BANK4   E09FH     0017H     UNIT         ?PR?OSDEXITITM29?OSDCTRL
            BANK4   E0B6H     0017H     UNIT         ?PR?OSDENTERITM31?OSDCTRL
            BANK4   E0CDH     0017H     UNIT         ?PR?OSDENTERITM42?OSDCTRL
            BANK4   E0E4H     0017H     UNIT         ?PR?OSDENTERITM43?OSDCTRL
            BANK4   E0FBH     0017H     UNIT         ?PR?OSDENTERITM44?OSDCTRL
            BANK4   E112H     0017H     UNIT         ?PR?OSDENTERITM45?OSDCTRL
            BANK4   E129H     0017H     UNIT         ?PR?OSDITM48UP?OSDCTRL
            BANK4   E140H     0017H     UNIT         ?PR?OSDITM48DOWN?OSDCTRL
            BANK4   E157H     0017H     UNIT         ?PR?OSDENTERITM412?OSDCTRL
            BANK4   E16EH     0017H     UNIT         ?PR?OSDENTERSUBITM413?OSDCTRL
            BANK4   E185H     0016H     UNIT         ?PR?OSDENTERITM41?OSDCTRL
            BANK4   E19BH     0016H     UNIT         ?PR?OSDEXITSUBITM2541?OSDCTRL
            BANK4   E1B1H     0016H     UNIT         ?PR?OSDENTERSUBITM411X?OSDCTRL
            BANK4   E1C7H     0016H     UNIT         ?PR?OSDEXITRESETINFOR?OSDCTRL
            BANK4   E1DDH     0016H     UNIT         ?PR?OSDEXITRESETCOLORINFOR?OSDCTRL
            BANK4   E1F3H     0016H     UNIT         ?PR?OSDEXITDCRINFOR?OSDCTRL
            BANK4   E209H     0015H     UNIT         ?PR?USERSETVOLUMEANDMUTE?USERSETTING
            BANK4   E21EH     0015H     UNIT         ?PR?OSDAUDIO2EXITTOPPAGEMENU?OSDCTRL
            BANK4   E233H     0015H     UNIT         ?PR?OSDCONFIRMITM24?OSDCTRL
            BANK4   E248H     0015H     UNIT         ?PR?OSDCONFIRMITM25?OSDCTRL
            BANK4   E25DH     0015H     UNIT         ?PR?OSDCONFIRMITM35?OSDCTRL
            BANK4   E272H     0015H     UNIT         ?PR?OSDCONFIRMITM36?OSDCTRL
            BANK4   E287H     0015H     UNIT         ?PR?OSDCONFIRMITM37?OSDCTRL
            BANK4   E29CH     0015H     UNIT         ?PR?OSDEXITITMAUDIO1?OSDCTRL
            BANK4   E2B1H     0015H     UNIT         ?PR?OSDCONFIRMAUDIO3?OSDCTRL
            BANK4   E2C6H     0015H     UNIT         ?PR?OSDCONFIRMITM49?OSDCTRL
            BANK4   E2DBH     0015H     UNIT         ?PR?OSDEXITITM410?OSDCTRL
            BANK4   E2F0H     0014H     UNIT         ?PR?USERSETPHASE?USERSETTING
            BANK4   E304H     0014H     UNIT         ?PR?OSDSERVICEMENUUP?SMOSDVIEW
            BANK4   E318H     0014H     UNIT         ?PR?OSDENTEREXITKEYMENU?OSDCTRL
            BANK4   E32CH     0014H     UNIT         ?PR?OSDENTERMENUKEYMENU?OSDCTRL
            BANK4   E340H     0014H     UNIT         ?PR?OSDEXITITM12?OSDCTRL
            BANK4   E354H     0014H     UNIT         ?PR?OSDEXITITM22?OSDCTRL
            BANK4   E368H     0014H     UNIT         ?PR?OSDEXITITM23?OSDCTRL
            BANK4   E37CH     0014H     UNIT         ?PR?OSDEXITITM26?OSDCTRL
            BANK4   E390H     0014H     UNIT         ?PR?OSDEXITITM27?OSDCTRL
            BANK4   E3A4H     0014H     UNIT         ?PR?OSDEXITITM49?OSDCTRL
            BANK4   E3B8H     0013H     UNIT         ?PR?OSDSERVICEMENUDOWN?SMOSDVIEW
            BANK4   E3CBH     0013H     UNIT         ?PR?OSDCONFIRMITM34?OSDCTRL
            BANK4   E3DEH     0012H     UNIT         ?PR?OSDITM36EXITTOPPAGEMENU?OSDCTRL
            BANK4   E3F0H     0012H     UNIT         ?PR?OSDITM45EXITTOPPAGEMENU?OSDCTRL
            BANK4   E402H     0012H     UNIT         ?PR?OSDITM49EXITTOPPAGEMENU?OSDCTRL
            BANK4   E414H     0012H     UNIT         ?PR?OSDENTERCONFIRDISPLAYMODE?OSDCTRL
            BANK4   E426H     0012H     UNIT         ?PR?OSDENTERCONFIRPICTMODE?OSDCTRL
            BANK4   E438H     0012H     UNIT         ?PR?OSDEXITITM28?OSDCTRL
            BANK4   E44AH     0012H     UNIT         ?PR?OSDEXITITMAUDIO2?OSDCTRL
            BANK4   E45CH     0012H     UNIT         ?PR?OSDEXITITM411?OSDCTRL
BL51 BANKED LINKER/LOCATER V6.22                                                      01/06/2017  14:57:29  PAGE 56


            BANK4   E46EH     0011H     UNIT         ?PR?USERSETVPOSITION?USERSETTING
            BANK4   E47FH     0011H     UNIT         ?PR?USERSETOSDROTATION?USERSETTING
            BANK4   E490H     0011H     UNIT         ?PR?USERSETGAMMA?USERSETTING
            BANK4   E4A1H     0011H     UNIT         ?PR?USERSETINPUTSOURCE?USERSETTING
            BANK4   E4B2H     0011H     UNIT         ?PR?OSDENTEROSDUNLOCK?OSDCTRL
            BANK4   E4C3H     0011H     UNIT         ?PR?OSDEXITITM21?OSDCTRL
            BANK4   E4D4H     0011H     UNIT         ?PR?OSDITM36UP?OSDCTRL
            BANK4   E4E5H     0011H     UNIT         ?PR?OSDITM36DOWN?OSDCTRL
            BANK4   E4F6H     0011H     UNIT         ?PR?OSDITMAUDIO2UP?OSDCTRL
            BANK4   E507H     0011H     UNIT         ?PR?OSDITMAUDIO2DOWN?OSDCTRL
            BANK4   E518H     0011H     UNIT         ?PR?OSDEXITITM41?OSDCTRL
            BANK4   E529H     0011H     UNIT         ?PR?OSDEXITITM42?OSDCTRL
            BANK4   E53AH     0011H     UNIT         ?PR?OSDEXITITM43?OSDCTRL
            BANK4   E54BH     0011H     UNIT         ?PR?OSDEXITITM44?OSDCTRL
            BANK4   E55CH     0011H     UNIT         ?PR?OSDITM45UP?OSDCTRL
            BANK4   E56DH     0011H     UNIT         ?PR?OSDITM45DOWN?OSDCTRL
            BANK4   E57EH     0011H     UNIT         ?PR?OSDEXITITM48?OSDCTRL
            BANK4   E58FH     0011H     UNIT         ?PR?OSDITM49UP?OSDCTRL
            BANK4   E5A0H     0011H     UNIT         ?PR?OSDITM49DOWN?OSDCTRL
            BANK4   E5B1H     0011H     UNIT         ?PR?OSDEXITITM412?OSDCTRL
            BANK4   E5C2H     0010H     UNIT         ?PR?USERSETDDCCI?USERSETTING
            BANK4   E5D2H     0010H     UNIT         ?PR?OSDCONFIRMITM29?OSDCTRL
            BANK4   E5E2H     0010H     UNIT         ?PR?OSDCONFIRMAUDIO2?OSDCTRL
            BANK4   E5F2H     000FH     UNIT         ?PR?OSDEXITTOPPAGEMENU?OSDCTRL
            BANK4   E601H     000FH     UNIT         ?PR?OSDITM28UP?OSDCTRL
            BANK4   E610H     000FH     UNIT         ?PR?OSDITM28DOWN?OSDCTRL
            BANK4   E61FH     000FH     UNIT         ?PR?OSDEXITITM45?OSDCTRL
            BANK4   E62EH     000FH     UNIT         ?PR?OSDCHECKITM45?OSDCTRL
            BANK4   E63DH     000FH     UNIT         ?PR?OSDITM411UP?OSDCTRL
            BANK4   E64CH     000FH     UNIT         ?PR?OSDITM411DOWN?OSDCTRL
            BANK4   E65BH     000FH     UNIT         ?PR?OSDSUBITM321UP?OSDCTRL
            BANK4   E66AH     000FH     UNIT         ?PR?OSDSUBITM321DOWN?OSDCTRL
            BANK4   E679H     000FH     UNIT         ?PR?_ISOSDMAINICONAVAILABLE?OSDVIEW3
            BANK4   E688H     000EH     UNIT         ?PR?USERSETAUDIOMUTE?USERSETTING
            BANK4   E696H     000EH     UNIT         ?PR?OSDEXITSUBMENU1?OSDCTRL
            BANK4   E6A4H     000EH     UNIT         ?PR?OSDEXITSUBMENU2?OSDCTRL
            BANK4   E6B2H     000EH     UNIT         ?PR?OSDEXITSUBMENU3?OSDCTRL
            BANK4   E6C0H     000EH     UNIT         ?PR?OSDEXITSUBMENUAUDIO?OSDCTRL
            BANK4   E6CEH     000EH     UNIT         ?PR?OSDEXITSUBMENU4?OSDCTRL
            BANK4   E6DCH     000EH     UNIT         ?PR?OSDITM412UP?OSDCTRL
            BANK4   E6EAH     000EH     UNIT         ?PR?OSDITM412DOWN?OSDCTRL
            BANK4   E6F8H     000DH     UNIT         ?PR?OSDCONFIRMITM412?OSDCTRL
            BANK4   E705H     000CH     UNIT         ?PR?OSDEXITSUBITM412?OSDCTRL
            BANK4   E711H     000BH     UNIT         ?PR?USERSETCLOCK?USERSETTING
            BANK4   E71CH     000BH     UNIT         ?PR?USERSETHPOSITION?USERSETTING
            BANK4   E727H     000BH     UNIT         ?PR?USERSETCOLORRESET?USERSETTING
            BANK4   E732H     000BH     UNIT         ?PR?OSDEXITSMARTREMINDER?OSDCTRL
            BANK4   E73DH     000AH     UNIT         ?PR?USERSETTIMEOUT?USERSETTING
            BANK4   E747H     000AH     UNIT         ?PR?USERSETSR?USERSETTING
            BANK4   E751H     000AH     UNIT         ?PR?OSDCONFIRMITM28?OSDCTRL
            BANK4   E75BH     0009H     UNIT         ?PR?USERSETOSDV?USERSETTING
            BANK4   E764H     0009H     UNIT         ?PR?SERVICEMENUSELECT?SMOSDVIEW
            BANK4   E76DH     0009H     UNIT         ?PR?SERVICEMENUUNSELECT?SMOSDVIEW
            BANK4   E776H     0009H     UNIT         ?PR?_OSDCONFIGTIMEOUT?OSDCTRL
            BANK4   E77FH     0009H     UNIT         ?PR?OSDEXITMAINMENU?OSDCTRL
            BANK4   E788H     0009H     UNIT         ?PR?OSDENTEROOL?OSDCTRL
            BANK4   E791H     0009H     UNIT         ?PR?OSDENTEROOR?OSDCTRL
BL51 BANKED LINKER/LOCATER V6.22                                                      01/06/2017  14:57:29  PAGE 57


            BANK4   E79AH     0009H     UNIT         ?PR?LOADGAMA_3?GAMA_3
            BANK4   E7A3H     0008H     UNIT         ?PR?OSDEXITFAC?OSDCTRL
            BANK4   E7ABH     0007H     UNIT         ?PR?OSDUNLOCKKEYMENU?OSDCTRL
            BANK4   E7B2H     0006H     UNIT         ?PR?USERGETNORMALVPOSN?USERSETTING
            BANK4   E7B8H     0006H     UNIT         ?PR?GETOSDSTATE?OSDCTRL
            BANK4   E7BEH     0006H     UNIT         ?PR?_SETOSDSTATE?OSDCTRL
            BANK4   E7C4H     0006H     UNIT         ?PR?OSDUPFACTORY?OSDCTRL
            BANK4   E7CAH     0006H     UNIT         ?PR?OSDDNFACTORY?OSDCTRL
            BANK4   E7D0H     0006H     UNIT         ?PR?OSDENTERFITM?OSDCTRL
            BANK4   E7D6H     0006H     UNIT         ?PR?OSDEXITFITM?OSDCTRL
            BANK4   E7DCH     0006H     UNIT         ?PR?OSDEXITFITM2?OSDCTRL
            BANK4   E7E2H     0006H     UNIT         ?PR?OSDUPFITM?OSDCTRL
            BANK4   E7E8H     0006H     UNIT         ?PR?OSDDNFITM?OSDCTRL
            BANK4   E7EEH     0006H     UNIT         ?PR?OSDENTERSERVICEMENU?OSDCTRL
            BANK4   E7F4H     0006H     UNIT         ?PR?OSDUPSERVICEMENU?OSDCTRL
            BANK4   E7FAH     0006H     UNIT         ?PR?OSDDNSERVICEMENU?OSDCTRL
            BANK4   E800H     0006H     UNIT         ?PR?OSDADJSMITM?OSDCTRL
            BANK4   E806H     0003H     UNIT         ?PR?_OSDUPDATEAUTOTUNE?OSDCTRL
            BANK4   E809H     0003H     UNIT         ?PR?OSDSUBITM2541UP?OSDCTRL
            BANK4   E80CH     0003H     UNIT         ?PR?OSDSUBITM2541DOWN?OSDCTRL
            BANK4   E80FH     0003H     UNIT         ?PR?OSDSUBITM2542UP?OSDCTRL
            BANK4   E812H     0003H     UNIT         ?PR?OSDSUBITM2542DOWN?OSDCTRL
            BANK4   E815H     0003H     UNIT         ?PR?OSDSUBITM2543UP?OSDCTRL
            BANK4   E818H     0003H     UNIT         ?PR?OSDSUBITM2543DOWN?OSDCTRL
            BANK4   E81BH     0003H     UNIT         ?PR?ISOSDALLOWSENSEYEDEMO?OSDVIEW3

            * * * * * * *   C O D E   B A N K   5   * * * * * * *
                    0000H     5000H                  *** GAP ***
            BANK5   5000H     3305H     UNIT         ?CO?OSDFONT_EUROPE
            BANK5   8305H     0D81H     UNIT         ?CO?LOGO
            BANK5   9086H     4232H     UNIT         ?CO?OSDFONT_SC
            BANK5   D2B8H     03C0H     UNIT         ?CO?GAMA_2
            BANK5   D678H     00DBH     UNIT         ?PR?SHOWLOGO?LOGO
            BANK5   D753H     00A2H     UNIT         ?PR?ADCINIT?SCALER_ADC
                    D7F5H     01C7H                  *** GAP ***
            BANK5   D9BCH     00C6H     UNIT         ?PR?_SETADCBANDWIDTH?SCALER_ADC
            BANK5   DA82H     00BCH     UNIT         ?PR?_SETADCPLL?SCALER_ADC
            BANK5   DB3EH     0096H     UNIT         ?PR?WAITHPLLSTABLE?SCALER_ADC
            BANK5   DBD4H     006AH     UNIT         ?PR?_SETVP?SCALER_CAPTURE
            BANK5   DC3EH     0066H     UNIT         ?PR?_DITHSETDITHERMODE?SCALER_DITHERING
            BANK5   DCA4H     0064H     UNIT         ?PR?SCALER_ADC
            BANK5   DD08H     005BH     UNIT         ?PR?_SETADCINPUT?SCALER_ADC
            BANK5   DD63H     0055H     UNIT         ?PR?CAPINIT?SCALER_CAPTURE
            BANK5   DDB8H     0043H     UNIT         ?PR?_NRSETGCCFG?SCALER_NR
            BANK5   DDFBH     0034H     UNIT         ?PR?LOGO
            BANK5   DE2FH     0032H     UNIT         ?PR?_NRSETNRTYPE?SCALER_NR
            BANK5   DE61H     0026H     UNIT         ?PR?_SETCAPTURESIZE?SCALER_CAPTURE
            BANK5   DE87H     0025H     UNIT         ?PR?CLOSELOGO?LOGO
            BANK5   DEACH     0020H     UNIT         ?PR?_SETADCPHASE?SCALER_ADC
            BANK5   DECCH     001CH     UNIT         ?PR?_LOGOSETSPLIT?LOGO
            BANK5   DEE8H     001AH     UNIT         ?PR?NRINIT?SCALER_NR
            BANK5   DF02H     001AH     UNIT         ?PR?SCALER_NR
            BANK5   DF1CH     0017H     UNIT         ?PR?DITHINIT?SCALER_DITHERING
            BANK5   DF33H     0017H     UNIT         ?PR?INITFONT_SC_TABLE1?OSDFONT_SC
            BANK5   DF4AH     0017H     UNIT         ?PR?INITFONT_SC_TABLE2?OSDFONT_SC
            BANK5   DF61H     0016H     UNIT         ?PR?_NRSETEDGETHR?SCALER_NR
            BANK5   DF77H     0013H     UNIT         ?PR?INITFONT_ARAB?OSDFONT_EUROPE
BL51 BANKED LINKER/LOCATER V6.22                                                      01/06/2017  14:57:29  PAGE 58


            BANK5   DF8AH     0013H     UNIT         ?PR?INITFONT_PORTUGUS?OSDFONT_EUROPE
            BANK5   DF9DH     0013H     UNIT         ?PR?INITFONT_SVENSKA?OSDFONT_EUROPE
            BANK5   DFB0H     0013H     UNIT         ?PR?INITFONT_PYCCKNN?OSDFONT_EUROPE
            BANK5   DFC3H     0013H     UNIT         ?PR?INITFONT_ROMANA?OSDFONT_EUROPE
            BANK5   DFD6H     0013H     UNIT         ?PR?INITFONT_SICG?OSDFONT_EUROPE
            BANK5   DFE9H     0013H     UNIT         ?PR?INITFONT_MAGYAR?OSDFONT_EUROPE
            BANK5   DFFCH     0013H     UNIT         ?PR?INITFONT_CESKY?OSDFONT_EUROPE
            BANK5   E00FH     0013H     UNIT         ?PR?INITFONT_POLSKI?OSDFONT_EUROPE
            BANK5   E022H     0013H     UNIT         ?PR?INITFONT_ESPANOL?OSDFONT_EUROPE
            BANK5   E035H     0013H     UNIT         ?PR?INITFONT_ITALIANO?OSDFONT_EUROPE
            BANK5   E048H     0013H     UNIT         ?PR?INITFONT_DEUTSCH?OSDFONT_EUROPE
            BANK5   E05BH     0013H     UNIT         ?PR?INITFONT_FRANAIS?OSDFONT_EUROPE
            BANK5   E06EH     0013H     UNIT         ?PR?INITFONT_EUROPE?OSDFONT_EUROPE
            BANK5   E081H     0011H     UNIT         ?PR?VGA_POWEROFF?SCALER_ADC
            BANK5   E092H     0010H     UNIT         ?PR?_ENABLEADCGNDSAMPLING?SCALER_ADC
            BANK5   E0A2H     000EH     UNIT         ?PR?VGA_POWERON?SCALER_ADC
            BANK5   E0B0H     000DH     UNIT         ?PR?_SETHP?SCALER_CAPTURE
            BANK5   E0BDH     000BH     UNIT         ?PR?ISOVERSAMPLE?SCALER_CAPTURE
            BANK5   E0C8H     000BH     UNIT         ?PR?SCHMITTTRIGGERPOWERON?SCALER_ADC
            BANK5   E0D3H     000BH     UNIT         ?PR?SCHMITTTRIGGERPOWEROFF?SCALER_ADC
            BANK5   E0DEH     000AH     UNIT         ?PR?GETINPUTHSTART?SCALER_CAPTURE
            BANK5   E0E8H     000AH     UNIT         ?PR?GETINPUTVSTART?SCALER_CAPTURE
            BANK5   E0F2H     000AH     UNIT         ?PR?GETHCAPTURESIZE?SCALER_CAPTURE
            BANK5   E0FCH     000AH     UNIT         ?PR?GETVCAPTURESIZE?SCALER_CAPTURE
            BANK5   E106H     000AH     UNIT         ?PR?DISABLEOVERSAMPLE?SCALER_CAPTURE
            BANK5   E110H     000AH     UNIT         ?PR?SCALER_CAPTURE
            BANK5   E11AH     0009H     UNIT         ?PR?_SETEVENFIELDOFFSET?SCALER_CAPTURE
            BANK5   E123H     0009H     UNIT         ?PR?LOADGAMA_2?GAMA_2
            BANK5   E12CH     0009H     UNIT         ?PR?_NRSETNR2THR?SCALER_NR
            BANK5   E135H     0008H     UNIT         ?PR?ENABLEOVERSAMPLE?SCALER_CAPTURE
            BANK5   E13DH     0008H     UNIT         ?PR?OSDFONT_EUROPE
            BANK5   E145H     0007H     UNIT         ?PR?GETANGINPUTHTOTAL?SCALER_ADC
            BANK5   E14CH     0007H     UNIT         ?PR?_NRSETNRTHR?SCALER_NR
            BANK5   E153H     0007H     UNIT         ?PR?_NRSETJCLVL?SCALER_NR
            BANK5   E15AH     0006H     UNIT         ?PR?GETANGINPUTPHASE?SCALER_ADC
            BANK5   E160H     0006H     UNIT         ?PR?_SETADCRGAIN?SCALER_ADC
            BANK5   E166H     0006H     UNIT         ?PR?_SETADCGGAIN?SCALER_ADC
            BANK5   E16CH     0006H     UNIT         ?PR?_SETADCBGAIN?SCALER_ADC
            BANK5   E172H     0006H     UNIT         ?PR?_SETADCROFFSET?SCALER_ADC
            BANK5   E178H     0006H     UNIT         ?PR?_SETADCGOFFSET?SCALER_ADC
            BANK5   E17EH     0006H     UNIT         ?PR?_SETADCBOFFSET?SCALER_ADC
            BANK5   E184H     0006H     UNIT         ?PR?GETADCRGAIN?SCALER_ADC
            BANK5   E18AH     0006H     UNIT         ?PR?GETADCGGAIN?SCALER_ADC
            BANK5   E190H     0006H     UNIT         ?PR?GETADCBGAIN?SCALER_ADC
            BANK5   E196H     0006H     UNIT         ?PR?GETADCROFFSET?SCALER_ADC
            BANK5   E19CH     0006H     UNIT         ?PR?GETADCGOFFSET?SCALER_ADC
            BANK5   E1A2H     0006H     UNIT         ?PR?GETADCBOFFSET?SCALER_ADC
            BANK5   E1A8H     0003H     UNIT         ?PR?_FINDTABLE_SC?OSDFONT_SC
            BANK5   E1ABH     0003H     UNIT         ?PR?_FINDTABLE_EUROPE?OSDFONT_EUROPE

            * * * * * * *   C O D E   B A N K   6   * * * * * * *
                    0000H     0016H                  *** GAP ***
            BANK6   0016H     0001H     UNIT         ?PR?CDDCCITXCOMMANDREADY?DDCCI
                    0017H     4FE9H                  *** GAP ***
            BANK6   5000H     0261H     UNIT         ?CO?FOSDVIEW
            BANK6   5261H     445DH     UNIT         ?CO?OSDFONT_JAPAN
            BANK6   96BEH     03C0H     UNIT         ?CO?GAMA_BYPASS
BL51 BANKED LINKER/LOCATER V6.22                                                      01/06/2017  14:57:29  PAGE 59


            BANK6   9A7EH     03C0H     UNIT         ?CO?GAMA_1
            BANK6   9E3EH     000AH     UNIT         ?CO?DDCCICTRL
            BANK6   9E48H     074EH     UNIT         ?PR?_OSDAPI_ROTATEFONT?OSDAPI
            BANK6   A596H     0503H     UNIT         ?PR?SETVCP_FEATURE?DDCCI
            BANK6   AA99H     042BH     UNIT         ?PR?OSDSHOWFACTORY?FOSDVIEW
            BANK6   AEC4H     03A9H     UNIT         ?PR?GETVCP_FEATURE?DDCCI
            BANK6   B26DH     02C7H     UNIT         ?PR?OSDAPI
            BANK6   B534H     02B7H     UNIT         ?PR?AUTOALIGN_COMMAND?DDCCI
            BANK6   B7EBH     0276H     UNIT         ?PR?FOSDVIEW
            BANK6   BA61H     022DH     UNIT         ?PR?OSDFACTORYITMUP?FOSDVIEW
            BANK6   BC8EH     0229H     UNIT         ?PR?OSDFACTORYITMDOWN?FOSDVIEW
            BANK6   BEB7H     021AH     UNIT         ?PR?_CONFIGSCALERPWM?SCALER_PWM
            BANK6   C0D1H     0209H     UNIT         ?PR?_OSDAPI_ROTATEOSDWINPOSITION?OSDAPI2
            BANK6   C2DAH     0177H     UNIT         ?PR?_INITFONTTABLEBYLANG?OSDAPI_INDENT
            BANK6   C451H     014AH     UNIT         ?PR?_OSDAPI_ROTATEOSDWIN?OSDAPI
            BANK6   C59BH     0137H     UNIT         ?PR?DDCCI
            BANK6   C6D2H     0123H     UNIT         ?PR?SETSRINPUTTIMINGPARAMETER?SR
            BANK6   C7F5H     00FEH     UNIT         ?PR?SETVCP_CAPABILITIES?DDCCI
            BANK6   C8F3H     00F1H     UNIT         ?PR?_OSDAPI_SETPOSITION?OSDAPI
            BANK6   C9E4H     00DDH     UNIT         ?PR?_OSDAPI_SETOSDWINSIZE?OSDAPI
            BANK6   CAC1H     00D5H     UNIT         ?PR?OSDAPI2
            BANK6   CB96H     00D2H     UNIT         ?PR?CHECKDDC2BI?DDCCI
            BANK6   CC68H     00BFH     UNIT         ?PR?FACTORYSETVALUE?FOSDVIEW
            BANK6   CD27H     00B3H     UNIT         ?PR?OSDAPI_SHOWINDENTS?OSDAPI_INDENT
            BANK6   CDDAH     00A2H     UNIT         ?PR?OSDFACTORYENTERITM?FOSDVIEW
            BANK6   CE7CH     0091H     UNIT         ?PR?_SETRGBCOLOR?DDCCI
            BANK6   CF0DH     008AH     UNIT         ?PR?_SETSRMODE?SR
            BANK6   CF97H     008AH     UNIT         ?PR?OSDAPI_LOADINDENTFONT?OSDAPI_INDENT
            BANK6   D021H     0088H     UNIT         ?PR?SCALER_PWM
            BANK6   D0A9H     0087H     UNIT         ?PR?_OSDAPI_ROTATEIDENTFONT?OSDAPI
            BANK6   D130H     0086H     UNIT         ?PR?_GETRGBCOLOR?DDCCI
            BANK6   D1B6H     0085H     UNIT         ?PR?OSDAPI_SETOSDWINATTR?OSDAPI
            BANK6   D23BH     007DH     UNIT         ?PR?OSDFACTORYUP?FOSDVIEW
            BANK6   D2B8H     0071H     UNIT         ?PR?_OSDAPI_OSDWINOFF?OSDAPI
            BANK6   D329H     0071H     UNIT         ?PR?_GETSCALERPWM?SCALER_PWM
            BANK6   D39AH     006EH     UNIT         ?PR?GETTIMING?DDCCI
            BANK6   D408H     006EH     UNIT         ?PR?OSDFACTORYDOWN?FOSDVIEW
            BANK6   D476H     0068H     UNIT         ?PR?DDCCIACTIONDEMANDER?DDCCICTRL
            BANK6   D4DEH     0062H     UNIT         ?PR?_OSDAPI_OSDWINON?OSDAPI
            BANK6   D540H     0060H     UNIT         ?PR?_SETSCALERPWM?SCALER_PWM
            BANK6   D5A0H     005EH     UNIT         ?PR?_FACTORYOSDSHOWNUM?FOSDVIEW
            BANK6   D5FEH     005DH     UNIT         ?PR?_FOSDSHOWNUM?FOSDVIEW
            BANK6   D65BH     0056H     UNIT         ?PR?_FOSDINITFRAME?FOSDVIEW
            BANK6   D6B1H     004FH     UNIT         ?PR?CHECK2BICMD?DDCCI
            BANK6   D700H     004FH     UNIT         ?PR?_OSDAPI_SETFONTSIZE?OSDAPI
            BANK6   D74FH     0048H     UNIT         ?PR?_SMOOTHSCALERPWM?SCALER_PWM
            BANK6   D797H     0042H     UNIT         ?PR?_FACTORYSHOWVALUE?FOSDVIEW
            BANK6   D7D9H     001EH     UNIT         ?PR?OSDAPI_CLEAROSD?OSDAPI
                    D7F7H     01C5H                  *** GAP ***
            BANK6   D9BCH     0041H     UNIT         ?PR?_FACTORYSHOWAUTOCOLOR?FOSDVIEW
            BANK6   D9FDH     0040H     UNIT         ?PR?_OSDAPI_SETFONTADDRESS?OSDAPI
            BANK6   DA3DH     0040H     UNIT         ?PR?FACTORYSELECTVALUE?FOSDVIEW
            BANK6   DA7DH     0040H     UNIT         ?PR?FACTORYUNSELECTVALUE?FOSDVIEW
            BANK6   DABDH     003CH     UNIT         ?PR?_ENABLESCALERPWM?SCALER_PWM
            BANK6   DAF9H     003CH     UNIT         ?PR?_DISABLESCALERPWM?SCALER_PWM
            BANK6   DB35H     003CH     UNIT         ?PR?_SETVSYNCRESETPWM?SCALER_PWM
            BANK6   DB71H     003AH     UNIT         ?PR?_SETREFERENCEDBCDUTY?SCALER_PWM
BL51 BANKED LINKER/LOCATER V6.22                                                      01/06/2017  14:57:29  PAGE 60


            BANK6   DBABH     0039H     UNIT         ?PR?FOSDINIT?FOSDVIEW
            BANK6   DBE4H     0037H     UNIT         ?PR?_OSDAPI_FILLLINEATTR?OSDAPI
            BANK6   DC1BH     0036H     UNIT         ?PR?FACTORYSHOWHDMI_PRETEST?FOSDVIEW
            BANK6   DC51H     0034H     UNIT         ?PR?OSDAPI_WRITEXYREPEATCHAR?OSDAPI
            BANK6   DC85H     0030H     UNIT         ?PR?FACTORYSHOWBURNIN?FOSDVIEW
            BANK6   DCB5H     002FH     UNIT         ?PR?_OSDAPI_SETOSDFGBGTRAN?OSDAPI
            BANK6   DCE4H     002EH     UNIT         ?PR?OSDAPI_INDENT
            BANK6   DD12H     002CH     UNIT         ?PR?_DDCCIACTIONDISPATCHER?DDCCICTRL
            BANK6   DD3EH     0029H     UNIT         ?PR?_OSDAPI_SETOSDWINTRAN?OSDAPI
            BANK6   DD67H     0029H     UNIT         ?PR?_OSDAPI_SETOSDSPECIALBGTRAN?OSDAPI
            BANK6   DD90H     0027H     UNIT         ?PR?_CALIGNSENDACKCMD?DDCCI
            BANK6   DDB7H     0027H     UNIT         ?PR?_OSDAPI_SETROWPOSITION?OSDAPI
            BANK6   DDDEH     0027H     UNIT         ?PR?OSDAPI_WRITEXYCHAR?OSDAPI
            BANK6   DE05H     0026H     UNIT         ?PR?SHOWDFM?FOSDVIEW
            BANK6   DE2BH     0023H     UNIT         ?PR?GENTXCHECKSUM?DDCCI
            BANK6   DE4EH     0022H     UNIT         ?PR?SR
            BANK6   DE70H     001FH     UNIT         ?PR?_OSDAPI_SETHVZOOM?OSDAPI
            BANK6   DE8FH     001BH     UNIT         ?PR?_OSDAPI_SETINDENTFONT?OSDAPI_INDENT
            BANK6   DEAAH     001BH     UNIT         ?PR?AOC_LOADFACTORYONEBITFONT?FOSDVIEW
            BANK6   DEC5H     0018H     UNIT         ?PR?DDCCIUSERUPDATE?DDCCI
            BANK6   DEDDH     0018H     UNIT         ?PR?DDCCITMGUPDATE?DDCCI
            BANK6   DEF5H     0018H     UNIT         ?PR?DDCCISYSUPDATE?DDCCI
            BANK6   DF0DH     0018H     UNIT         ?PR?DDCCICALUPDATE?DDCCI
            BANK6   DF25H     0018H     UNIT         ?PR?DDCCIPWRON?DDCCI
            BANK6   DF3DH     0018H     UNIT         ?PR?DDCCIPWROFF?DDCCI
            BANK6   DF55H     0018H     UNIT         ?PR?DDCCIPWRSAVING?DDCCI
            BANK6   DF6DH     0018H     UNIT         ?PR?FC_CHANGE_TO_6500?DDCCI
            BANK6   DF85H     0018H     UNIT         ?PR?FC_CHANGE_TO_5800?DDCCI
            BANK6   DF9DH     0018H     UNIT         ?PR?FC_CHANGE_TO_7500?DDCCI
            BANK6   DFB5H     0018H     UNIT         ?PR?FC_SAVE_6500?DDCCI
            BANK6   DFCDH     0018H     UNIT         ?PR?FC_SAVE_5800?DDCCI
            BANK6   DFE5H     0018H     UNIT         ?PR?FC_SAVE_7500?DDCCI
            BANK6   DFFDH     0018H     UNIT         ?PR?FC_EXIT_BURNIN?DDCCI
            BANK6   E015H     0018H     UNIT         ?PR?FC_EXIT_FACTORY?DDCCI
            BANK6   E02DH     0018H     UNIT         ?PR?FC_EXIT_AUTOALIGN?DDCCI
            BANK6   E045H     0018H     UNIT         ?PR?FC_DVIFUNC_OFF?DDCCI
            BANK6   E05DH     0018H     UNIT         ?PR?FC_AUDIOFUNC_OFF?DDCCI
            BANK6   E075H     0018H     UNIT         ?PR?FC_DCRFUNC_OFF?DDCCI
            BANK6   E08DH     0018H     UNIT         ?PR?FC_SOURCE_DVI?DDCCI
            BANK6   E0A5H     0017H     UNIT         ?PR?FC_AUTO_COLOR?DDCCI
            BANK6   E0BCH     0017H     UNIT         ?PR?FC_CHANGE_TO_9300?DDCCI
            BANK6   E0D3H     0017H     UNIT         ?PR?FC_INIT_EEPROM?DDCCI
            BANK6   E0EAH     0017H     UNIT         ?PR?FC_SAVE_9300?DDCCI
            BANK6   E101H     0017H     UNIT         ?PR?FC_BRICONT_DEFAULT?DDCCI
            BANK6   E118H     0017H     UNIT         ?PR?FC_ENTER_BURNIN?DDCCI
            BANK6   E12FH     0017H     UNIT         ?PR?FC_ENTER_FACTORY?DDCCI
            BANK6   E146H     0017H     UNIT         ?PR?FC_ENTER_AUTOALIGN?DDCCI
            BANK6   E15DH     0017H     UNIT         ?PR?FC_DVIFUNC_ON?DDCCI
            BANK6   E174H     0017H     UNIT         ?PR?FC_AUDIOFUNC_ON?DDCCI
            BANK6   E18BH     0017H     UNIT         ?PR?FC_DCRFUNC_ON?DDCCI
            BANK6   E1A2H     0017H     UNIT         ?PR?FC_SOURCE_VGA?DDCCI
            BANK6   E1B9H     0017H     UNIT         ?PR?INITFONT_JAPAN_TABLE1?OSDFONT_JAPAN
            BANK6   E1D0H     0017H     UNIT         ?PR?INITFONT_JAPAN_TABLE2?OSDFONT_JAPAN
            BANK6   E1E7H     0014H     UNIT         ?PR?FACTORYUNSELECT?FOSDVIEW
            BANK6   E1FBH     0013H     UNIT         ?PR?FC_READ_R_GAIN?DDCCI
            BANK6   E20EH     0013H     UNIT         ?PR?FC_READ_G_GAIN?DDCCI
            BANK6   E221H     0013H     UNIT         ?PR?FC_READ_B_GAIN?DDCCI
BL51 BANKED LINKER/LOCATER V6.22                                                      01/06/2017  14:57:29  PAGE 61


            BANK6   E234H     0013H     UNIT         ?PR?FC_READ_CONTRAST?DDCCI
            BANK6   E247H     0013H     UNIT         ?PR?FC_READ_BRIGHTNESS?DDCCI
            BANK6   E25AH     0013H     UNIT         ?PR?FC_ADJUST_R_GAIN?DDCCI
            BANK6   E26DH     0013H     UNIT         ?PR?FC_ADJUST_G_GAIN?DDCCI
            BANK6   E280H     0013H     UNIT         ?PR?FC_ADJUST_B_GAIN?DDCCI
            BANK6   E293H     0013H     UNIT         ?PR?FC_ADJUST_CONTRAST?DDCCI
            BANK6   E2A6H     0013H     UNIT         ?PR?FC_ADJUST_BRIGHTNESS?DDCCI
            BANK6   E2B9H     0013H     UNIT         ?PR?FC_ADJUST_LANGUAGE?DDCCI
            BANK6   E2CCH     0012H     UNIT         ?PR?OSDAPI_DISABLESPLIT?OSDAPI
            BANK6   E2DEH     0012H     UNIT         ?PR?FACTORYSELECT?FOSDVIEW
            BANK6   E2F0H     0011H     UNIT         ?PR?_OSDAPI_GETATTRIBUTE?OSDAPI
            BANK6   E301H     0011H     UNIT         ?PR?_OSDAPI_ROTATEOSDPOSITION?OSDAPI
            BANK6   E312H     000FH     UNIT         ?PR?_SENDNULLCMD?DDCCI
            BANK6   E321H     000FH     UNIT         ?PR?REPLYNA?DDCCI
            BANK6   E330H     000FH     UNIT         ?PR?_OSDAPI_SELOSDWIN?OSDAPI
            BANK6   E33FH     000DH     UNIT         ?PR?INITSR?SR
            BANK6   E34CH     000DH     UNIT         ?PR?_OSDAPI_SETALIGNTYPE?OSDAPI
            BANK6   E359H     000DH     UNIT         ?PR?_FACTORYVALUEUP?FOSDVIEW
            BANK6   E366H     000DH     UNIT         ?PR?_FACTORYVALUEDOWN?FOSDVIEW
            BANK6   E373H     000CH     UNIT         ?PR?OSDFACTORYEXITITM?FOSDVIEW
            BANK6   E37FH     000BH     UNIT         ?PR?_OSDAPI_SETOSDWINSIZEUNIT?OSDAPI
            BANK6   E38AH     000AH     UNIT         ?PR?_SETSRBLOCKONOFF?SR
            BANK6   E394H     0009H     UNIT         ?PR?LOADGAMA_BYPASS?GAMA_BYPASS
            BANK6   E39DH     0009H     UNIT         ?PR?LOADGAMA_1?GAMA_1
            BANK6   E3A6H     0008H     UNIT         ?PR?OSDAPI_GETALIGNTYPE?OSDAPI
            BANK6   E3AEH     0008H     UNIT         ?PR?_OSDAPI_SETINDENTINDEX?OSDAPI_INDENT
            BANK6   E3B6H     0007H     UNIT         ?PR?DDCCIUPDATENOTICE?DDCCI
            BANK6   E3BDH     0006H     UNIT         ?PR?_OSDAPI_SETOSDWIDTH?OSDAPI
            BANK6   E3C3H     0006H     UNIT         ?PR?_OSDAPI_SETOSDHEIGHT?OSDAPI
            BANK6   E3C9H     0006H     UNIT         ?PR?OSDAPI_GETOSDWIDTH?OSDAPI
            BANK6   E3CFH     0006H     UNIT         ?PR?OSDAPI_GETOSDHEIGHT?OSDAPI
            BANK6   E3D5H     0006H     UNIT         ?PR?OSDAPI_GETOSDFONTWIDTH?OSDAPI
            BANK6   E3DBH     0006H     UNIT         ?PR?OSDAPI_GETOSDFONTHEIGHT?OSDAPI
            BANK6   E3E1H     0005H     UNIT         ?PR?_OSDAPI_SETINDENTWIDTH?OSDAPI_INDENT
            BANK6   E3E6H     0003H     UNIT         ?PR?_SETSRHTOTAL?SR
            BANK6   E3E9H     0003H     UNIT         ?PR?DDCCITIMERROUTINE?DDCCICTRL
            BANK6   E3ECH     0003H     UNIT         ?PR?_FINDTABLE_JAPAN?OSDFONT_JAPAN

            * * * * * * *   C O D E   B A N K   7   * * * * * * *
                    0000H     0016H                  *** GAP ***
            BANK7   0016H     0002H     UNIT         ?PR?_OSDISMAINITEMVALID?OSDVIEW2
                    0018H     4DE6H                  *** GAP ***
            BANK7   4DFEH     0001H     UNIT         ?PR?_OSDUPDATEAUTOTUNEBAR?OSDVIEW2
            BANK7   4DFFH     0001H     UNIT         ?PR?OSDFOCUSSENSEYE?OSDVIEW2
                    4E00H     0200H                  *** GAP ***
            BANK7   5000H     00D8H     UNIT         ?CO?OSDVIEW2
            BANK7   50D8H     0125H     UNIT         ?CO?HDCPAPI
            BANK7   51FDH     0420H     UNIT         ?CO?GAMMA
            BANK7   561DH     0C0AH     UNIT         ?CO?OD
            BANK7   6227H     1E63H     UNIT         ?CO?OSDINDEX2
            BANK7   808AH     09A6H     UNIT         ?PR?OSDVIEW2
            BANK7   8A30H     03DEH     UNIT         ?PR?_OSDSHOWBIGWIN?OSDVIEW2
            BANK7   8E0EH     0374H     UNIT         ?PR?_OSDSHOWHOOKICON?OSDVIEW2
            BANK7   9182H     035AH     UNIT         ?PR?OSDUPDATEKEYINFO?OSDVIEW2
            BANK7   94DCH     0301H     UNIT         ?PR?_OSDCHECKNONBLINKITEM?OSDVIEW2
            BANK7   97DDH     0241H     UNIT         ?PR?_OSDSHOWSLIDERBAR?OSDVIEW2
            BANK7   9A1EH     0217H     UNIT         ?PR?_OSDBLINKTOPPAGEBUTTON?OSDVIEW2
BL51 BANKED LINKER/LOCATER V6.22                                                      01/06/2017  14:57:29  PAGE 62


            BANK7   9C35H     020DH     UNIT         ?PR?_OSDDRAWTRIANICON?OSDVIEW2
            BANK7   9E42H     01E3H     UNIT         ?PR?_OSDSHOWSELECTPAGEICON?OSDVIEW2
            BANK7   A025H     01E3H     UNIT         ?PR?_OSDUPDATESELECTPAGEICON_RIGHT?OSDVIEW2
            BANK7   A208H     01CDH     UNIT         ?PR?INITHDCPTRIMKEY?HDCP
            BANK7   A3D5H     01CBH     UNIT         ?PR?_OSDSHOWBENQMAINFRAME?OSDVIEW2
            BANK7   A5A0H     01B9H     UNIT         ?PR?_OSDUPDATESELECTPAGEICON_LEFT?OSDVIEW2
            BANK7   A759H     018DH     UNIT         ?PR?_OSDCLRLAYER1MENU?OSDVIEW2
            BANK7   A8E6H     018DH     UNIT         ?PR?_OSDSHOWSTRINGSEPARATER?OSDVIEW2
            BANK7   AA73H     0181H     UNIT         ?PR?_OSDSHOWCOMPONENTTIMINGRESOLUTION?OSDVIEW2
            BANK7   ABF4H     0180H     UNIT         ?PR?OSDRESHOWMENU?OSDVIEW2
            BANK7   AD74H     0174H     UNIT         ?PR?_OSDFOCUSMAIN?OSDVIEW2
            BANK7   AEE8H     0174H     UNIT         ?PR?_OSDSHOWCURRENTRESOLUTION?OSDVIEW2
            BANK7   B05CH     0156H     UNIT         ?PR?_OSDUNSELECTLAYER3ITEM?OSDVIEW2
            BANK7   B1B2H     0148H     UNIT         ?PR?OSDCUSTOMERMENUDOWN?OSDVIEW2
            BANK7   B2FAH     013DH     UNIT         ?PR?OSDSHOWTOPPAGEMENU?OSDVIEW2
            BANK7   B437H     013BH     UNIT         ?PR?_OSDUNSELECTLAYER2ITEM?OSDVIEW2
            BANK7   B572H     0138H     UNIT         ?PR?_OSDSHOWDIALOGFRAME?OSDVIEW2
            BANK7   B6AAH     0136H     UNIT         ?PR?_OSDSHOWMAINMENUICON?OSDVIEW2
            BANK7   B7E0H     0131H     UNIT         ?PR?OSDCUSTOMERMENUUP?OSDVIEW2
            BANK7   B911H     0130H     UNIT         ?PR?_OSDCLRLAYER2MENU?OSDVIEW2
            BANK7   BA41H     012CH     UNIT         ?PR?_OSDSHOWCUSKEYHOOK?OSDVIEW2
            BANK7   BB6DH     0120H     UNIT         ?PR?_OSDPAGEMAINFRAME_RIGHT?OSDVIEW2
            BANK7   BC8DH     010EH     UNIT         ?PR?_OSDUNSELECTLAYER1ITEM?OSDVIEW2
            BANK7   BD9BH     010CH     UNIT         ?PR?_OSDSHOWOPTIMUMRESOLUTION?OSDVIEW2
            BANK7   BEA7H     0107H     UNIT         ?PR?_OSDSHOWLAYER4MENU?OSDVIEW2
            BANK7   BFAEH     0107H     UNIT         ?PR?_OSDISLAYER3ITEMVALID?OSDVIEW2
            BANK7   C0B5H     0105H     UNIT         ?PR?_OSDSHOWLAYER3SLIDERBAR?OSDVIEW2
            BANK7   C1BAH     00E8H     UNIT         ?PR?OSDMOVEPOSITION?OSDVIEW2
            BANK7   C2A2H     00E7H     UNIT         ?PR?_OSDUPDATEARROWICON?OSDVIEW2
            BANK7   C389H     00E6H     UNIT         ?PR?_OSDEXITITMS?OSDVIEW2
            BANK7   C46FH     00E1H     UNIT         ?PR?_OSDPAGEMAINFRAME?OSDVIEW2
            BANK7   C550H     00E1H     UNIT         ?PR?_OSDSHOWTOPPAGESTRING?OSDVIEW2
            BANK7   C631H     00D7H     UNIT         ?PR?_OSDSHOWSMALLWIN?OSDVIEW2
            BANK7   C708H     00C8H     UNIT         ?PR?_WRITEHDCPKEY?HDCPAPI
            BANK7   C7D0H     00C6H     UNIT         ?PR?_OSDISSUBITEMVALID?OSDVIEW2
            BANK7   C896H     00A9H     UNIT         ?PR?OSDCHECKHOOKICON?OSDVIEW2
            BANK7   C93FH     00A1H     UNIT         ?PR?_OSDCLRLAYER3MENU?OSDVIEW2
            BANK7   C9E0H     00A1H     UNIT         ?PR?_OSDDRAWLAYERSEPARATERLINE?OSDVIEW2
            BANK7   CA81H     00A0H     UNIT         ?PR?_OSDSHOWNUM2?OSDVIEW2
            BANK7   CB21H     009FH     UNIT         ?PR?OSDSHOWMAINMENU?OSDVIEW2
            BANK7   CBC0H     0097H     UNIT         ?PR?OSDSENSEYEDEMOUP?OSDVIEW2
            BANK7   CC57H     0095H     UNIT         ?PR?OSDSHOWDISPLAYMODEMENU?OSDVIEW2
            BANK7   CCECH     0095H     UNIT         ?PR?_OSDSHOWNUM?OSDVIEW2
            BANK7   CD81H     0091H     UNIT         ?PR?OSDTURNONOSD?OSDVIEW2
            BANK7   CE12H     0090H     UNIT         ?PR?_STOREHDCP?HDCP
            BANK7   CEA2H     008FH     UNIT         ?PR?_OSDBLINKSELECTPAGEBUTTON?OSDVIEW2
            BANK7   CF31H     008AH     UNIT         ?PR?_ODAPI_LOADOD?ODAPI
            BANK7   CFBBH     0088H     UNIT         ?PR?_OSDSHOWTRIANICON?OSDVIEW2
            BANK7   D043H     0087H     UNIT         ?PR?_OSDEXITSUBITMS?OSDVIEW2
            BANK7   D0CAH     0081H     UNIT         ?PR?_OSDSHOWSELECTPAGEMAINFRAME?OSDVIEW2
            BANK7   D14BH     0080H     UNIT         ?PR?OSDPERFORMNORMAL?OSDVIEW2
            BANK7   D1CBH     007FH     UNIT         ?PR?_OSDDRAWCUSTOMMENUFRAME?OSDVIEW2
            BANK7   D24AH     007FH     UNIT         ?PR?_OSDCLEARLAYER?OSDVIEW2
            BANK7   D2C9H     007CH     UNIT         ?PR?OSDSHOWSOURCEMENU?OSDVIEW2
            BANK7   D345H     0077H     UNIT         ?PR?_OSDUNSELECTLAYER4ITEM?OSDVIEW2
            BANK7   D3BCH     0076H     UNIT         ?PR?_OSDSHOWRGAIN?OSDVIEW2
            BANK7   D432H     0076H     UNIT         ?PR?_OSDSHOWGGAIN?OSDVIEW2
BL51 BANKED LINKER/LOCATER V6.22                                                      01/06/2017  14:57:29  PAGE 63


            BANK7   D4A8H     0074H     UNIT         ?PR?_OSDSHOWBGAIN?OSDVIEW2
            BANK7   D51CH     0071H     UNIT         ?PR?_OSDSHOWVOLUME?OSDVIEW2
            BANK7   D58DH     006EH     UNIT         ?PR?HDCP
            BANK7   D5FBH     006EH     UNIT         ?PR?_OSDSELECTLAYER1ICON?OSDVIEW2
            BANK7   D669H     006EH     UNIT         ?PR?_OSDSHOWLAYERSEPARATER?OSDVIEW2
            BANK7   D6D7H     006AH     UNIT         ?PR?_OSDSHOWLAYER3ITEM?OSDVIEW2
            BANK7   D741H     0067H     UNIT         ?PR?OSDSHOWPICTUREMODEMENU?OSDVIEW2
            BANK7   D7A8H     004FH     UNIT         ?PR?_OSDSHOWLOWBLUELIGHTSTRINGS?OSDVIEW2
                    D7F7H     01C5H                  *** GAP ***
            BANK7   D9BCH     0060H     UNIT         ?PR?_OSDUNSELECTDIALOGITEM?OSDVIEW2
            BANK7   DA1CH     005FH     UNIT         ?PR?OSDCLEARKEYCOLOR?OSDVIEW2
            BANK7   DA7BH     005BH     UNIT         ?PR?_OSDSHOWNOTICEICON?OSDVIEW2
            BANK7   DAD6H     0059H     UNIT         ?PR?_OSDCHECKKEYINFO?OSDVIEW2
            BANK7   DB2FH     0059H     UNIT         ?PR?_OSDSHOWUPDOWNARROWICON?OSDVIEW2
            BANK7   DB88H     0056H     UNIT         ?PR?OSDSHOWMUTEMENU?OSDVIEW2
            BANK7   DBDEH     0052H     UNIT         ?PR?OSDSHOWOOL?OSDVIEW2
            BANK7   DC30H     0051H     UNIT         ?PR?CHECKHDCPCHKSUM?HDCP
            BANK7   DC81H     0051H     UNIT         ?PR?_OSDUPDATECUSTOMHOOK?OSDVIEW2
            BANK7   DCD2H     004EH     UNIT         ?PR?OSDASPECTRATIOUP?OSDVIEW2
            BANK7   DD20H     004DH     UNIT         ?PR?OSDINITIALIZE?OSDVIEW2
            BANK7   DD6DH     004DH     UNIT         ?PR?OSDSHOWINPUTMENU?OSDVIEW2
            BANK7   DDBAH     004CH     UNIT         ?PR?_OSDINITFRAME?OSDVIEW2
            BANK7   DE06H     004BH     UNIT         ?PR?_OSDCLEARITEMSTRING?OSDVIEW2
            BANK7   DE51H     004AH     UNIT         ?PR?_OSDCLEARITEMHOOKICON?OSDVIEW2
            BANK7   DE9BH     004AH     UNIT         ?PR?OSDSHOWTITLESTRING?OSDVIEW2
            BANK7   DEE5H     0049H     UNIT         ?PR?LOADGAMMA?GAMMA
            BANK7   DF2EH     0049H     UNIT         ?PR?OSDSHOWVOLUMEMENU?OSDVIEW2
            BANK7   DF77H     0048H     UNIT         ?PR?OSDSHOWBRIGHTNESSMENU?OSDVIEW2
            BANK7   DFBFH     0048H     UNIT         ?PR?OSDSHOWCONTRASTMENU?OSDVIEW2
            BANK7   E007H     0048H     UNIT         ?PR?OSDASPECTRATIODOWN?OSDVIEW2
            BANK7   E04FH     0048H     UNIT         ?PR?_OSDCLEARFRAMEBORDER?OSDVIEW2
            BANK7   E097H     0046H     UNIT         ?PR?OSDSHOWBURNING?OSDVIEW2
            BANK7   E0DDH     0046H     UNIT         ?PR?OSDSHOWNOSYNC?OSDVIEW2
            BANK7   E123H     0046H     UNIT         ?PR?OSDSHOWNOCABLE?OSDVIEW2
            BANK7   E169H     0045H     UNIT         ?PR?_ODAPI_SETMCTHRESHOLD?ODAPI
            BANK7   E1AEH     0044H     UNIT         ?PR?_OSDCLEARFRAME?OSDVIEW2
            BANK7   E1F2H     0042H     UNIT         ?PR?OSDSHOWINPUTICON?OSDVIEW2
            BANK7   E234H     0042H     UNIT         ?PR?OSDSHOWAUTOICON?OSDVIEW2
            BANK7   E276H     003FH     UNIT         ?PR?OSDPERFORMAUTOTUNE?OSDVIEW2
            BANK7   E2B5H     003FH     UNIT         ?PR?OSDCUSTVOLUMEUP?OSDVIEW2
            BANK7   E2F4H     003BH     UNIT         ?PR?_SETODMODE?OD
            BANK7   E32FH     003AH     UNIT         ?PR?OSDCHECKBARADJITEM?OSDVIEW2
            BANK7   E369H     003AH     UNIT         ?PR?OSDDYNAMICCNUP?OSDVIEW2
            BANK7   E3A3H     003AH     UNIT         ?PR?_OSDDRAWCUSTOMHOOK?OSDVIEW2
            BANK7   E3DDH     0039H     UNIT         ?PR?_GMAPI_LOADPREGAMMA16BIT?GAMMAAPI
            BANK7   E416H     0039H     UNIT         ?PR?_GMAPI_LOADREVGAMMA16BIT?GAMMAAPI
            BANK7   E44FH     0039H     UNIT         ?PR?_OSDISCUSTOMKEYITEMVALID?OSDVIEW2
            BANK7   E488H     0034H     UNIT         ?PR?_OSDUPDATESELECTPAGEICON?OSDVIEW2
            BANK7   E4BCH     0034H     UNIT         ?PR?OSDAUDIOSELECTUP?OSDVIEW2
            BANK7   E4F0H     0034H     UNIT         ?PR?OSDAUDIOSELECTDOWN?OSDVIEW2
            BANK7   E524H     0034H     UNIT         ?PR?OSDCLEARLAYER3?OSDVIEW2
            BANK7   E558H     0032H     UNIT         ?PR?_OSDSHOWDYNAMICCONTRAST?OSDVIEW2
            BANK7   E58AH     0031H     UNIT         ?PR?OSDVOLUMEUP?OSDVIEW2
            BANK7   E5BBH     0029H     UNIT         ?PR?OSDCUSTVOLUMEDOWN?OSDVIEW2
            BANK7   E5E4H     0029H     UNIT         ?PR?OSDVOLUMEDOWN?OSDVIEW2
            BANK7   E60DH     0028H     UNIT         ?PR?OSDSHARPNESSDOWN?OSDVIEW2
            BANK7   E635H     0027H     UNIT         ?PR?HDCPAPI
BL51 BANKED LINKER/LOCATER V6.22                                                      01/06/2017  14:57:29  PAGE 64


            BANK7   E65CH     0025H     UNIT         ?PR?OSDSHOWOOR?OSDVIEW2
            BANK7   E681H     0025H     UNIT         ?PR?OSDCONFIRMINPUT?OSDVIEW2
            BANK7   E6A6H     0024H     UNIT         ?PR?OSDDYNAMICCNDOWN?OSDVIEW2
            BANK7   E6CAH     0023H     UNIT         ?PR?_GETCUSTOMEKEYSTATE?OSDVIEW2
            BANK7   E6EDH     0023H     UNIT         ?PR?OSDRGAINDOWN?OSDVIEW2
            BANK7   E710H     0023H     UNIT         ?PR?OSDGGAINDOWN?OSDVIEW2
            BANK7   E733H     0023H     UNIT         ?PR?OSDBGAINDOWN?OSDVIEW2
            BANK7   E756H     0022H     UNIT         ?PR?ODAPI
            BANK7   E778H     0022H     UNIT         ?PR?OSDCONTRASTDOWN?OSDVIEW2
            BANK7   E79AH     0022H     UNIT         ?PR?OSDCUSTCONTRASTDOWN?OSDVIEW2
            BANK7   E7BCH     0022H     UNIT         ?PR?OSDCOLORHUEDOWN?OSDVIEW2
            BANK7   E7DEH     0022H     UNIT         ?PR?OSDCOLORSATURATIONDOWN?OSDVIEW2
            BANK7   E800H     0021H     UNIT         ?PR?INITHDCP?HDCP
            BANK7   E821H     0021H     UNIT         ?PR?OSDGETCUSTOMKEYPAGE1NUM?OSDVIEW2
            BANK7   E842H     0020H     UNIT         ?PR?OSDBCOLORFORMATUP?OSDVIEW2
            BANK7   E862H     0020H     UNIT         ?PR?OSDBCOLORFORMATDOWN?OSDVIEW2
            BANK7   E882H     001FH     UNIT         ?PR?OSDBRIGHTNESSDOWN?OSDVIEW2
            BANK7   E8A1H     001FH     UNIT         ?PR?OSDCUSTBRIGHTNESSDOWN?OSDVIEW2
            BANK7   E8C0H     001FH     UNIT         ?PR?OSDCONFIRMINPUTDVI?OSDVIEW2
            BANK7   E8DFH     001FH     UNIT         ?PR?OSDCONFIRMINPUTHDMI?OSDVIEW2
            BANK7   E8FEH     001FH     UNIT         ?PR?OSDCONFIRMINPUTDP?OSDVIEW2
            BANK7   E91DH     001EH     UNIT         ?PR?LOADPREGAMMA?GAMMA
            BANK7   E93BH     001EH     UNIT         ?PR?LOADREVGAMMA?GAMMA
            BANK7   E959H     001EH     UNIT         ?PR?OSDFOCUSINPUT?OSDVIEW2
            BANK7   E977H     001EH     UNIT         ?PR?OSDSHARPNESSUP?OSDVIEW2
            BANK7   E995H     001EH     UNIT         ?PR?OSDBFMENUITMUP?OSDVIEW2
            BANK7   E9B3H     001EH     UNIT         ?PR?OSDBFMENUITMDN?OSDVIEW2
            BANK7   E9D1H     001DH     UNIT         ?PR?OSDCLOSED?OSDVIEW2
            BANK7   E9EEH     001CH     UNIT         ?PR?OSDCONFIRMRECALL?OSDVIEW2
            BANK7   EA0AH     001BH     UNIT         ?PR?LOADDEFAULTTRIM?HDCP
            BANK7   EA25H     001BH     UNIT         ?PR?OSDRGAINUP?OSDVIEW2
            BANK7   EA40H     001BH     UNIT         ?PR?OSDGGAINUP?OSDVIEW2
            BANK7   EA5BH     001BH     UNIT         ?PR?OSDBGAINUP?OSDVIEW2
            BANK7   EA76H     001AH     UNIT         ?PR?OSDCONTRASTUP?OSDVIEW2
            BANK7   EA90H     001AH     UNIT         ?PR?OSDCUSTCONTRASTUP?OSDVIEW2
            BANK7   EAAAH     001AH     UNIT         ?PR?OSDCOLORHUEUP?OSDVIEW2
            BANK7   EAC4H     001AH     UNIT         ?PR?OSDCOLORSATURATIONUP?OSDVIEW2
            BANK7   EADEH     0019H     UNIT         ?PR?OSDAUDIOSELECT?OSDVIEW2
            BANK7   EAF7H     0018H     UNIT         ?PR?ODAPI_ISODRESET?ODAPI
            BANK7   EB0FH     0018H     UNIT         ?PR?STARTHDCPSTORING?HDCP
            BANK7   EB27H     0018H     UNIT         ?PR?OSDUSERUPDATE?OSDVIEW2
            BANK7   EB3FH     0018H     UNIT         ?PR?OSDTMGUPDATE?OSDVIEW2
            BANK7   EB57H     0018H     UNIT         ?PR?OSDSYSUPDATE?OSDVIEW2
            BANK7   EB6FH     0018H     UNIT         ?PR?OSDCALUPDATE?OSDVIEW2
            BANK7   EB87H     0018H     UNIT         ?PR?OSDGAMMAUP?OSDVIEW2
            BANK7   EB9FH     0017H     UNIT         ?PR?OSDBRIGHTNESSUP?OSDVIEW2
            BANK7   EBB6H     0017H     UNIT         ?PR?OSDCUSTBRIGHTNESSUP?OSDVIEW2
            BANK7   EBCDH     0015H     UNIT         ?PR?ODAPI_ENABLEOD?ODAPI
            BANK7   EBE2H     0015H     UNIT         ?PR?_OSDSETPOSITION?OSDVIEW2
            BANK7   EBF7H     0014H     UNIT         ?PR?ISCUSTOMMENUSLIDER?OSDVIEW2
            BANK7   EC0BH     0014H     UNIT         ?PR?OSDHDMIRGBPCRANGEUP?OSDVIEW2
            BANK7   EC1FH     0014H     UNIT         ?PR?OSDRESNOTICEUP?OSDVIEW2
            BANK7   EC33H     0014H     UNIT         ?PR?OSDRESNOTICEDOWN?OSDVIEW2
            BANK7   EC47H     0013H     UNIT         ?PR?GAMMAAPI
            BANK7   EC5AH     0013H     UNIT         ?PR?OSDFOCUSGAMMA?OSDVIEW2
            BANK7   EC6DH     0013H     UNIT         ?PR?OSDFOCUSCLRTMP?OSDVIEW2
            BANK7   EC80H     0012H     UNIT         ?PR?ENABLEHDCP?HDCPAPI
BL51 BANKED LINKER/LOCATER V6.22                                                      01/06/2017  14:57:29  PAGE 65


            BANK7   EC92H     0012H     UNIT         ?PR?OSDGAMMADOWN?OSDVIEW2
            BANK7   ECA4H     0012H     UNIT         ?PR?OSDFOCUSOVERSCAN?OSDVIEW2
            BANK7   ECB6H     0012H     UNIT         ?PR?OSDAUDIOMUTEUP?OSDVIEW2
            BANK7   ECC8H     0011H     UNIT         ?PR?_ODAPI_SETMCONOFF?ODAPI
            BANK7   ECD9H     0010H     UNIT         ?PR?_OSDSHOWOD?OSDVIEW2
            BANK7   ECE9H     0010H     UNIT         ?PR?OSDFOCUSDDCCI?OSDVIEW2
            BANK7   ECF9H     0010H     UNIT         ?PR?OSDFOCUSRESNOTICE?OSDVIEW2
            BANK7   ED09H     0010H     UNIT         ?PR?OSDHDMIRGBPCRANGEDOWN?OSDVIEW2
            BANK7   ED19H     0010H     UNIT         ?PR?OSDDDCCIUP?OSDVIEW2
            BANK7   ED29H     0010H     UNIT         ?PR?OSDDDCCIDOWN?OSDVIEW2
            BANK7   ED39H     000FH     UNIT         ?PR?_OSDSETBFMENUITM?OSDVIEW2
            BANK7   ED48H     000FH     UNIT         ?PR?OSDSHOWSMARREMINDER?OSDVIEW2
            BANK7   ED57H     000FH     UNIT         ?PR?OSDSHOWSENSEYEDEMO?OSDVIEW2
            BANK7   ED66H     000FH     UNIT         ?PR?OSDDISABLELAYERWINDOW?OSDVIEW2
            BANK7   ED75H     000EH     UNIT         ?PR?OSDFOCUSPICMODE?OSDVIEW2
            BANK7   ED83H     000DH     UNIT         ?PR?ODAPI_DISABLEOD?ODAPI
            BANK7   ED90H     000DH     UNIT         ?PR?OSDCOLORTEMPUP?OSDVIEW2
            BANK7   ED9DH     000DH     UNIT         ?PR?OSDCOLORTEMPDOWN?OSDVIEW2
            BANK7   EDAAH     000CH     UNIT         ?PR?GAMMA
            BANK7   EDB6H     000CH     UNIT         ?PR?OSDODUP?OSDVIEW2
            BANK7   EDC2H     000CH     UNIT         ?PR?OSDODDOWN?OSDVIEW2
            BANK7   EDCEH     000BH     UNIT         ?PR?_OSDSETASPECTRATIO?OSDVIEW2
            BANK7   EDD9H     000AH     UNIT         ?PR?FORDEMOHDCPCOMPILERCODEPASS?HDCPAPI
            BANK7   EDE3H     000AH     UNIT         ?PR?FORODCOMPILERCODEPASS?OD
            BANK7   EDEDH     000AH     UNIT         ?PR?OSDSHOWTOPPAGEMAINFRAME?OSDVIEW2
            BANK7   EDF7H     000AH     UNIT         ?PR?OSDFOCUSAMA?OSDVIEW2
            BANK7   EE01H     000AH     UNIT         ?PR?OSDFOCUSCUSTKEY1?OSDVIEW2
            BANK7   EE0BH     000AH     UNIT         ?PR?OSDFOCUSCUSTKEY2?OSDVIEW2
            BANK7   EE15H     000AH     UNIT         ?PR?OSDFOCUSCUSTKEY3?OSDVIEW2
            BANK7   EE1FH     000AH     UNIT         ?PR?OSDFOCUSAUTOPWROFF?OSDVIEW2
            BANK7   EE29H     000AH     UNIT         ?PR?OSDAUTOPOWOFFUP?OSDVIEW2
            BANK7   EE33H     0009H     UNIT         ?PR?_SETRESHOWMENUIDX?OSDVIEW2
            BANK7   EE3CH     0009H     UNIT         ?PR?OSDFOCUSDISPLAYMODE?OSDVIEW2
            BANK7   EE45H     0009H     UNIT         ?PR?OSDFOCUSCOLORFORMAT?OSDVIEW2
            BANK7   EE4EH     0009H     UNIT         ?PR?OSDFOCUSHDMIRGBPCRANGE?OSDVIEW2
            BANK7   EE57H     0009H     UNIT         ?PR?OSDAUTOPOWOFFDOWN?OSDVIEW2
            BANK7   EE60H     0008H     UNIT         ?PR?GMAPI_ENABLEGAMMA?GAMMAAPI
            BANK7   EE68H     0008H     UNIT         ?PR?GMAPI_DISABLEGAMMA?GAMMAAPI
            BANK7   EE70H     0008H     UNIT         ?PR?GMAPI_ENABLEPREGAMMA?GAMMAAPI
            BANK7   EE78H     0008H     UNIT         ?PR?GMAPI_DISABLEPREGAMMA?GAMMAAPI
            BANK7   EE80H     0008H     UNIT         ?PR?GMAPI_ENABLEREVGAMMA?GAMMAAPI
            BANK7   EE88H     0008H     UNIT         ?PR?GMAPI_DISABLEREVGAMMA?GAMMAAPI
            BANK7   EE90H     0008H     UNIT         ?PR?_ODAPI_SETSEPARATEODTESTPATTERNENABLE?OD
            BANK7   EE98H     0008H     UNIT         ?PR?ODAPI_ODTESTPATTERNENABLE?OD
            BANK7   EEA0H     0008H     UNIT         ?PR?ODAPI_ODTESTPATTERNDISABLE?OD
            BANK7   EEA8H     0007H     UNIT         ?PR?RESETKEYINFOSTATUS?OSDVIEW2
            BANK7   EEAFH     0007H     UNIT         ?PR?OSDFOCUSANIMATION?OSDVIEW2
            BANK7   EEB6H     0007H     UNIT         ?PR?OSDFOCUSVOLUME?OSDVIEW2
            BANK7   EEBDH     0007H     UNIT         ?PR?OSDSHOWOSDLOCK?OSDVIEW2
            BANK7   EEC4H     0007H     UNIT         ?PR?OSDDDCCICONFIRM?OSDVIEW2
            BANK7   EECBH     0006H     UNIT         ?PR?OSDFOCUSBR?OSDVIEW2
            BANK7   EED1H     0006H     UNIT         ?PR?OSDFOCUSCN?OSDVIEW2
            BANK7   EED7H     0006H     UNIT         ?PR?OSDFOCUSSHARPNESS?OSDVIEW2
            BANK7   EEDDH     0006H     UNIT         ?PR?OSDFOCUSHUE?OSDVIEW2
            BANK7   EEE3H     0006H     UNIT         ?PR?OSDFOCUSSATURATION?OSDVIEW2
            BANK7   EEE9H     0005H     UNIT         ?PR?OSDFOCUSRESET?OSDVIEW2
            BANK7   EEEEH     0005H     UNIT         ?PR?OSDFOCUSRESETCOLOR?OSDVIEW2
BL51 BANKED LINKER/LOCATER V6.22                                                      01/06/2017  14:57:29  PAGE 66


            BANK7   EEF3H     0005H     UNIT         ?PR?OSDFOCUSDYNAMICCN?OSDVIEW2
            BANK7   EEF8H     0003H     UNIT         ?PR?OSDSETOVERSCAN?OSDVIEW2



OVERLAY MAP OF MODULE:   .\Bin\NT68875_ (MAIN)


SEGMENT                                             BIT_GROUP          DATA_GROUP          IDATA_GROUP         XDATA_GRO
>> UP
  +--> CALLED SEGMENT                            START    LENGTH     START    LENGTH     START    LENGTH     START    LE
>> NGTH
------------------------------------------------------------------------------------------------------------------------
>> ----
?C_C51STARTUP                                    -----    -----      -----    -----      -----    -----      -----    --
>> ---
  +--> ?PR?MAIN?MAIN
  +--> ?C_INITSEG

?PR?MAIN?MAIN                                    -----    -----      -----    -----      -----    -----      -----    --
>> ---
  +--> ?PR?READSCALERID?MAIN
  +--> ?PR?MCUINITIALIZE?MCU
  +--> ?PR?CONFIGHPD?BOARD
  +--> ?PR?_SYSAPI_PERFORMHPDOFF?SYSAPI
  +--> ?PR?RAMINITIALIZE?RAM
  +--> ?PR?SCALERINITIALIZE?SCALER_COMMON
  +--> ?PR?NVRAMLOADDATA?NVRAM
  +--> ?PR?CUSTOM_SYSTEM_INIT?APPCTRL
  +--> ?PR?APPINITSYSTEM?APPCTRL
  +--> ?PR?MODEHANDLER?MODEHANDLER
  +--> ?PR?EVENTHANDLER?EVENTHANDLE
  +--> ?PR?SYSAPI_CHECKSYSPOWER?SYSAPI
  +--> ?PR?_SET6502ACTIVE?SCALER_DP_6502

?PR?READSCALERID?MAIN                            -----    -----      -----    -----      -----    -----      A2E5H    00
>> 08H
  +--> ?PR?MAIN
  +--> ?PR?LOADDEFAULTTRIM?HDCP

?PR?MCUINITIALIZE?MCU                            -----    -----      -----    -----      -----    -----      -----    --
>> ---
  +--> ?PR?MCU
  +--> ?PR?MCUINITIO?MCU
  +--> ?PR?MCUINITADC?MCU
  +--> ?PR?MCUINITMISC?MCU
  +--> ?PR?MCUINITLPD?MCUMISC
  +--> ?PR?FE2P_RAMINITIALIZE?FE2P_API
  +--> ?PR?NVRAMLOADEDID?NVRAM
  +--> ?PR?MCUINITDDC?MCU
  +--> ?PR?MCUCHECKPWRSTABLE?MCU
  +--> ?PR?MCUINITIIC?MCU
  +--> ?PR?MCUINITCORE?MCU

?PR?MCU                                          -----    -----      -----    -----      -----    -----      -----    --
>> ---
  +--> ?PR?_GETUARTTIMER?MCU
BL51 BANKED LINKER/LOCATER V6.22                                                      01/06/2017  14:57:29  PAGE 67


  +--> ?PR?GETMCUTIMER0SPEED?MCU

?PR?GETMCUTIMER0SPEED?MCU                        -----    -----      -----    -----      -----    -----      -----    --
>> ---
  +--> ?CO?MCU

?PR?MCUINITIO?MCU                                -----    -----      -----    -----      -----    -----      -----    --
>> ---
  +--> ?PR?_MCUCFGIOTYPE?MCUIO
  +--> ?PR?_MCUSETIOBYTE?MCUIO
  +--> ?PR?_MCUSETIODIRBYTE?MCUIO

?PR?MCUINITADC?MCU                               -----    -----      -----    -----      -----    -----      -----    --
>> ---
  +--> ?PR?_MCUDISABLEADC?MCUADC
  +--> ?PR?_MCUENABLEADC?MCUADC

?PR?FE2P_RAMINITIALIZE?FE2P_API                  -----    -----      -----    -----      -----    -----      -----    --
>> ---
  +--> ?PR?FE2P_API
  +--> ?PR?_FE2P_SET_SPI_CMD_BUFFER_ADDR?FE2P
  +--> ?PR?_FE2P_INIT?FE2P
  +--> ?PR?FLASH_INITPROTECTION?FE2P_API
  +--> ?PR?FE2P_GET_LIB_VER?FE2P
  +--> ?PR?FE2P_CHECKVALIDBLOCK?FE2P_API
  +--> ?PR?_NVRAMINITIALIZE?NVRAM
  +--> ?PR?_FE2P_PAGEREAD?FE2P

?PR?_FE2P_SET_SPI_CMD_BUFFER_ADDR?FE2P           0020H.0  0000H.2    -----    -----      -----    -----      -----    --
>> ---

?PR?_FE2P_INIT?FE2P                              0020H.0  0000H.1    -----    -----      -----    -----      A2E5H    00
>> 05H
  +--> ?CO?FE2P
  +--> ?PR?FE2P
  +--> ?PR?_FE2P_ACTUALSECTORERASE?FE2P
  +--> ?PR?_FE2P_CHECKFLASHTYPE?FE2P
  +--> ?PR?_FE2P_CUSTOMCMD?FE2P

?PR?FE2P                                         -----    -----      -----    -----      -----    -----      -----    --
>> ---
  +--> ?CO?FE2P

?PR?_FE2P_ACTUALSECTORERASE?FE2P                 0020H.4  0000H.1    -----    -----      -----    -----      A301H    00
>> 02H
  +--> ?PR?FE2P
  +--> ?PR?FE2P_WRITEENABLE?FE2P

?PR?FE2P_WRITEENABLE?FE2P                        0020H.5  0000H.1    -----    -----      -----    -----      -----    --
>> ---

?PR?_FE2P_CHECKFLASHTYPE?FE2P                    0020H.1  0000H.1    -----    -----      -----    -----      A2EAH    00
>> 01H
  +--> ?CO?FE2P
  +--> ?PR?FE2P
  +--> ?PR?_FE2P_CUSTOMCMD?FE2P

BL51 BANKED LINKER/LOCATER V6.22                                                      01/06/2017  14:57:29  PAGE 68


?PR?_FE2P_CUSTOMCMD?FE2P                         0020H.5  0000H.1    -----    -----      -----    -----      A301H    00
>> 0DH
  +--> ?PR?FE2P

?PR?FLASH_INITPROTECTION?FE2P_API                -----    -----      -----    -----      -----    -----      -----    --
>> ---
  +--> ?PR?_FE2P_SETOFFSET?FE2P
  +--> ?PR?FLASH_PROTECTON?FE2P_API

?PR?_FE2P_SETOFFSET?FE2P                         -----    -----      -----    -----      -----    -----      A2E5H    00
>> 04H
  +--> ?PR?FE2P

?PR?FLASH_PROTECTON?FE2P_API                     -----    -----      -----    -----      -----    -----      -----    --
>> ---
  +--> ?PR?PMC_SECTOR_LOCK?FE2P
  +--> ?PR?FE2P_RDSR?FE2P
  +--> ?PR?FLASH_WP_OFF?FE2P_API
  +--> ?PR?_FE2P_SETPROTECT?FE2P
  +--> ?PR?FLASH_WP_ON?FE2P_API

?PR?PMC_SECTOR_LOCK?FE2P                         -----    -----      -----    -----      -----    -----      -----    --
>> ---
  +--> ?PR?_FE2P_ACTUALSECTORERASE?FE2P

?PR?FE2P_RDSR?FE2P                               0020H.3  0000H.1    -----    -----      -----    -----      -----    --
>> ---
  +--> ?CO?FE2P
  +--> ?PR?FE2P
  +--> ?PR?_FE2P_CUSTOMCMD?FE2P

?PR?FLASH_WP_OFF?FE2P_API                        -----    -----      -----    -----      -----    -----      -----    --
>> ---
  +--> ?PR?_MCUSETIOBIT?MCUIO

?PR?_FE2P_SETPROTECT?FE2P                        -----    -----      -----    -----      -----    -----      A2FDH    00
>> 04H
  +--> ?PR?FE2P_MX2026UNPROTECT?FE2P
  +--> ?PR?FE2P
  +--> ?PR?_FE2P_ACTUALSECTORERASE?FE2P

?PR?FE2P_MX2026UNPROTECT?FE2P                    0020H.4  0000H.1    -----    -----      -----    -----      -----    --
>> ---
  +--> ?CO?FE2P
  +--> ?PR?_FE2P_CUSTOMCMD?FE2P

?PR?FLASH_WP_ON?FE2P_API                         -----    -----      -----    -----      -----    -----      -----    --
>> ---
  +--> ?PR?_MCUSETIOBIT?MCUIO

?PR?FE2P_CHECKVALIDBLOCK?FE2P_API                -----    -----      -----    -----      -----    -----      A2EDH    00
>> 01H
  +--> ?PR?_FE2P_BYTEREAD?FE2P

?PR?_FE2P_BYTEREAD?FE2P                          -----    -----      -----    -----      -----    -----      A2EEH    00
>> 05H
  +--> ?PR?FE2P
BL51 BANKED LINKER/LOCATER V6.22                                                      01/06/2017  14:57:29  PAGE 69



?PR?_NVRAMINITIALIZE?NVRAM                       -----    -----      -----    -----      -----    -----      A2E5H    00
>> F6H
  +--> ?CO?NVRAM
  +--> ?PR?NVRAM
  +--> ?PR?_NVRAMREADSYSTEMDATA?NVRAM
  +--> ?PR?GETEMBEDDEDCHECKSUM?EMBEDCHECKSUM
  +--> ?PR?_NVRAMWRITEUSERDATA?NVRAM
  +--> ?PR?_NVRAMWRITECALIBDATA?NVRAM
  +--> ?PR?_NVRAMWRITESYSTEMDATA?NVRAM

?PR?_NVRAMREADSYSTEMDATA?NVRAM                   -----    -----      -----    -----      -----    -----      -----    --
>> ---
  +--> ?PR?_NVRAMREAD?NVRAM

?PR?_NVRAMREAD?NVRAM                             -----    -----      -----    -----      -----    -----      -----    --
>> ---
  +--> ?PR?_FE2P_NVRAMREAD?FE2P_API

?PR?_FE2P_NVRAMREAD?FE2P_API                     -----    -----      -----    -----      -----    -----      A3DBH    00
>> 06H
  +--> ?PR?FE2P_API

?PR?GETEMBEDDEDCHECKSUM?EMBEDCHECKSUM            -----    -----      -----    -----      0054H    0001H      -----    --
>> ---
  +--> ?CO?EMBEDCHECKSUM

?PR?_NVRAMWRITEUSERDATA?NVRAM                    -----    -----      -----    -----      -----    -----      -----    --
>> ---
  +--> ?PR?_NVRAMWRITE?NVRAM

?PR?_NVRAMWRITE?NVRAM                            -----    -----      -----    -----      -----    -----      -----    --
>> ---
  +--> ?PR?_FE2P_NVRAMWRITE?FE2P_API

?PR?_FE2P_NVRAMWRITE?FE2P_API                    -----    -----      -----    -----      -----    -----      A3DBH    00
>> 09H
  +--> ?PR?FE2P_API

?PR?_NVRAMWRITECALIBDATA?NVRAM                   -----    -----      -----    -----      -----    -----      -----    --
>> ---
  +--> ?PR?_NVRAMWRITE?NVRAM

?PR?_NVRAMWRITESYSTEMDATA?NVRAM                  -----    -----      -----    -----      -----    -----      -----    --
>> ---
  +--> ?PR?_NVRAMWRITE?NVRAM

?PR?_FE2P_PAGEREAD?FE2P                          -----    -----      -----    -----      -----    -----      A2E5H    00
>> 0AH
  +--> ?PR?FE2P

?PR?NVRAMLOADEDID?NVRAM                          -----    -----      -----    -----      -----    -----      -----    --
>> ---
  +--> ?PR?_NVRAMREADDVIEDID?NVRAM
  +--> ?PR?_NVRAMREADHDMIEDID?NVRAM

?PR?_NVRAMREADDVIEDID?NVRAM                      -----    -----      -----    -----      -----    -----      A2E5H    00
BL51 BANKED LINKER/LOCATER V6.22                                                      01/06/2017  14:57:29  PAGE 70


>> 05H
  +--> ?PR?NVRAM
  +--> ?PR?_NVRAMREAD?NVRAM
  +--> ?PR?_ISEDIDHEADER?NVRAM
  +--> ?CO?NVRAM

?PR?_ISEDIDHEADER?NVRAM                          -----    -----      -----    -----      -----    -----      A2EAH    00
>> 03H
  +--> ?PR?NVRAM
  +--> ?CO?NVRAM

?PR?_NVRAMREADHDMIEDID?NVRAM                     -----    -----      -----    -----      -----    -----      A2E5H    00
>> 03H
  +--> ?PR?NVRAM
  +--> ?PR?_NVRAMREAD?NVRAM
  +--> ?PR?_ISEDIDHEADER?NVRAM
  +--> ?CO?NVRAM

?PR?MCUINITDDC?MCU                               -----    -----      -----    -----      -----    -----      -----    --
>> ---
  +--> ?PR?_MCUDISABLEDDC?MCUDDC
  +--> ?PR?_MCUSETDDC?MCUDDC
  +--> ?PR?_MCUENABLEDDC?MCUDDC

?PR?MCUCHECKPWRSTABLE?MCU                        -----    -----      -----    -----      -----    -----      A2E5H    00
>> 01H
  +--> ?PR?MCUCHECK5V?MCU

?PR?MCUINITIIC?MCU                               -----    -----      -----    -----      -----    -----      -----    --
>> ---
  +--> ?PR?_MCUDISABLEIIC?MCUHWIIC
  +--> ?PR?_MCUSETIIC?MCUHWIIC
  +--> ?PR?_MCUENABLEIIC?MCUHWIIC
  +--> ?PR?_MCUIICPRESENDACK?MCUHWIIC

?PR?MCUINITCORE?MCU                              -----    -----      -----    -----      -----    -----      -----    --
>> ---
  +--> ?PR?MCU
  +--> ?PR?MCUPOWERUPAPLL?MCU

?PR?MCUPOWERUPAPLL?MCU                           -----    -----      -----    -----      -----    -----      -----    --
>> ---
  +--> ?PR?GETCPUCLCOK?MCU
  +--> ?PR?MCU
  +--> ?PR?WAITLDOREADY?MCU

?PR?GETCPUCLCOK?MCU                              -----    -----      -----    -----      -----    -----      -----    --
>> ---
  +--> ?CO?MCU

?PR?WAITLDOREADY?MCU                             -----    -----      -----    -----      -----    -----      -----    --
>> ---
  +--> ?PR?MCU

?PR?CONFIGHPD?BOARD                              -----    -----      -----    -----      -----    -----      -----    --
>> ---
  +--> ?PR?_SC_SETBITDPPPPHY?SCALER_TMDS
BL51 BANKED LINKER/LOCATER V6.22                                                      01/06/2017  14:57:29  PAGE 71



?PR?_SC_SETBITDPPPPHY?SCALER_TMDS                -----    -----      -----    -----      -----    -----      A2FCH    00
>> 05H
  +--> ?PR?_GETTMDSPHYDATA?SCALER_TMDS

?PR?_SYSAPI_PERFORMHPDOFF?SYSAPI                 -----    -----      -----    -----      -----    -----      A2EAH    00
>> 02H
  +--> ?PR?GETCURRINPUTINTERFACE?SCALER_COMMON
  +--> ?PR?DIGI1HPDOFF?BOARD
  +--> ?PR?DIGI2HPDOFF?BOARD
  +--> ?PR?DIGI3HPDOFF?BOARD
  +--> ?PR?DPHPDOFF?BOARD
  +--> ?PR?ISDIGITAL1CONNECT?BOARD
  +--> ?PR?ISDIGITAL2CONNECT?BOARD
  +--> ?PR?ISDIGITAL3CONNECT?BOARD
  +--> ?PR?_SETGLOBALTIMER?MISC
  +--> ?PR?ISDPCONNECT?BOARD

?PR?GETCURRINPUTINTERFACE?SCALER_COMMON          -----    -----      -----    -----      -----    -----      A311H    00
>> 01H
  +--> ?PR?ISZPMODE?SCALER_POWER
  +--> ?PR?GETDPPHYLINKSELECT?SCALER_COMMON
  +--> ?PR?GETTMDSPHYLINKSELECT?SCALER_COMMON

?PR?GETDPPHYLINKSELECT?SCALER_COMMON             -----    -----      -----    -----      -----    -----      -----    --
>> ---
  +--> ?PR?_GETTMDSPHYDATA?SCALER_TMDS

?PR?DIGI1HPDOFF?BOARD                            -----    -----      -----    -----      -----    -----      -----    --
>> ---
  +--> ?PR?_MCUSETIOBIT?MCUIO

?PR?DIGI2HPDOFF?BOARD                            -----    -----      -----    -----      -----    -----      -----    --
>> ---
  +--> ?PR?_MCUSETIOBIT?MCUIO

?PR?DIGI3HPDOFF?BOARD                            -----    -----      -----    -----      -----    -----      -----    --
>> ---
  +--> ?PR?_MCUSETIOBIT?MCUIO

?PR?DPHPDOFF?BOARD                               -----    -----      -----    -----      -----    -----      -----    --
>> ---
  +--> ?PR?_MCUSETIOBIT?MCUIO
  +--> ?PR?DPCONFIGHWHPD?SCALER_DP

?PR?DPCONFIGHWHPD?SCALER_DP                      0020H.3  0000H.1    -----    -----      -----    -----      -----    --
>> ---

?PR?ISDIGITAL1CONNECT?BOARD                      0020H.3  0000H.1    -----    -----      -----    -----      -----    --
>> ---
  +--> ?PR?_MCUGETIOBIT?MCUIO

?PR?ISDIGITAL2CONNECT?BOARD                      0020H.3  0000H.1    -----    -----      -----    -----      -----    --
>> ---

?PR?ISDIGITAL3CONNECT?BOARD                      0020H.3  0000H.1    -----    -----      -----    -----      -----    --
>> ---
BL51 BANKED LINKER/LOCATER V6.22                                                      01/06/2017  14:57:29  PAGE 72


  +--> ?PR?_MCUGETIOBIT?MCUIO

?PR?_SETGLOBALTIMER?MISC                         -----    -----      -----    -----      -----    -----      A2F3H    00
>> 03H
  +--> ?PR?UPDATEGLOBALTIMER?MISC
  +--> ?PR?MISC

?PR?UPDATEGLOBALTIMER?MISC                       -----    -----      002BH    0002H      -----    -----      -----    --
>> ---
  +--> ?PR?GETTIMERTICK?INT
  +--> ?PR?MISC

?PR?GETTIMERTICK?INT                             -----    -----      -----    -----      0058H    0002H      -----    --
>> ---

?PR?ISDPCONNECT?BOARD                            -----    -----      -----    -----      -----    -----      -----    --
>> ---
  +--> ?PR?_MCUGETIOBIT?MCUIO

?PR?RAMINITIALIZE?RAM                            -----    -----      -----    -----      -----    -----      -----    --
>> ---
  +--> ?CO?NVRAM
  +--> ?PR?RAM
  +--> ?CO?PANEL

?PR?SCALERINITIALIZE?SCALER_COMMON               -----    -----      -----    -----      -----    -----      -----    --
>> ---
  +--> ?PR?SETNORMALPOWERMODE?SCALER_POWER
  +--> ?PR?TURNONSCALERMAINPOWER?SCALER_POWER
  +--> ?PR?ZPLATCHDATA?SCALER_POWER
  +--> ?PR?CONFIGHPD?BOARD
  +--> ?PR?_SLEEP?MISC
  +--> ?PR?_SC_SETBYTEDPPPPHY?SCALER_TMDS
  +--> ?PR?ADCINIT?SCALER_ADC
  +--> ?PR?LVDSINIT?SCALER_LVDS
  +--> ?PR?DISPLAYINIT?SCALER_DISPLAY
  +--> ?PR?_TMDSINIT?SCALER_TMDS
  +--> ?PR?_DPINIT?SCALER_DP
  +--> ?PR?CAPINIT?SCALER_CAPTURE
  +--> ?PR?SYNCINIT?SCALER_SYNC
  +--> ?PR?HDMIINIT?SCALER_HDMI
  +--> ?PR?DITHINIT?SCALER_DITHERING
  +--> ?PR?NRINIT?SCALER_NR
  +--> ?PR?_ENABLESCALERPWM?SCALER_PWM
  +--> ?PR?MMUINITIALIZE?SCALER_MMU
  +--> ?PR?EFUSE_MAPPING?SCALER_COMMON
  +--> ?PR?EDP_POWEROFF?SCALER_COMMON

?PR?SETNORMALPOWERMODE?SCALER_POWER              -----    -----      -----    -----      -----    -----      -----    --
>> ---
  +--> ?PR?SCALER_POWER
  +--> ?PR?SCHMITTTRIGGERPOWERON?SCALER_ADC

?PR?_SLEEP?MISC                                  -----    -----      0027H    0004H      -----    -----      -----    --
>> ---
  +--> ?PR?GETTIMERTICK?INT
  +--> ?PR?UPDATEGLOBALTIMER?MISC
BL51 BANKED LINKER/LOCATER V6.22                                                      01/06/2017  14:57:29  PAGE 73



?PR?ADCINIT?SCALER_ADC                           -----    -----      -----    -----      -----    -----      -----    --
>> ---
  +--> ?PR?VGA_POWERON?SCALER_ADC
  +--> ?PR?SCALER_ADC
  +--> ?PR?_WRITESHORTSCALER?SCALERACCESS
  +--> ?PR?SCHMITTTRIGGERPOWERON?SCALER_ADC
  +--> ?PR?_SETADCINPUT?SCALER_ADC

?PR?_SETADCINPUT?SCALER_ADC                      -----    -----      -----    -----      -----    -----      -----    --
>> ---
  +--> ?PR?SCALER_ADC

?PR?LVDSINIT?SCALER_LVDS                         -----    -----      -----    -----      -----    -----      -----    --
>> ---
  +--> ?PR?SCALER_LVDS
  +--> ?PR?SETLVDSCHPOLSWAP?SCALER_LVDS

?PR?DISPLAYINIT?SCALER_DISPLAY                   -----    -----      -----    -----      -----    -----      -----    --
>> ---
  +--> ?PR?ENABLEDPLL?SCALER_DISPLAY
  +--> ?PR?SCALER_DISPLAY
  +--> ?PR?DISPLAYMUTEIMAGE?SCALER_DISPLAY
  +--> ?PR?LOADDEFAULTPANELDATA?SCALER_DISPLAY
  +--> ?PR?SETFREERUNCLK?SCALER_DISPLAY
  +--> ?PR?_SETDCLKSSC?SCALER_DISPLAY

?PR?ENABLEDPLL?SCALER_DISPLAY                    -----    -----      -----    -----      -----    -----      A2E9H    00
>> 01H
  +--> ?PR?SCALER_DISPLAY
  +--> ?PR?_SLEEP?MISC

?PR?LOADDEFAULTPANELDATA?SCALER_DISPLAY          -----    -----      -----    -----      -----    -----      -----    --
>> ---
  +--> ?CO?SCALER_DISPLAY
  +--> ?PR?SCALER_DISPLAY
  +--> ?PR?_WRITESHORTSCALER?SCALERACCESS

?PR?SETFREERUNCLK?SCALER_DISPLAY                 -----    -----      -----    -----      -----    -----      -----    --
>> ---
  +--> ?PR?SCALER_DISPLAY
  +--> ?PR?SETDPLL?SCALER_DISPLAY

?PR?SETDPLL?SCALER_DISPLAY                       -----    -----      -----    -----      -----    -----      A331H    00
>> 04H
  +--> ?PR?SCALER_DISPLAY

?PR?_SETDCLKSSC?SCALER_DISPLAY                   -----    -----      -----    -----      -----    -----      A2E9H    00
>> 01H
  +--> ?PR?_SETDCLKSSCRATIO?SCALER_DISPLAY
  +--> ?PR?_SETDCLKSSCFREQ?SCALER_DISPLAY
  +--> ?PR?ENABLEDCLKSSC?SCALER_DISPLAY

?PR?_SETDCLKSSCRATIO?SCALER_DISPLAY              -----    -----      -----    -----      -----    -----      A2EAH    00
>> 02H
  +--> ?PR?SCALER_DISPLAY

BL51 BANKED LINKER/LOCATER V6.22                                                      01/06/2017  14:57:29  PAGE 74


?PR?_TMDSINIT?SCALER_TMDS                        -----    -----      -----    -----      -----    -----      -----    --
>> ---
  +--> ?PR?_TMDSINITPHY?SCALER_TMDS
  +--> ?PR?DVI_POWERON?SCALER_TMDS
  +--> ?PR?CLEARTMDSTRAINING?SCALER_TMDS

?PR?_TMDSINITPHY?SCALER_TMDS                     -----    -----      -----    -----      -----    -----      A2EFH    00
>> 01H
  +--> ?PR?_SC_SETBYTEDPPPPHY?SCALER_TMDS
  +--> ?PR?_SC_SETBITDPPPPHY?SCALER_TMDS

?PR?CLEARTMDSTRAINING?SCALER_TMDS                -----    -----      -----    -----      -----    -----      -----    --
>> ---
  +--> ?PR?GETTIMERTICK?INT

?PR?_DPINIT?SCALER_DP                            0020H.1  0000H.1    -----    -----      -----    -----      A2E9H    00
>> 03H
  +--> ?PR?DP_POWERON?SCALER_DP
  +--> ?PR?DPCONFIGAUXDETECT?SCALER_DP
  +--> ?CO?SCALER_DP
  +--> ?PR?DP_CONFIGAUX2IICSPEED?SCALER_DP_C...
  +--> ?PR?ISDPTRAININGDONE?SCALER_DP
  +--> ?PR?_LOAD6502ROM?SCALER_DP_6502
  +--> ?PR?_DP_INITPHY?SCALER_DP_COMMON
  +--> ?PR?DP_INITDPCD?SCALER_DP_COMMON
  +--> ?PR?DP_INITDPCONFIGPAGE?SCALER_DP_COMMON

?PR?DP_POWERON?SCALER_DP                         -----    -----      -----    -----      -----    -----      -----    --
>> ---
  +--> ?PR?DP_CLKON?SCALER_DP_COMMON
  +--> ?PR?_DPPHY_POWERON?SCALER_DP_COMMON

?PR?_DPPHY_POWERON?SCALER_DP_COMMON              -----    -----      -----    -----      -----    -----      A2EFH    00
>> 01H
  +--> ?PR?_SC_SETBYTEDPPPPHY?SCALER_TMDS
  +--> ?PR?_DPAUX_SELECT?SCALER_DP_COMMON

?PR?_DPAUX_SELECT?SCALER_DP_COMMON               -----    -----      -----    -----      -----    -----      -----    --
>> ---
  +--> ?PR?_SC_SETBYTEDPPPPHY?SCALER_TMDS

?PR?DPCONFIGAUXDETECT?SCALER_DP                  0020H.2  0000H.1    -----    -----      -----    -----      A2ECH    00
>> 04H
  +--> ?CO?SCALER_DP
  +--> ?PR?ISZPMODE?SCALER_POWER
  +--> ?PR?GETCURRINPUTINTERFACE?SCALER_COMMON
  +--> ?PR?SCALER_DP
  +--> ?PR?ISDPAUXDETECT?SCALER_DP
  +--> ?PR?CLEARDPAUXDETECT?SCALER_DP

?PR?CLEARDPAUXDETECT?SCALER_DP                   -----    -----      -----    -----      -----    -----      -----    --
>> ---
  +--> ?PR?_SLEEP?MISC

?PR?ISDPTRAININGDONE?SCALER_DP                   0020H.2  0000H.1    -----    -----      -----    -----      A2ECH    00
>> 02H
  +--> ?PR?_GETTMDSPHYDATA?SCALER_TMDS
BL51 BANKED LINKER/LOCATER V6.22                                                      01/06/2017  14:57:29  PAGE 75



?PR?_LOAD6502ROM?SCALER_DP_6502                  -----    -----      -----    -----      -----    -----      -----    --
>> ---
  +--> ?PR?SCALER_DP_6502

?PR?SCALER_DP_6502                               -----    -----      -----    -----      -----    -----      -----    --
>> ---
  +--> ?CO?SCALER_DP_6502

?PR?_DP_INITPHY?SCALER_DP_COMMON                 -----    -----      -----    -----      -----    -----      -----    --
>> ---
  +--> ?PR?_DPPHY_POWERON?SCALER_DP_COMMON

?PR?SYNCINIT?SCALER_SYNC                         -----    -----      -----    -----      -----    -----      -----    --
>> ---
  +--> ?PR?_ENABLESYNCPROCFREERUN?SCALER_SYNC

?PR?_ENABLESYNCPROCFREERUN?SCALER_SYNC           -----    -----      -----    -----      -----    -----      -----    --
>> ---
  +--> ?PR?CLEARMODECHANGEFLAG?INT
  +--> ?PR?_WRITESHORTSCALER?SCALERACCESS
  +--> ?PR?GETCURRINPUTINTERFACE?SCALER_COMMON
  +--> ?PR?SETMODECHANGEFLAG?INT

?PR?HDMIINIT?SCALER_HDMI                         -----    -----      -----    -----      -----    -----      -----    --
>> ---
  +--> ?PR?SCALERAUDIOPREMUTE?SCALER_HDMI
  +--> ?PR?GETTIMERTICK?INT
  +--> ?PR?SCALERAUDIOPOWERON?SCALER_HDMI

?PR?SCALERAUDIOPREMUTE?SCALER_HDMI               -----    -----      -----    -----      -----    -----      -----    --
>> ---
  +--> ?PR?GETTIMERTICK?INT

?PR?_ENABLESCALERPWM?SCALER_PWM                  -----    -----      -----    -----      -----    -----      -----    --
>> ---
  +--> ?PR?SCALER_PWM

?PR?MMUINITIALIZE?SCALER_MMU                     -----    -----      -----    -----      -----    -----      -----    --
>> ---
  +--> ?PR?_GETMMUPLLFREQ?SCALER_MMU
  +--> ?PR?SCALER_MMU
  +--> ?PR?_GETMMUDRAMIF?SCALER_MMU
  +--> ?PR?_GETMMUPLL?SCALER_MMU
  +--> ?PR?_GETMMUDQSDELAY?SCALER_MMU
  +--> ?PR?_GETMMUPLLSKEW?SCALER_MMU
  +--> ?PR?MMUPOWERON?SCALER_MMU
  +--> ?PR?MMUCONFIGFIFO?SCALER_MMU
  +--> ?PR?_WRITE3BYTESCALER?SCALERACCESS

?PR?_GETMMUPLLFREQ?SCALER_MMU                    -----    -----      -----    -----      -----    -----      -----    --
>> ---
  +--> ?CO?SCALER_MMU

?PR?_GETMMUDRAMIF?SCALER_MMU                     -----    -----      -----    -----      -----    -----      -----    --
>> ---
  +--> ?CO?SCALER_MMU
BL51 BANKED LINKER/LOCATER V6.22                                                      01/06/2017  14:57:29  PAGE 76



?PR?_GETMMUPLL?SCALER_MMU                        -----    -----      -----    -----      -----    -----      -----    --
>> ---
  +--> ?CO?SCALER_MMU

?PR?_GETMMUDQSDELAY?SCALER_MMU                   -----    -----      -----    -----      -----    -----      -----    --
>> ---
  +--> ?CO?SCALER_MMU

?PR?_GETMMUPLLSKEW?SCALER_MMU                    -----    -----      -----    -----      -----    -----      -----    --
>> ---
  +--> ?CO?SCALER_MMU

?PR?MMUPOWERON?SCALER_MMU                        -----    -----      -----    -----      -----    -----      -----    --
>> ---
  +--> ?PR?_GETMMUPLLFREQ?SCALER_MMU
  +--> ?PR?_GETMMUPLL?SCALER_MMU
  +--> ?PR?_GETMMUDRAMIF?SCALER_MMU

?PR?MMUCONFIGFIFO?SCALER_MMU                     -----    -----      -----    -----      -----    -----      -----    --
>> ---
  +--> ?CO?SCALER_MMU

?PR?_WRITE3BYTESCALER?SCALERACCESS               -----    -----      -----    -----      -----    -----      A2EAH    00
>> 04H
  +--> ?PR?SCALERACCESS

?PR?SCALERACCESS                                 -----    -----      -----    -----      -----    -----      -----    --
>> ---
  +--> ?PR?_READSHORTSCALER?SCALERACCESS

?PR?NVRAMLOADDATA?NVRAM                          -----    -----      -----    -----      -----    -----      -----    --
>> ---
  +--> ?PR?NVRAMISEMPTY?NVRAM
  +--> ?PR?NVRAMCLEARALL?NVRAM
  +--> ?PR?_NVRAMINITIALIZE?NVRAM
  +--> ?PR?ERASETIMESCALE?FE2P_API
  +--> ?PR?NVRAMCLEARTIMING?NVRAM
  +--> ?PR?_NVRAMREADUSERDATA?NVRAM
  +--> ?PR?_NVRAMREADCALIBDATA?NVRAM
  +--> ?PR?_NVRAMREADSYSTEMDATA?NVRAM
  +--> ?PR?NVRAMVALIDCHECK?NVRAM
  +--> ?PR?DECODETIMESCALE?FE2P_API

?PR?NVRAMISEMPTY?NVRAM                           -----    -----      -----    -----      -----    -----      A2E5H    00
>> 32H
  +--> ?CO?NVRAM
  +--> ?PR?NVRAM
  +--> ?PR?GETEMBEDDEDCHECKSUM?EMBEDCHECKSUM
  +--> ?PR?_NVRAMREADSYSTEMDATA?NVRAM

?PR?NVRAMCLEARALL?NVRAM                          -----    -----      -----    -----      -----    -----      A2E5H    00
>> 12H
  +--> ?CO?NVRAM
  +--> ?PR?NVRAM
  +--> ?PR?_NVRAMWRITE?NVRAM

BL51 BANKED LINKER/LOCATER V6.22                                                      01/06/2017  14:57:29  PAGE 77


?PR?ERASETIMESCALE?FE2P_API                      -----    -----      -----    -----      -----    -----      -----    --
>> ---
  +--> ?PR?FE2P_CHECKVALIDBLOCK?FE2P_API
  +--> ?PR?FE2P_API
  +--> ?PR?_FLASH_PROTECTOFF?FE2P_API
  +--> ?PR?FE2P_WRITEENABLE?FE2P
  +--> ?PR?_FE2P_BYTEWRITE?FE2P
  +--> ?PR?_FE2P_SECTORERASE?FE2P
  +--> ?PR?FLASH_PROTECTON?FE2P_API

?PR?_FLASH_PROTECTOFF?FE2P_API                   -----    -----      -----    -----      -----    -----      A2F0H    00
>> 03H
  +--> ?PR?FE2P_RDSR?FE2P
  +--> ?PR?PMC_SECTOR_LOCK?FE2P
  +--> ?PR?_PMC_SECTOR_UNLOCK?FE2P
  +--> ?PR?FLASH_WP_OFF?FE2P_API
  +--> ?PR?_FE2P_SETPROTECT?FE2P

?PR?_PMC_SECTOR_UNLOCK?FE2P                      -----    -----      -----    -----      -----    -----      -----    --
>> ---
  +--> ?PR?FE2P
  +--> ?PR?_FE2P_ACTUALSECTORERASE?FE2P

?PR?_FE2P_BYTEWRITE?FE2P                         0020H.3  0000H.1    -----    -----      -----    -----      A2F0H    00
>> 05H
  +--> ?PR?FE2P
  +--> ?PR?_FE2P_SETPROTECT?FE2P
  +--> ?PR?FE2P_MX2026UNPROTECT?FE2P
  +--> ?PR?FE2P_WRITEENABLE?FE2P

?PR?_FE2P_SECTORERASE?FE2P                       0020H.3  0000H.1    -----    -----      -----    -----      A2F0H    00
>> 04H
  +--> ?PR?FE2P
  +--> ?PR?_FE2P_SETPROTECT?FE2P
  +--> ?PR?FE2P_MX2026UNPROTECT?FE2P
  +--> ?PR?_FE2P_ACTUALSECTORERASE?FE2P

?PR?NVRAMCLEARTIMING?NVRAM                       -----    -----      -----    -----      -----    -----      A2EAH    00
>> 12H
  +--> ?CO?NVRAM
  +--> ?PR?NVRAM
  +--> ?PR?_NVRAMWRITE?NVRAM

?PR?_NVRAMREADUSERDATA?NVRAM                     -----    -----      -----    -----      -----    -----      -----    --
>> ---
  +--> ?PR?_NVRAMREAD?NVRAM

?PR?_NVRAMREADCALIBDATA?NVRAM                    -----    -----      -----    -----      -----    -----      -----    --
>> ---
  +--> ?PR?_NVRAMREAD?NVRAM

?PR?NVRAMVALIDCHECK?NVRAM                        -----    -----      -----    -----      -----    -----      -----    --
>> ---
  +--> ?CO?NVRAM

?PR?DECODETIMESCALE?FE2P_API                     -----    -----      -----    -----      -----    -----      A2E5H    00
>> 07H
BL51 BANKED LINKER/LOCATER V6.22                                                      01/06/2017  14:57:29  PAGE 78


  +--> ?PR?FE2P_API
  +--> ?PR?_FE2P_BYTEREAD?FE2P

?PR?CUSTOM_SYSTEM_INIT?APPCTRL                   -----    -----      -----    -----      -----    -----      A2E5H    00
>> 05H
  +--> ?PR?_WRITE3BYTESCALER?SCALERACCESS
  +--> ?PR?_WRITESCALERINDEXPORT?SCALERACCESS
  +--> ?PR?FORDEMOHDCPCOMPILERCODEPASS?HDCPAPI
  +--> ?PR?FORODCOMPILERCODEPASS?OD
  +--> ?PR?FORLDCOMPILERCODEPASS?LD
  +--> ?PR?FORUSBTYPECCOMPILERCODEPASS2?USBT...
  +--> ?PR?FORUSBTYPECCOMPILERCODEPASS1?USBT...
  +--> ?PR?FORMHLCOMPILERCODEPASS?MHL
  +--> ?PR?_ODAPI_SETSEPARATEODTESTPATTERNEN...
  +--> ?PR?APPCTRL
  +--> ?PR?CHECKTOTALPORTNUM?APPCTRL

?PR?_WRITESCALERINDEXPORT?SCALERACCESS           -----    -----      -----    -----      -----    -----      A32FH    00
>> 08H
  +--> ?PR?SCALERACCESS

?PR?FORDEMOHDCPCOMPILERCODEPASS?HDCPAPI          -----    -----      -----    -----      -----    -----      A2EAH    00
>> 01H
  +--> ?CO?HDCPAPI

?PR?FORODCOMPILERCODEPASS?OD                     -----    -----      -----    -----      -----    -----      A2EAH    00
>> 01H
  +--> ?CO?OD

?PR?FORLDCOMPILERCODEPASS?LD                     -----    -----      -----    -----      -----    -----      A2EAH    00
>> 01H
  +--> ?CO?LD

?PR?FORUSBTYPECCOMPILERCODEPASS2?USBT...         -----    -----      -----    -----      -----    -----      A2EAH    00
>> 01H
  +--> ?CO?USBTYPECHANDLER

?PR?FORUSBTYPECCOMPILERCODEPASS1?USBT...         -----    -----      -----    -----      -----    -----      A2EAH    00
>> 01H
  +--> ?CO?USBTYPEC

?PR?FORMHLCOMPILERCODEPASS?MHL                   -----    -----      -----    -----      -----    -----      A2EAH    00
>> 01H
  +--> ?CO?MHL

?PR?APPINITSYSTEM?APPCTRL                        -----    -----      -----    -----      -----    -----      A2E9H    00
>> 01H
  +--> ?PR?GETSCID?SCALER_COMMON
  +--> ?PR?SETDPSPEED?SCALER_DP_COMMON
  +--> ?PR?_SMOOTHSCALERPWM?SCALER_PWM
  +--> ?PR?_SETBLPWMBYINPUTVSYNC?SYSAPI
  +--> ?PR?_SETVSYNCRESETPWM?SCALER_PWM
  +--> ?PR?_CONFIGSCALERPWM?SCALER_PWM
  +--> ?PR?USERSETOSDH?USERSETTING
  +--> ?PR?USERSETOSDV?USERSETTING
  +--> ?PR?USERSETTRANSPARENT?USERSETTING
  +--> ?PR?USERSETTIMEOUT?USERSETTING
BL51 BANKED LINKER/LOCATER V6.22                                                      01/06/2017  14:57:29  PAGE 79


  +--> ?PR?USERSETOSDROTATION?USERSETTING
  +--> ?PR?USERSETBRIGHTNESS?USERSETTING
  +--> ?PR?USERSETCONTRAST?USERSETTING
  +--> ?PR?USERSETCOLORTEMP?USERSETTING
  +--> ?PR?CHECKFACTORYMODE?KEYPAD
  +--> ?PR?APPTOGGLEFACTORYMODE?APPCTRL
  +--> ?PR?GETEFUSE_SCID?SCALER_COMMON
  +--> ?PR?INITHDCPTRIMKEY?HDCP
  +--> ?PR?LEDGREENON?BOARD
  +--> ?PR?APPENTERPOWERONLOGO?APPCTRL
  +--> ?PR?OSDINITIALIZE?OSDVIEW2
  +--> ?PR?AUDIOPOWERON?BOARD
  +--> ?PR?LOADPREGAMMA?GAMMA
  +--> ?PR?LOADREVGAMMA?GAMMA
  +--> ?PR?LOADGAMMA?GAMMA
  +--> ?PR?INITCOLOR?COLORCONFIG
  +--> ?PR?INITDBC?DBC
  +--> ?PR?INITSR?SR
  +--> ?PR?USERSETADCGAINOFFSET?USERSETTING
  +--> ?PR?USERSETOD?USERSETTING
  +--> ?PR?USERSETINPUTSOURCE?USERSETTING
  +--> ?PR?USERSETAUDIOCHANNEL?USERSETTING
  +--> ?PR?_SETSYNCSOURCE?SYNCHANDLER
  +--> ?PR?_KEYSETREPEATEVENT?KEYCTRL
  +--> ?PR?_KEYSETHOLDEVENT?KEYCTRL
  +--> ?PR?_KEYSETMFUNCEVENT?KEYCTRL
  +--> ?PR?_KEYSETHOLDTIME?KEYCTRL
  +--> ?PR?_KEYSETREPEATTIME?KEYCTRL
  +--> ?PR?_KEYSETLONGPRESSTIME?KEYCTRL
  +--> ?PR?_MCUSETDDCWP?MCUDDC
  +--> ?PR?EDIDWPOFF?BOARD
  +--> ?PR?EDIDWPON?BOARD
  +--> ?PR?SYSAPI_SETPOWEROFF?SYSAPI

?PR?SETDPSPEED?SCALER_DP_COMMON                  0020H.3  0000H.1    -----    -----      -----    -----      -----    --
>> ---

?PR?_SETBLPWMBYINPUTVSYNC?SYSAPI                 -----    -----      -----    -----      -----    -----      -----    --
>> ---
  +--> ?PR?_CONFIGSCALERPWM?SCALER_PWM

?PR?_CONFIGSCALERPWM?SCALER_PWM                  -----    -----      -----    -----      -----    -----      A2EAH    00
>> 0EH
  +--> ?PR?SCALER_PWM

?PR?_SETVSYNCRESETPWM?SCALER_PWM                 -----    -----      -----    -----      -----    -----      -----    --
>> ---
  +--> ?PR?SCALER_PWM

?PR?USERSETOSDH?USERSETTING                      -----    -----      -----    -----      -----    -----      -----    --
>> ---
  +--> ?PR?_OSDAPI_SETPOSITION?OSDAPI

?PR?_OSDAPI_SETPOSITION?OSDAPI                   -----    -----      -----    -----      -----    -----      A2F0H    00
>> 0EH
  +--> ?PR?OSDAPI
  +--> ?PR?WAITDISVSYNC?SCALER_DISPLAY
BL51 BANKED LINKER/LOCATER V6.22                                                      01/06/2017  14:57:29  PAGE 80


  +--> ?PR?OSDAPI_GETOSDFONTWIDTH?OSDAPI
  +--> ?PR?OSDAPI_GETOSDFONTHEIGHT?OSDAPI
  +--> ?PR?OSDAPI_GETOSDWIDTH?OSDAPI
  +--> ?PR?OSDAPI_GETOSDHEIGHT?OSDAPI

?PR?WAITDISVSYNC?SCALER_DISPLAY                  -----    -----      -----    -----      -----    -----      A31FH    00
>> 02H
  +--> ?PR?_SLEEP?MISC
  +--> ?PR?GETTIMERTICK?INT

?PR?USERSETOSDV?USERSETTING                      -----    -----      -----    -----      -----    -----      -----    --
>> ---
  +--> ?PR?USERSETOSDH?USERSETTING

?PR?USERSETTRANSPARENT?USERSETTING               -----    -----      -----    -----      -----    -----      A2EAH    00
>> 01H
  +--> ?PR?_OSDAPI_SETOSDFGBGTRAN?OSDAPI
  +--> ?PR?_OSDAPI_SETOSDSPECIALBGTRAN?OSDAPI
  +--> ?PR?_OSDAPI_SELOSDWIN?OSDAPI
  +--> ?PR?_OSDAPI_SETOSDWINTRAN?OSDAPI

?PR?_OSDAPI_SETOSDSPECIALBGTRAN?OSDAPI           -----    -----      -----    -----      -----    -----      -----    --
>> ---
  +--> ?PR?OSDAPI

?PR?_OSDAPI_SETOSDWINTRAN?OSDAPI                 -----    -----      -----    -----      -----    -----      -----    --
>> ---
  +--> ?PR?OSDAPI

?PR?USERSETTIMEOUT?USERSETTING                   -----    -----      -----    -----      -----    -----      -----    --
>> ---
  +--> ?PR?_OSDCONFIGTIMEOUT?OSDCTRL

?PR?USERSETOSDROTATION?USERSETTING               -----    -----      -----    -----      -----    -----      -----    --
>> ---
  +--> ?PR?_OSDAPI_ROTATEOSDPOSITION?OSDAPI

?PR?USERSETBRIGHTNESS?USERSETTING                -----    -----      -----    -----      -----    -----      -----    --
>> ---
  +--> ?PR?SETCLRTMP_BRICON?COLORCONFIG
  +--> ?PR?USERSETTING
  +--> ?PR?_SETBRIGHTNESS?SYSAPI

?PR?SETCLRTMP_BRICON?COLORCONFIG                 -----    -----      -----    -----      -----    -----      -----    --
>> ---
  +--> ?PR?SETLBLMODE_BRICON?COLORCONFIG

?PR?USERSETTING                                  -----    -----      -----    -----      -----    -----      -----    --
>> ---
  +--> ?CO?USERSETTING
  +--> ?CO?NVRAM

?PR?_SETBRIGHTNESS?SYSAPI                        -----    -----      -----    -----      -----    -----      A2F1H    00
>> 02H
  +--> ?PR?GETSCID?SCALER_COMMON
  +--> ?PR?_GETSCALERPWM?SCALER_PWM
  +--> ?PR?SYSAPI
BL51 BANKED LINKER/LOCATER V6.22                                                      01/06/2017  14:57:29  PAGE 81


  +--> ?PR?_GETGLOBALTIMER?MISC
  +--> ?PR?_SETGLOBALTIMER?MISC
  +--> ?PR?_SETSCALERPWM?SCALER_PWM

?PR?_GETSCALERPWM?SCALER_PWM                     -----    -----      -----    -----      -----    -----      -----    --
>> ---
  +--> ?PR?SCALER_PWM

?PR?_GETGLOBALTIMER?MISC                         -----    -----      -----    -----      -----    -----      A2F3H    00
>> 01H
  +--> ?PR?UPDATEGLOBALTIMER?MISC
  +--> ?PR?MISC

?PR?_SETSCALERPWM?SCALER_PWM                     -----    -----      -----    -----      -----    -----      -----    --
>> ---
  +--> ?PR?SCALER_PWM

?PR?USERSETCONTRAST?USERSETTING                  -----    -----      -----    -----      -----    -----      -----    --
>> ---
  +--> ?PR?SETCLRTMP_BRICON?COLORCONFIG
  +--> ?PR?USERSETTING
  +--> ?PR?_MTXAPI_SETCONTRASTVALUE?MATRIX
  +--> ?PR?_MTXAPI_SELMATRIX?MATRIX
  +--> ?PR?SETLOCALMATRIX?COLORCONFIG
  +--> ?PR?_MTXAPI_SETCONTRAST?MATRIX

?PR?SETLOCALMATRIX?COLORCONFIG                   -----    -----      -----    -----      -----    -----      -----    --
>> ---
  +--> ?PR?_BFAPI_SETACTIVEWINDOW?BFAPI
  +--> ?PR?_MTXAPI_ENABLELOCALMATRIX?MATRIX
  +--> ?PR?COLORCONFIG
  +--> ?PR?_MTXAPI_SETRGBGAIN?MATRIX
  +--> ?PR?_BFAPI_SETLOCALMATRIX?BFAPI

?PR?_MTXAPI_SETRGBGAIN?MATRIX                    -----    -----      -----    -----      -----    -----      -----    --
>> ---
  +--> ?PR?_MTXAPI_SETRGBGAINVALUE?MATRIX
  +--> ?PR?_MTXAPI_SETCONTRAST?MATRIX

?PR?_MTXAPI_SETCONTRAST?MATRIX                   -----    -----      -----    -----      -----    -----      A2F7H    00
>> 17H
  +--> ?PR?_MTXAPI_SETCONTRASTVALUE?MATRIX
  +--> ?CO?MATRIX
  +--> ?PR?MATRIX
  +--> ?PR?_WRITESHORTSCALER?SCALERACCESS
  +--> ?PR?WAITDISVSYNC?SCALER_DISPLAY

?PR?_BFAPI_SETLOCALMATRIX?BFAPI                  -----    -----      -----    -----      -----    -----      A2EEH    00
>> 06H
  +--> ?PR?BFAPI
  +--> ?CO?BFAPI
  +--> ?PR?_WRITESHORTSCALER?SCALERACCESS

?PR?USERSETCOLORTEMP?USERSETTING                 -----    -----      -----    -----      -----    -----      -----    --
>> ---
  +--> ?PR?_MTXAPI_SELMATRIX?MATRIX
  +--> ?PR?SETLOCALMATRIX?COLORCONFIG
BL51 BANKED LINKER/LOCATER V6.22                                                      01/06/2017  14:57:29  PAGE 82


  +--> ?PR?_MTXAPI_ENABLELOCALMATRIX?MATRIX
  +--> ?PR?_SETCOLORTEMPERATURE?COLORCONFIG

?PR?_SETCOLORTEMPERATURE?COLORCONFIG             -----    -----      -----    -----      -----    -----      A2EEH    00
>> 09H
  +--> ?PR?GETGAMMANUM?COLORCONFIG
  +--> ?PR?COLORCONFIG
  +--> ?PR?_MTXAPI_SETRGBGAIN?MATRIX

?PR?CHECKFACTORYMODE?KEYPAD                      -----    -----      -----    -----      -----    -----      A2EAH    00
>> 02H
  +--> ?PR?GETKEY?KEYPAD
  +--> ?PR?_SLEEP?MISC

?PR?GETKEY?KEYPAD                                -----    -----      -----    -----      -----    -----      A2ECH    00
>> 01H
  +--> ?PR?MCUPOWERUPADC?MCUADC
  +--> ?PR?MCUSTARTADC?MCUADC
  +--> ?PR?MCUWAITADCCOMPLETE?MCUADC
  +--> ?PR?MCUPOWERDOWNADC?MCUADC
  +--> ?PR?_GETIOKEYCODE?KEYPAD
  +--> ?PR?KEYPAD
  +--> ?PR?_MCUGETADC?MCUADC

?PR?_GETIOKEYCODE?KEYPAD                         -----    -----      -----    -----      -----    -----      A2EDH    00
>> 02H
  +--> ?CO?KEYPAD
  +--> ?PR?_MCUGETIOBIT?MCUIO

?PR?APPTOGGLEFACTORYMODE?APPCTRL                 -----    -----      -----    -----      -----    -----      -----    --
>> ---
  +--> ?PR?_MCUSETDDCWP?MCUDDC
  +--> ?PR?EDIDWPOFF?BOARD
  +--> ?PR?EDIDWPON?BOARD

?PR?EDIDWPOFF?BOARD                              -----    -----      -----    -----      -----    -----      -----    --
>> ---
  +--> ?PR?_MCUSETIOBIT?MCUIO

?PR?EDIDWPON?BOARD                               -----    -----      -----    -----      -----    -----      -----    --
>> ---
  +--> ?PR?_MCUSETIOBIT?MCUIO

?PR?INITHDCPTRIMKEY?HDCP                         -----    -----      -----    -----      -----    -----      A2EAH    00
>> 0DH
  +--> ?PR?HDCP
  +--> ?PR?ENABLEHDCP?HDCPAPI
  +--> ?PR?LOADDEFAULTTRIM?HDCP
  +--> ?PR?_SLEEP?MISC

?PR?LEDGREENON?BOARD                             -----    -----      -----    -----      -----    -----      -----    --
>> ---
  +--> ?PR?_MCUSETIOBIT?MCUIO

?PR?APPENTERPOWERONLOGO?APPCTRL                  -----    -----      -----    -----      -----    -----      -----    --
>> ---
  +--> ?PR?SHOWLOGO?LOGO
BL51 BANKED LINKER/LOCATER V6.22                                                      01/06/2017  14:57:29  PAGE 83


  +--> ?PR?_KEYSETLOCKEVENT?KEYCTRL
  +--> ?PR?HOLDMODEDISPLAY?MODEHANDLER
  +--> ?PR?_SETGLOBALTIMER?MISC

?PR?SHOWLOGO?LOGO                                -----    -----      -----    -----      -----    -----      A2EAH    00
>> 02H
  +--> ?PR?ENABLEDCLK?SCALER_DISPLAY
  +--> ?PR?_FORCE2BACKGROUND?SCALER_DISPLAY
  +--> ?PR?_SETPOSTBGCOLOR?SCALER_DISPLAY
  +--> ?PR?_MTXAPI_SETRGBGAIN?MATRIX
  +--> ?PR?_MTXAPI_SETCONTRAST?MATRIX
  +--> ?PR?_SETBRIGHTNESS?SYSAPI
  +--> ?PR?OSDCLOSEALL?OSDCTRL
  +--> ?CO?LOGO
  +--> ?PR?_OSDAPI_LOADPALETTE?OSDAPI_COMMON
  +--> ?PR?_OSDAPI_SETHVZOOM?OSDAPI
  +--> ?PR?_BFAPI_DISABLEWINDOW?BFAPI
  +--> ?PR?_OSDAPI_SETFONTSIZE?OSDAPI
  +--> ?PR?_OSDINITFRAME?OSDVIEW2
  +--> ?PR?_OSDAPI_SETPOSITION?OSDAPI
  +--> ?PR?_OSDAPI_SETFONTADDRESS?OSDAPI
  +--> ?PR?_OSDAPI_LOADFONT?OSDAPI_COMMON
  +--> ?PR?LOGO
  +--> ?PR?GMAPI_DISABLEGAMMA?GAMMAAPI
  +--> ?PR?OSDTURNONOSD?OSDVIEW2
  +--> ?PR?_PANELPOWERONSEQUENCE?SYSAPI

?PR?_FORCE2BACKGROUND?SCALER_DISPLAY             -----    -----      -----    -----      -----    -----      -----    --
>> ---
  +--> ?PR?_SETPOSTBGCOLOR?SCALER_DISPLAY
  +--> ?PR?DISPLAYMUTEIMAGE?SCALER_DISPLAY
  +--> ?PR?LOADDEFAULTPANELDATA?SCALER_DISPLAY
  +--> ?PR?SETFREERUNCLK?SCALER_DISPLAY

?PR?OSDCLOSEALL?OSDCTRL                          -----    -----      -----    -----      -----    -----      -----    --
>> ---
  +--> ?PR?OSDAPI_DISABLESPLIT?OSDAPI
  +--> ?PR?OSDCLOSED?OSDVIEW2
  +--> ?PR?_OSDAPI_SETHVZOOM?OSDAPI

?PR?OSDCLOSED?OSDVIEW2                           -----    -----      -----    -----      -----    -----      -----    --
>> ---
  +--> ?PR?RESETKEYINFOSTATUS?OSDVIEW2
  +--> ?PR?OSDVIEW2
  +--> ?PR?WAITDISVSYNC?SCALER_DISPLAY
  +--> ?PR?_OSDAPI_OSDWINOFF?OSDAPI

?PR?OSDVIEW2                                     -----    -----      -----    -----      -----    -----      -----    --
>> ---
  +--> ?PR?_OSDCHECKKEYINFO?OSDVIEW2
  +--> ?CO?OSDVIEW2

?PR?_OSDAPI_LOADPALETTE?OSDAPI_COMMON            -----    -----      -----    -----      0054H    0004H      A2ECH    00
>> 03H
  +--> ?PR?OSDAPI_COMMON
  +--> ?PR?WAITDISVSYNC?SCALER_DISPLAY

BL51 BANKED LINKER/LOCATER V6.22                                                      01/06/2017  14:57:29  PAGE 84


?PR?_OSDAPI_SETFONTSIZE?OSDAPI                   -----    -----      -----    -----      -----    -----      -----    --
>> ---
  +--> ?PR?OSDAPI

?PR?_OSDINITFRAME?OSDVIEW2                       -----    -----      -----    -----      -----    -----      A2ECH    00
>> 04H
  +--> ?PR?OSDVIEW2
  +--> ?PR?WAITDISVSYNC?SCALER_DISPLAY
  +--> ?PR?_OSDAPI_OSDWINOFF?OSDAPI
  +--> ?PR?_OSDAPI_SETOSDWIDTH?OSDAPI
  +--> ?PR?_OSDAPI_SETOSDHEIGHT?OSDAPI
  +--> ?PR?_OSDAPI_SETPOSITION?OSDAPI
  +--> ?PR?_WRITESHORTSCALER?SCALERACCESS
  +--> ?PR?OSDAPI_CLEAROSD?OSDAPI

?PR?OSDAPI_CLEAROSD?OSDAPI                       -----    -----      -----    -----      -----    -----      -----    --
>> ---
  +--> ?PR?WAITDISVSYNC?SCALER_DISPLAY

?PR?_OSDAPI_LOADFONT?OSDAPI_COMMON               -----    -----      -----    -----      0054H    0004H      A2ECH    00
>> 04H
  +--> ?PR?OSDAPI_COMMON
  +--> ?PR?WAITDISVSYNC?SCALER_DISPLAY

?PR?LOGO                                         -----    -----      -----    -----      -----    -----      -----    --
>> ---
  +--> ?CO?LOGO

?PR?OSDTURNONOSD?OSDVIEW2                        -----    -----      -----    -----      -----    -----      -----    --
>> ---
  +--> ?PR?ISOSDROTATIONAVAILABLE?OSDVIEW3
  +--> ?PR?_OSDAPI_ROTATEOSDWIN?OSDAPI
  +--> ?PR?_SLEEP?MISC
  +--> ?PR?OSDVIEW2

?PR?ISOSDROTATIONAVAILABLE?OSDVIEW3              -----    -----      -----    -----      -----    -----      -----    --
>> ---
  +--> ?PR?GETOSDSTATE?OSDCTRL

?PR?_OSDAPI_ROTATEOSDWIN?OSDAPI                  -----    -----      -----    -----      -----    -----      A2ECH    00
>> 0FH
  +--> ?PR?_OSDAPI_SELOSDWIN?OSDAPI
  +--> ?PR?OSDAPI
  +--> ?PR?_OSDAPI_ROTATEOSDWINPOSITION?OSDAPI2

?PR?_OSDAPI_ROTATEOSDWINPOSITION?OSDAPI2         -----    -----      -----    -----      -----    -----      A309H    00
>> 16H
  +--> ?PR?OSDAPI_GETOSDFONTWIDTH?OSDAPI
  +--> ?PR?OSDAPI2
  +--> ?PR?OSDAPI_GETOSDFONTHEIGHT?OSDAPI
  +--> ?PR?OSDAPI_GETOSDWIDTH?OSDAPI
  +--> ?PR?OSDAPI_GETOSDHEIGHT?OSDAPI
  +--> ?PR?WAITDISVSYNC?SCALER_DISPLAY

?PR?_PANELPOWERONSEQUENCE?SYSAPI                 -----    -----      -----    -----      -----    -----      A2ECH    00
>> 01H
  +--> ?PR?ISPANELPOWERON?BOARD
BL51 BANKED LINKER/LOCATER V6.22                                                      01/06/2017  14:57:29  PAGE 85


  +--> ?PR?_GETGLOBALTIMER?MISC
  +--> ?PR?PANELPOWERON?BOARD
  +--> ?PR?_SLEEP?MISC
  +--> ?PR?LVDSON?SCALER_LVDS
  +--> ?PR?CHECKMODECHANGEFLAG?INT
  +--> ?PR?GETMODEHANDLESTATE?MODEHANDLER
  +--> ?PR?GETINPUTSYNCMODE?SYNCHANDLER
  +--> ?PR?BISCABLECONNECT?BOARD
  +--> ?PR?BACKLIGHTON?BOARD

?PR?ISPANELPOWERON?BOARD                         -----    -----      -----    -----      -----    -----      -----    --
>> ---
  +--> ?PR?_MCUGETIOBIT?MCUIO

?PR?PANELPOWERON?BOARD                           -----    -----      -----    -----      -----    -----      -----    --
>> ---
  +--> ?PR?_MCUSETIOBIT?MCUIO

?PR?LVDSON?SCALER_LVDS                           -----    -----      -----    -----      -----    -----      -----    --
>> ---
  +--> ?PR?_SETLVDSSWING?SCALER_LVDS

?PR?_SETLVDSSWING?SCALER_LVDS                    -----    -----      -----    -----      -----    -----      -----    --
>> ---
  +--> ?PR?SCALER_LVDS

?PR?BISCABLECONNECT?BOARD                        -----    -----      -----    -----      -----    -----      A2EDH    00
>> 01H
  +--> ?PR?ISDIGITAL1CONNECT?BOARD
  +--> ?PR?BOARD
  +--> ?PR?ISDIGITAL2CONNECT?BOARD
  +--> ?PR?ISDIGITAL3CONNECT?BOARD
  +--> ?PR?ISDPCONNECT?BOARD

?PR?BACKLIGHTON?BOARD                            -----    -----      -----    -----      -----    -----      -----    --
>> ---
  +--> ?PR?_MCUSETIOBIT?MCUIO

?PR?_KEYSETLOCKEVENT?KEYCTRL                     -----    -----      -----    -----      -----    -----      -----    --
>> ---
  +--> ?PR?_SEARCHKEYEVENTINDEX?KEYCTRL
  +--> ?PR?KEYCTRL

?PR?_SEARCHKEYEVENTINDEX?KEYCTRL                 -----    -----      -----    -----      -----    -----      -----    --
>> ---
  +--> ?PR?KEYCTRL

?PR?KEYCTRL                                      -----    -----      -----    -----      -----    -----      -----    --
>> ---
  +--> ?CO?KEYCTRL

?PR?OSDINITIALIZE?OSDVIEW2                       0020H.1  0000H.1    -----    -----      -----    -----      -----    --
>> ---
  +--> ?PR?OSDAPI_DISABLESPLIT?OSDAPI
  +--> ?PR?_OSDAPI_SETFONTSIZE?OSDAPI
  +--> ?PR?_OSDAPI_SETOSDWINSIZEUNIT?OSDAPI
  +--> ?PR?_OSDLOADFONT?OSDFONT
BL51 BANKED LINKER/LOCATER V6.22                                                      01/06/2017  14:57:29  PAGE 86


  +--> ?PR?_OSDAPI_SETFONTADDRESS?OSDAPI

?PR?_OSDLOADFONT?OSDFONT                         -----    -----      -----    -----      -----    -----      A2EAH    00
>> 01H
  +--> ?CO?OSDFONT
  +--> ?PR?_OSDAPI_LOADFONT?OSDAPI_COMMON
  +--> ?PR?_OSDAPI_LOADPALETTE?OSDAPI_COMMON

?PR?AUDIOPOWERON?BOARD                           -----    -----      -----    -----      -----    -----      -----    --
>> ---
  +--> ?PR?_MCUSETIOBIT?MCUIO

?PR?LOADPREGAMMA?GAMMA                           -----    -----      -----    -----      -----    -----      A2EAH    00
>> 40H
  +--> ?CO?GAMMA
  +--> ?PR?GAMMA
  +--> ?PR?_GMAPI_LOADPREGAMMA16BIT?GAMMAAPI
  +--> ?PR?GMAPI_ENABLEPREGAMMA?GAMMAAPI
  +--> ?PR?GMAPI_ENABLEREVGAMMA?GAMMAAPI

?PR?_GMAPI_LOADPREGAMMA16BIT?GAMMAAPI            -----    -----      -----    -----      -----    -----      A32AH    00
>> 05H
  +--> ?PR?GAMMAAPI
  +--> ?PR?GMAPI_DISABLEPREGAMMA?GAMMAAPI
  +--> ?PR?GMAPI_DISABLEREVGAMMA?GAMMAAPI
  +--> ?PR?_SLEEP?MISC
  +--> ?PR?_WRITESCALERINDEXPORT?SCALERACCESS

?PR?LOADREVGAMMA?GAMMA                           -----    -----      -----    -----      -----    -----      A2EAH    00
>> 20H
  +--> ?CO?GAMMA
  +--> ?PR?GAMMA
  +--> ?PR?_GMAPI_LOADREVGAMMA16BIT?GAMMAAPI
  +--> ?PR?GMAPI_ENABLEPREGAMMA?GAMMAAPI
  +--> ?PR?GMAPI_ENABLEREVGAMMA?GAMMAAPI

?PR?_GMAPI_LOADREVGAMMA16BIT?GAMMAAPI            -----    -----      -----    -----      -----    -----      A30AH    00
>> 05H
  +--> ?PR?GAMMAAPI
  +--> ?PR?GMAPI_DISABLEPREGAMMA?GAMMAAPI
  +--> ?PR?GMAPI_DISABLEREVGAMMA?GAMMAAPI
  +--> ?PR?_SLEEP?MISC
  +--> ?PR?_WRITESCALERINDEXPORT?SCALERACCESS

?PR?LOADGAMMA?GAMMA                              -----    -----      -----    -----      -----    -----      -----    --
>> ---
  +--> ?PR?LOADGAMA_2?GAMA_2
  +--> ?PR?GETGAMMANUM?COLORCONFIG
  +--> ?CO?GAMMA
  +--> ?PR?_GMAPI_LOADGAMMA320?GAMAAPI_COMMON
  +--> ?PR?LOADGAMA_1?GAMA_1
  +--> ?PR?LOADGAMA_BYPASS?GAMA_BYPASS
  +--> ?PR?LOADGAMA_3?GAMA_3
  +--> ?PR?LOADGAMA_4?GAMA_4
  +--> ?PR?WAITDISVSYNC?SCALER_DISPLAY
  +--> ?PR?GMAPI_ENABLEGAMMA?GAMMAAPI

BL51 BANKED LINKER/LOCATER V6.22                                                      01/06/2017  14:57:29  PAGE 87


?PR?LOADGAMA_2?GAMA_2                            -----    -----      -----    -----      -----    -----      -----    --
>> ---
  +--> ?CO?GAMA_2
  +--> ?PR?_GMAPI_LOADGAMMA320?GAMAAPI_COMMON

?PR?_GMAPI_LOADGAMMA320?GAMAAPI_COMMON           -----    -----      -----    -----      -----    -----      A2EEH    00
>> 03H
  +--> ?PR?GMAPI_DISABLEGAMMA?GAMMAAPI
  +--> ?PR?_SLEEP?MISC
  +--> ?PR?GAMAAPI_COMMON
  +--> ?PR?_WRITESCALERINDEXPORT?SCALERACCESS

?PR?LOADGAMA_1?GAMA_1                            -----    -----      -----    -----      -----    -----      -----    --
>> ---
  +--> ?CO?GAMA_1
  +--> ?PR?_GMAPI_LOADGAMMA320?GAMAAPI_COMMON

?PR?LOADGAMA_BYPASS?GAMA_BYPASS                  -----    -----      -----    -----      -----    -----      -----    --
>> ---
  +--> ?CO?GAMA_BYPASS
  +--> ?PR?_GMAPI_LOADGAMMA320?GAMAAPI_COMMON

?PR?LOADGAMA_3?GAMA_3                            -----    -----      -----    -----      -----    -----      -----    --
>> ---
  +--> ?CO?GAMA_3
  +--> ?PR?_GMAPI_LOADGAMMA320?GAMAAPI_COMMON

?PR?LOADGAMA_4?GAMA_4                            -----    -----      -----    -----      -----    -----      -----    --
>> ---
  +--> ?CO?GAMA_4
  +--> ?PR?_GMAPI_LOADGAMMA320?GAMAAPI_COMMON

?PR?INITCOLOR?COLORCONFIG                        -----    -----      -----    -----      -----    -----      -----    --
>> ---
  +--> ?PR?_BFAPI_INIT?BFAPI
  +--> ?PR?_BFAPI_SETACTIVEWINDOW?BFAPI
  +--> ?PR?_MTXAPI_SELMATRIX?MATRIX

?PR?_BFAPI_INIT?BFAPI                            -----    -----      -----    -----      -----    -----      -----    --
>> ---
  +--> ?PR?_BFAPI_DISABLEWINDOW?BFAPI
  +--> ?PR?_BFAPI_SETACTIVEWINDOW?BFAPI
  +--> ?PR?_BFAPI_SETWINDOWSIZE?BFAPI
  +--> ?PR?_BFAPI_COLORENHANCE?BFAPI
  +--> ?PR?_BFAPI_SETPREACEMODE?BFAPI
  +--> ?PR?BFAPI_DISABLEACEMODE?BFAPI
  +--> ?PR?_BFAPI_SETHHTABLE?BFAPI
  +--> ?PR?_BFAPI_SETHSTABLE?BFAPI
  +--> ?PR?_BFAPI_SETHITABLE?BFAPI
  +--> ?PR?_BFAPI_DISABLECM?BFAPI
  +--> ?PR?_BFAPI_SETYPEAKING?BFAPI

?PR?_BFAPI_SETWINDOWSIZE?BFAPI                   -----    -----      -----    -----      -----    -----      A2EAH    00
>> 09H
  +--> ?PR?BFAPI
  +--> ?PR?_BFAPI_SETCUSTOMWINDOW?BFAPI

BL51 BANKED LINKER/LOCATER V6.22                                                      01/06/2017  14:57:29  PAGE 88


?PR?_BFAPI_SETCUSTOMWINDOW?BFAPI                 -----    -----      -----    -----      -----    -----      A2F3H    00
>> 08H

?PR?_BFAPI_COLORENHANCE?BFAPI                    -----    -----      -----    -----      -----    -----      A2EBH    00
>> 01H
  +--> ?CO?BFAPI
  +--> ?PR?_BFAPI_SETLOCALMATRIX?BFAPI

?PR?_BFAPI_SETPREACEMODE?BFAPI                   -----    -----      -----    -----      -----    -----      A2EEH    00
>> 06H
  +--> ?PR?BFAPI
  +--> ?CO?BFAPI
  +--> ?PR?WAITDISVSYNC?SCALER_DISPLAY
  +--> ?PR?BFAPI_ENABLEACEMODE?BFAPI

?PR?BFAPI_ENABLEACEMODE?BFAPI                    -----    -----      -----    -----      -----    -----      -----    --
>> ---
  +--> ?PR?BFAPI

?PR?BFAPI_DISABLEACEMODE?BFAPI                   -----    -----      -----    -----      -----    -----      -----    --
>> ---
  +--> ?PR?BFAPI

?PR?_BFAPI_SETHHTABLE?BFAPI                      -----    -----      -----    -----      -----    -----      A2EBH    00
>> 05H
  +--> ?PR?BFAPI

?PR?_BFAPI_SETHSTABLE?BFAPI                      -----    -----      -----    -----      -----    -----      A2EBH    00
>> 05H
  +--> ?PR?BFAPI

?PR?_BFAPI_SETHITABLE?BFAPI                      -----    -----      -----    -----      -----    -----      A2EBH    00
>> 05H
  +--> ?PR?BFAPI

?PR?INITDBC?DBC                                  -----    -----      -----    -----      -----    -----      -----    --
>> ---
  +--> ?CO?DBC
  +--> ?PR?_DBCAPI_LOADTABLE?DBCAPI
  +--> ?PR?_DBCAPI_CONFIGPWM?DBCAPI
  +--> ?PR?_DBCAPI_SETSAVINGRATIO?DBCAPI
  +--> ?PR?_DBCAPI_SETPWMADJUSTMENT?DBCAPI
  +--> ?PR?DBCAPI_SETPWMINVERT?DBCAPI
  +--> ?PR?_DBCAPI_SETDISTORTION?DBCAPI
  +--> ?PR?_DBCAPI_SETDBCMINMAX?DBCAPI
  +--> ?PR?_DBCAPI_SETDEBOUNCINGMODE?DBCAPI
  +--> ?PR?_DBCAPI_SETNLGAIN?DBCAPI
  +--> ?PR?_DBCAPI_SETNLGAINBREAK?DBCAPI
  +--> ?PR?_DBCAPI_SETLUTGRAY2PWMLIM?DBCAPI
  +--> ?PR?_DBCAPI_SETLUTGRAY2GAINLIM?DBCAPI
  +--> ?PR?_DBCAPI_SETLUTREF?DBCAPI
  +--> ?PR?DBCAPI_ENABLEDBC?DBCAPI
  +--> ?PR?WAITDISVSYNC?SCALER_DISPLAY
  +--> ?PR?DBCAPI_DISABLEDBC?DBCAPI

?PR?_DBCAPI_LOADTABLE?DBCAPI                     -----    -----      -----    -----      -----    -----      A2EAH    00
>> 03H
BL51 BANKED LINKER/LOCATER V6.22                                                      01/06/2017  14:57:29  PAGE 89



?PR?_DBCAPI_CONFIGPWM?DBCAPI                     -----    -----      -----    -----      -----    -----      A2EAH    00
>> 05H

?PR?_DBCAPI_SETSAVINGRATIO?DBCAPI                -----    -----      -----    -----      -----    -----      -----    --
>> ---
  +--> ?PR?DBCAPI

?PR?DBCAPI_SETPWMINVERT?DBCAPI                   0020H.1  0000H.1    -----    -----      -----    -----      -----    --
>> ---

?PR?_DBCAPI_SETDEBOUNCINGMODE?DBCAPI             -----    -----      -----    -----      -----    -----      -----    --
>> ---
  +--> ?PR?DBCAPI

?PR?_DBCAPI_SETNLGAIN?DBCAPI                     -----    -----      -----    -----      -----    -----      -----    --
>> ---
  +--> ?PR?DBCAPI

?PR?DBCAPI_ENABLEDBC?DBCAPI                      -----    -----      -----    -----      -----    -----      -----    --
>> ---
  +--> ?PR?WAITDISVSYNC?SCALER_DISPLAY

?PR?DBCAPI_DISABLEDBC?DBCAPI                     -----    -----      -----    -----      -----    -----      -----    --
>> ---
  +--> ?PR?WAITDISVSYNC?SCALER_DISPLAY

?PR?INITSR?SR                                    -----    -----      -----    -----      -----    -----      -----    --
>> ---
  +--> ?PR?SRAPI_INITSR?SRAPI
  +--> ?PR?_SRAPI_SETDEMOREGION?SRAPI

?PR?SRAPI_INITSR?SRAPI                           -----    -----      -----    -----      -----    -----      -----    --
>> ---
  +--> ?CO?SRAPI
  +--> ?PR?SRAPI

?PR?_SRAPI_SETDEMOREGION?SRAPI                   -----    -----      -----    -----      -----    -----      -----    --
>> ---
  +--> ?PR?_WRITESHORTSCALER?SCALERACCESS

?PR?USERSETADCGAINOFFSET?USERSETTING             -----    -----      -----    -----      -----    -----      -----    --
>> ---
  +--> ?PR?_SETADCRGAIN?SCALER_ADC
  +--> ?PR?_SETADCGGAIN?SCALER_ADC
  +--> ?PR?_SETADCBGAIN?SCALER_ADC
  +--> ?PR?_SETADCROFFSET?SCALER_ADC
  +--> ?PR?_SETADCGOFFSET?SCALER_ADC
  +--> ?PR?_SETADCBOFFSET?SCALER_ADC

?PR?USERSETOD?USERSETTING                        -----    -----      -----    -----      -----    -----      -----    --
>> ---
  +--> ?PR?_SETODMODE?OD
  +--> ?PR?ODAPI_DISABLEOD?ODAPI

?PR?_SETODMODE?OD                                -----    -----      -----    -----      -----    -----      A2EAH    00
>> 01H
BL51 BANKED LINKER/LOCATER V6.22                                                      01/06/2017  14:57:29  PAGE 90


  +--> ?PR?ODAPI_ISODRESET?ODAPI
  +--> ?CO?OD
  +--> ?PR?_ODAPI_LOADOD?ODAPI
  +--> ?PR?ODAPI_ENABLEOD?ODAPI

?PR?_ODAPI_LOADOD?ODAPI                          -----    -----      -----    -----      -----    -----      A2EBH    00
>> 03H
  +--> ?PR?ODAPI_DISABLEOD?ODAPI
  +--> ?PR?_SLEEP?MISC
  +--> ?PR?_WRITESCALERINDEXPORT?SCALERACCESS
  +--> ?PR?_ODAPI_SETMCONOFF?ODAPI
  +--> ?PR?_ODAPI_SETMCTHRESHOLD?ODAPI

?PR?_ODAPI_SETMCTHRESHOLD?ODAPI                  -----    -----      -----    -----      -----    -----      A2EEH    00
>> 08H
  +--> ?PR?ODAPI

?PR?ODAPI_ENABLEOD?ODAPI                         -----    -----      -----    -----      -----    -----      -----    --
>> ---
  +--> ?PR?_SLEEP?MISC

?PR?USERSETINPUTSOURCE?USERSETTING               -----    -----      -----    -----      -----    -----      -----    --
>> ---
  +--> ?PR?SCALERAUDIOPREMUTE?SCALER_HDMI
  +--> ?PR?AUDIOMUTEON?BOARD
  +--> ?PR?_GETPORTTABINTERTFACE?USERSETTING
  +--> ?PR?_SETINPUTINTERFACE?SCALER_COMMON

?PR?AUDIOMUTEON?BOARD                            -----    -----      -----    -----      -----    -----      -----    --
>> ---
  +--> ?PR?GETTIMERTICK?INT
  +--> ?PR?_MCUSETIOBIT?MCUIO
  +--> ?PR?_SLEEP?MISC

?PR?_GETPORTTABINTERTFACE?USERSETTING            -----    -----      -----    -----      -----    -----      -----    --
>> ---
  +--> ?PR?USERSETTING
  +--> ?CO?USERSETTING

?PR?_SETINPUTINTERFACE?SCALER_COMMON             -----    -----      -----    -----      -----    -----      A2EAH    00
>> 03H
  +--> ?PR?_PHYLINKSELECT?SCALER_COMMON
  +--> ?PR?ISZPMODE?SCALER_POWER
  +--> ?PR?DISABLEOVERSAMPLE?SCALER_CAPTURE
  +--> ?PR?POWERUPALLINPUT?SCALER_POWER
  +--> ?PR?_SET6502ACTIVE?SCALER_DP_6502
  +--> ?PR?_SET6502HOLD?SCALER_DP_6502
  +--> ?PR?_TMDSINIT?SCALER_TMDS
  +--> ?PR?_SLEEP?MISC
  +--> ?PR?_HDMIENABLEPREAMBLEDETECTION?SCAL...
  +--> ?PR?HDMISOFTRESET?SCALER_HDMI
  +--> ?PR?SCALER_COMMON
  +--> ?PR?_DPAUX_SELECT?SCALER_DP_COMMON
  +--> ?CO?SCALER_COMMON

?PR?_PHYLINKSELECT?SCALER_COMMON                 -----    -----      -----    -----      -----    -----      A2EDH    00
>> 01H
BL51 BANKED LINKER/LOCATER V6.22                                                      01/06/2017  14:57:29  PAGE 91


  +--> ?PR?_SC_SETBITDPPPPHY?SCALER_TMDS
  +--> ?PR?SCALER_COMMON
  +--> ?PR?_SC_SETBYTEDPPPPHY?SCALER_TMDS

?PR?DISABLEOVERSAMPLE?SCALER_CAPTURE             -----    -----      -----    -----      -----    -----      -----    --
>> ---
  +--> ?PR?WAITDISVSYNC?SCALER_DISPLAY

?PR?POWERUPALLINPUT?SCALER_POWER                 -----    -----      -----    -----      -----    -----      -----    --
>> ---
  +--> ?PR?DVI_POWERON?SCALER_TMDS
  +--> ?PR?VGA_POWERON?SCALER_ADC
  +--> ?PR?DP_CLKON?SCALER_DP_COMMON
  +--> ?PR?SCALERAUDIOPOWERON?SCALER_HDMI

?PR?_SET6502ACTIVE?SCALER_DP_6502                -----    -----      -----    -----      -----    -----      A2EDH    00
>> 02H
  +--> ?PR?_SC_SETBYTEDPPPPHY?SCALER_TMDS
  +--> ?PR?_DP_INITPHY?SCALER_DP_COMMON
  +--> ?PR?_GETTMDSPHYDATA?SCALER_TMDS
  +--> ?PR?_SLEEP?MISC

?PR?_SET6502HOLD?SCALER_DP_6502                  -----    -----      -----    -----      -----    -----      A2EDH    00
>> 01H
  +--> ?PR?_SC_SETBYTEDPPPPHY?SCALER_TMDS

?PR?USERSETAUDIOCHANNEL?USERSETTING              -----    -----      -----    -----      -----    -----      A2EAH    00
>> 02H
  +--> ?PR?USERGETINPUTSOURCE?USERSETTING
  +--> ?PR?_SCALERAUDIOSELECT?SCALER_HDMI

?PR?USERGETINPUTSOURCE?USERSETTING               -----    -----      -----    -----      -----    -----      -----    --
>> ---
  +--> ?PR?GETCURRINPUTINTERFACE?SCALER_COMMON
  +--> ?PR?USERSETTING

?PR?_SCALERAUDIOSELECT?SCALER_HDMI               -----    -----      -----    -----      -----    -----      -----    --
>> ---
  +--> ?PR?SCALER_HDMI

?PR?_KEYSETREPEATEVENT?KEYCTRL                   -----    -----      -----    -----      -----    -----      -----    --
>> ---
  +--> ?PR?_SEARCHKEYEVENTINDEX?KEYCTRL
  +--> ?PR?KEYCTRL

?PR?_KEYSETHOLDEVENT?KEYCTRL                     -----    -----      -----    -----      -----    -----      -----    --
>> ---
  +--> ?PR?_SEARCHKEYEVENTINDEX?KEYCTRL
  +--> ?PR?KEYCTRL

?PR?_KEYSETMFUNCEVENT?KEYCTRL                    -----    -----      -----    -----      -----    -----      -----    --
>> ---
  +--> ?PR?_SEARCHKEYEVENTINDEX?KEYCTRL
  +--> ?PR?KEYCTRL

?PR?SYSAPI_SETPOWEROFF?SYSAPI                    -----    -----      -----    -----      -----    -----      -----    --
>> ---
BL51 BANKED LINKER/LOCATER V6.22                                                      01/06/2017  14:57:29  PAGE 92


  +--> ?PR?SCALERAUDIOPREMUTE?SCALER_HDMI
  +--> ?PR?_NVRAMWRITESYSTEMDATA?NVRAM
  +--> ?PR?_NVRAMWRITEUSERDATA?NVRAM
  +--> ?PR?FE2P_SAVETOFLASH?FE2P_API
  +--> ?PR?MODEHANDLESOFTPOWEROFF?MODEHANDLER
  +--> ?PR?LEDGREENOFF?BOARD
  +--> ?PR?LEDREDOFF?BOARD
  +--> ?PR?AUDIOMUTEON?BOARD
  +--> ?PR?PANELPOWEROFFSEQUENCE?SYSAPI
  +--> ?PR?AUDIOPOWEROFF?BOARD
  +--> ?PR?_SYSAPI_PERFORMHPDOFF?SYSAPI
  +--> ?PR?SCALERPOWERDOWN?SCALER_POWER

?PR?FE2P_SAVETOFLASH?FE2P_API                    -----    -----      -----    -----      -----    -----      A2EAH    00
>> 06H
  +--> ?PR?FE2P_API
  +--> ?PR?_FLASH_PROTECTOFF?FE2P_API
  +--> ?PR?_FE2P_SECTORERASE?FE2P
  +--> ?PR?_FE2P_PAGEWRITE?FE2P
  +--> ?PR?FE2P_WRITEENABLE?FE2P
  +--> ?PR?_FE2P_BYTEWRITE?FE2P
  +--> ?PR?FLASH_PROTECTON?FE2P_API

?PR?_FE2P_PAGEWRITE?FE2P                         0020H.1  0000H.1    -----    -----      -----    -----      A2F0H    00
>> 0DH
  +--> ?PR?FE2P
  +--> ?PR?_FE2P_SETPROTECT?FE2P
  +--> ?PR?FE2P_MX2026UNPROTECT?FE2P
  +--> ?PR?FE2P_WRITEENABLE?FE2P
  +--> ?PR?_FE2P_PAGEWRITE_ACT?FE2P

?PR?_FE2P_PAGEWRITE_ACT?FE2P                     0020H.2  0000H.1    -----    -----      -----    -----      A2FDH    00
>> 05H
  +--> ?PR?FE2P

?PR?LEDGREENOFF?BOARD                            -----    -----      -----    -----      -----    -----      -----    --
>> ---
  +--> ?PR?_MCUSETIOBIT?MCUIO

?PR?LEDREDOFF?BOARD                              -----    -----      -----    -----      -----    -----      -----    --
>> ---
  +--> ?PR?_MCUSETIOBIT?MCUIO

?PR?PANELPOWEROFFSEQUENCE?SYSAPI                 -----    -----      -----    -----      -----    -----      -----    --
>> ---
  +--> ?PR?BACKLIGHTOFF?BOARD
  +--> ?PR?ISPANELPOWERON?BOARD
  +--> ?PR?_FORCE2BACKGROUND?SCALER_DISPLAY
  +--> ?PR?WAITDISVSYNC?SCALER_DISPLAY
  +--> ?PR?LVDSOFF?SCALER_LVDS
  +--> ?PR?_SETPOSTBGCOLOR?SCALER_DISPLAY
  +--> ?PR?_SLEEP?MISC
  +--> ?PR?PANELPOWEROFF?BOARD
  +--> ?PR?_SETGLOBALTIMER?MISC

?PR?BACKLIGHTOFF?BOARD                           -----    -----      -----    -----      -----    -----      -----    --
>> ---
BL51 BANKED LINKER/LOCATER V6.22                                                      01/06/2017  14:57:29  PAGE 93


  +--> ?PR?_MCUSETIOBIT?MCUIO

?PR?PANELPOWEROFF?BOARD                          -----    -----      -----    -----      -----    -----      -----    --
>> ---
  +--> ?PR?_MCUSETIOBIT?MCUIO

?PR?AUDIOPOWEROFF?BOARD                          -----    -----      -----    -----      -----    -----      -----    --
>> ---
  +--> ?PR?_MCUSETIOBIT?MCUIO

?PR?SCALERPOWERDOWN?SCALER_POWER                 -----    -----      -----    -----      -----    -----      -----    --
>> ---
  +--> ?PR?_DISPLAYPOSTPATTERN?SCALER_DISPLAY
  +--> ?PR?_DISABLESCALERPWM?SCALER_PWM
  +--> ?PR?SCALERAUDIOPOWEROFF?SCALER_HDMI
  +--> ?PR?DISABLEDPLL?SCALER_DISPLAY
  +--> ?PR?DVI_POWEROFF?SCALER_TMDS
  +--> ?PR?VGA_POWEROFF?SCALER_ADC
  +--> ?PR?APHYPOWEROFF?SCALER_TMDS
  +--> ?PR?DP_POWEROFF?SCALER_DP
  +--> ?PR?SET6502RESET?SCALER_DP_6502
  +--> ?PR?DISPLAYMUTEIMAGE?SCALER_DISPLAY
  +--> ?PR?MMUPOWEROFF?SCALER_MMU
  +--> ?PR?TURNOFFSCALERMAINPOWER?SCALER_POWER
  +--> ?PR?MCUPOWERDOWNAPLL?MCU
  +--> ?PR?_SETLOWPOWERMODE?SCALER_POWER
  +--> ?PR?DPCONFIGAUXDETECT?SCALER_DP
  +--> ?PR?POWERMOSOFF?BOARD

?PR?_DISABLESCALERPWM?SCALER_PWM                 -----    -----      -----    -----      -----    -----      -----    --
>> ---
  +--> ?PR?SCALER_PWM

?PR?DISABLEDPLL?SCALER_DISPLAY                   -----    -----      -----    -----      -----    -----      -----    --
>> ---
  +--> ?PR?SCALER_DISPLAY

?PR?APHYPOWEROFF?SCALER_TMDS                     0020H.1  0000H.1    -----    -----      -----    -----      -----    --
>> ---
  +--> ?PR?_SC_SETBYTEDPPPPHY?SCALER_TMDS

?PR?DP_POWEROFF?SCALER_DP                        -----    -----      -----    -----      -----    -----      -----    --
>> ---
  +--> ?PR?DP_CLKOFF?SCALER_DP_COMMON
  +--> ?PR?DPPHY_POWEROFF?SCALER_DP_COMMON

?PR?DPPHY_POWEROFF?SCALER_DP_COMMON              -----    -----      -----    -----      -----    -----      -----    --
>> ---
  +--> ?PR?_SC_SETBYTEDPPPPHY?SCALER_TMDS

?PR?SET6502RESET?SCALER_DP_6502                  -----    -----      -----    -----      -----    -----      -----    --
>> ---
  +--> ?PR?_SC_SETBYTEDPPPPHY?SCALER_TMDS

?PR?MMUPOWEROFF?SCALER_MMU                       -----    -----      -----    -----      -----    -----      -----    --
>> ---
  +--> ?PR?GETSCID?SCALER_COMMON
BL51 BANKED LINKER/LOCATER V6.22                                                      01/06/2017  14:57:29  PAGE 94



?PR?MCUPOWERDOWNAPLL?MCU                         -----    -----      -----    -----      -----    -----      -----    --
>> ---
  +--> ?PR?MCU
  +--> ?PR?_MCUIICPRESENDACK?MCUHWIIC

?PR?_SETLOWPOWERMODE?SCALER_POWER                -----    -----      -----    -----      -----    -----      -----    --
>> ---
  +--> ?PR?SCHMITTTRIGGERPOWEROFF?SCALER_ADC
  +--> ?PR?DVI_POWEROFF?SCALER_TMDS
  +--> ?PR?SCALER_POWER
  +--> ?PR?DPCONFIGHWHPD?SCALER_DP
  +--> ?PR?_GETUARTTIMER?MCU

?PR?POWERMOSOFF?BOARD                            -----    -----      -----    -----      -----    -----      -----    --
>> ---
  +--> ?PR?_MCUSETIOBIT?MCUIO

?PR?MODEHANDLER?MODEHANDLER                      -----    -----      -----    -----      -----    -----      -----    --
>> ---
  +--> ?PR?SYNCHANDLER?SYNCHANDLER
  +--> ?PR?MODEHANDLER
  +--> ?PR?GETTIMERTICK?INT
  +--> ?PR?CLEARINPUTTIMING?MODEHANDLER
  +--> ?PR?HDMIHANDLER?SCALER_HDMI
  +--> ?PR?GETINPUTTIMING?MODEHANDLER
  +--> ?PR?MODESEARCH?MODESEARCH
  +--> ?PR?ISOUTOFRANGE?MODECONFIG
  +--> ?PR?MODECONFIG?MODECONFIG
  +--> ?PR?NORMALDISPLAY?SCALER_DISPLAY
  +--> ?PR?ISHDMIDATAMUTE?SCALER_HDMI
  +--> ?PR?ISHDMI?SCALER_HDMI
  +--> ?PR?_HDMIENABLEPREAMBLEDETECTION?SCAL...
  +--> ?PR?_PANELPOWERONSEQUENCE?SYSAPI
  +--> ?PR?DISPLAYNORMALIMAGE?SCALER_DISPLAY
  +--> ?PR?SYSAPI_WAKEUP?SYSAPI
  +--> ?PR?MODEHANDLEPOWERUP?MODEHANDLER
  +--> ?PR?MCUCLKDIVDERCHECK?SCALER_POWER

?PR?SYNCHANDLER?SYNCHANDLER                      -----    -----      -----    -----      -----    -----      -----    --
>> ---
  +--> ?PR?SYNCSOURCE?SYNCHANDLER
  +--> ?PR?TMDS_GETCLOCK?SCALER_TMDS
  +--> ?PR?GETCURRINPUTINTERFACE?SCALER_COMMON
  +--> ?PR?GETDPINPUTHDEIMMEDIATE?SCALER_DP
  +--> ?PR?GETDPINPUTVDEIMMEDIATE?SCALER_DP
  +--> ?PR?GETDIGINPUTHTOTALIMMEDIATE?SCALER...
  +--> ?PR?GETDIGINPUTVTOTALIMMEDIATE?SCALER...
  +--> ?PR?GETDIGINPUTHACTIVEIMMEDIATE?SCALE...
  +--> ?PR?GETDIGINPUTVACTIVEIMMEDIATE?SCALE...
  +--> ?PR?CHECKMODECHANGE?SYNCHANDLER
  +--> ?PR?AUDIOMUTEON?BOARD
  +--> ?PR?SETMODECHANGED?SYNCHANDLER

?PR?SYNCSOURCE?SYNCHANDLER                       -----    -----      -----    -----      -----    -----      A2E5H    00
>> 02H
  +--> ?PR?CHECKINPUTSYNC?SCALER_SYNC
BL51 BANKED LINKER/LOCATER V6.22                                                      01/06/2017  14:57:29  PAGE 95


  +--> ?PR?BISCABLECONNECT?BOARD
  +--> ?PR?UPDATESYNCSRCIDX?SYNCHANDLER
  +--> ?PR?GETSYNCSOURCETIMER?SYNCHANDLER
  +--> ?PR?GETTIMERTICK?INT
  +--> ?PR?SYNCHANDLER
  +--> ?PR?GETSAMEINPUT?SYNCHANDLER
  +--> ?PR?_RECORDCURRENTSOURCE?SYNCHANDLER
  +--> ?PR?GETNEXTINPUT?SYNCHANDLER
  +--> ?PR?_SYSAPI_PERFORMHPDOFF?SYSAPI
  +--> ?PR?BISHPDACTIVE?BOARD
  +--> ?PR?_GETGLOBALTIMER?MISC
  +--> ?PR?SYSAPI_PERFORMHPDON?SYSAPI
  +--> ?CO?SYNCHANDLER
  +--> ?PR?_SETINPUTINTERFACE?SCALER_COMMON

?PR?CHECKINPUTSYNC?SCALER_SYNC                   -----    -----      -----    -----      -----    -----      A2E7H    00
>> 02H
  +--> ?PR?SCALER_SYNC
  +--> ?PR?ISZPMODE?SCALER_POWER
  +--> ?PR?ZPSYNCDETECT?SCALER_SYNC
  +--> ?PR?GETCURRINPUTINTERFACE?SCALER_COMMON
  +--> ?PR?_SETINPUTINTERFACE?SCALER_COMMON
  +--> ?PR?CHECKSOG?SCALER_SYNC
  +--> ?PR?DP_GETCLOCK?SCALER_DP
  +--> ?PR?_TMDSDATAALIGN?SCALER_TMDS
  +--> ?PR?_TMDSCLOCKTRAINING?SCALER_TMDS
  +--> ?PR?_TMDSBANDWIDTHDETECTION?SCALER_TMDS
  +--> ?PR?_HDMIENABLEPREAMBLEDETECTION?SCAL...
  +--> ?PR?_HDMIENABLEAVC?SCALER_HDMI
  +--> ?PR?TMDSCLOCKSTABLE?SCALER_TMDS
  +--> ?PR?TMDS_DUALLINKDETECTION?SCALER_TMDS
  +--> ?PR?TMDSDEEPCOLORDETECTION?SCALER_HDMI
  +--> ?PR?CHECKTMDSVCOVALUE?SCALER_TMDS
  +--> ?PR?CHECKTMDSERRORCOUNTER?SCALER_TMDS
  +--> ?PR?GETINPUTHFREQ?SCALER_SYNC
  +--> ?PR?GETINPUTVFREQ?SCALER_SYNC
  +--> ?PR?_SETUPHSYNCOVERFLOWMASK?SCALER_SYNC

?PR?ZPSYNCDETECT?SCALER_SYNC                     0020H.0  0000H.1    -----    -----      -----    -----      -----    --
>> ---
  +--> ?PR?ZPDPSYNCDETECT?SCALER_SYNC
  +--> ?PR?ZPDVI1SYNCDETECT?SCALER_SYNC
  +--> ?PR?ZPDVI2SYNCDETECT?SCALER_SYNC
  +--> ?PR?ZPDVI3SYNCDETECT?SCALER_SYNC

?PR?ZPDPSYNCDETECT?SCALER_SYNC                   -----    -----      -----    -----      -----    -----      -----    --
>> ---
  +--> ?PR?SCALER_SYNC
  +--> ?PR?ISDPAUXDETECT?SCALER_DP
  +--> ?PR?GETDPLINK?SCALER_DP_COMMON
  +--> ?PR?DPHPDOFF?BOARD
  +--> ?PR?CLRDPLINK?SCALER_DP_COMMON
  +--> ?PR?CLEARDPAUXDETECT?SCALER_DP
  +--> ?PR?SCALERPOWERUP?SCALER_POWER
  +--> ?PR?_SETINPUTINTERFACE?SCALER_COMMON
  +--> ?PR?_SETGLOBALTIMER?MISC

BL51 BANKED LINKER/LOCATER V6.22                                                      01/06/2017  14:57:29  PAGE 96


?PR?SCALERPOWERUP?SCALER_POWER                   -----    -----      -----    -----      -----    -----      -----    --
>> ---
  +--> ?PR?CLEARFORCETOSLEEP?SCALER_POWER
  +--> ?PR?POWERMOSON?BOARD
  +--> ?PR?MCUPOWERUPAPLL?MCU
  +--> ?PR?SCALERINITIALIZE?SCALER_COMMON
  +--> ?PR?APPINITSYSTEM?APPCTRL
  +--> ?PR?MMUPOWERON?SCALER_MMU
  +--> ?PR?_ENABLESCALERPWM?SCALER_PWM
  +--> ?PR?ENABLEDPLL?SCALER_DISPLAY
  +--> ?PR?DVI_POWERON?SCALER_TMDS
  +--> ?PR?VGA_POWERON?SCALER_ADC
  +--> ?PR?SETMODECHANGEFLAG?INT

?PR?POWERMOSON?BOARD                             -----    -----      -----    -----      -----    -----      -----    --
>> ---
  +--> ?PR?_MCUSETIOBIT?MCUIO

?PR?ZPDVI1SYNCDETECT?SCALER_SYNC                 -----    -----      -----    -----      -----    -----      -----    --
>> ---
  +--> ?PR?SCALER_SYNC
  +--> ?PR?TMDS_GETCLOCK?SCALER_TMDS
  +--> ?PR?SCALERPOWERUP?SCALER_POWER
  +--> ?PR?_SETINPUTINTERFACE?SCALER_COMMON
  +--> ?PR?_SYSAPI_PERFORMHPDOFF?SYSAPI
  +--> ?PR?_SLEEP?MISC
  +--> ?PR?SYSAPI_PERFORMHPDON?SYSAPI

?PR?TMDS_GETCLOCK?SCALER_TMDS                    -----    -----      -----    -----      -----    -----      -----    --
>> ---
  +--> ?PR?_READSHORTSCALER?SCALERACCESS

?PR?SYSAPI_PERFORMHPDON?SYSAPI                   -----    -----      -----    -----      -----    -----      A2E9H    00
>> 01H
  +--> ?PR?GETCURRINPUTINTERFACE?SCALER_COMMON
  +--> ?PR?DIGI1HPDON?BOARD
  +--> ?PR?DIGI2HPDON?BOARD
  +--> ?PR?DIGI3HPDON?BOARD
  +--> ?PR?DPHPDON?BOARD

?PR?DIGI1HPDON?BOARD                             -----    -----      -----    -----      -----    -----      -----    --
>> ---
  +--> ?PR?_MCUSETIOBIT?MCUIO

?PR?DIGI2HPDON?BOARD                             -----    -----      -----    -----      -----    -----      -----    --
>> ---
  +--> ?PR?_MCUSETIOBIT?MCUIO

?PR?DIGI3HPDON?BOARD                             -----    -----      -----    -----      -----    -----      -----    --
>> ---
  +--> ?PR?_MCUSETIOBIT?MCUIO

?PR?DPHPDON?BOARD                                -----    -----      -----    -----      -----    -----      -----    --
>> ---
  +--> ?PR?_MCUSETIOBIT?MCUIO
  +--> ?PR?ISZPMODE?SCALER_POWER
  +--> ?PR?DPCONFIGHWHPD?SCALER_DP
BL51 BANKED LINKER/LOCATER V6.22                                                      01/06/2017  14:57:29  PAGE 97



?PR?ZPDVI2SYNCDETECT?SCALER_SYNC                 -----    -----      -----    -----      -----    -----      -----    --
>> ---
  +--> ?PR?SCALER_SYNC
  +--> ?PR?TMDS_GETCLOCK?SCALER_TMDS
  +--> ?PR?SCALERPOWERUP?SCALER_POWER
  +--> ?PR?_SETINPUTINTERFACE?SCALER_COMMON
  +--> ?PR?_SYSAPI_PERFORMHPDOFF?SYSAPI
  +--> ?PR?_SLEEP?MISC
  +--> ?PR?SYSAPI_PERFORMHPDON?SYSAPI

?PR?ZPDVI3SYNCDETECT?SCALER_SYNC                 -----    -----      -----    -----      -----    -----      -----    --
>> ---
  +--> ?PR?SCALER_SYNC
  +--> ?PR?TMDS_GETCLOCK?SCALER_TMDS
  +--> ?PR?SCALERPOWERUP?SCALER_POWER
  +--> ?PR?_SETINPUTINTERFACE?SCALER_COMMON
  +--> ?PR?_SYSAPI_PERFORMHPDOFF?SYSAPI
  +--> ?PR?_SLEEP?MISC
  +--> ?PR?SYSAPI_PERFORMHPDON?SYSAPI

?PR?CHECKSOG?SCALER_SYNC                         -----    -----      -----    -----      -----    -----      A2E9H    00
>> 04H
  +--> ?PR?SCALER_SYNC
  +--> ?PR?_READSHORTSCALER?SCALERACCESS

?PR?DP_GETCLOCK?SCALER_DP                        -----    -----      -----    -----      -----    -----      A30EH    00
>> 0CH
  +--> ?PR?SCALER_DP

?PR?_TMDSDATAALIGN?SCALER_TMDS                   -----    -----      -----    -----      -----    -----      -----    --
>> ---
  +--> ?PR?_GETTMDSPHYDATA?SCALER_TMDS

?PR?_TMDSCLOCKTRAINING?SCALER_TMDS               0020H.2  0000H.3    -----    -----      -----    -----      A2EFH    00
>> 0DH
  +--> ?PR?CLEARTMDSTRAINING?SCALER_TMDS
  +--> ?PR?GETTIMERTICK?INT
  +--> ?PR?SCALER_TMDS
  +--> ?PR?_SC_SETBITDPPPPHY?SCALER_TMDS
  +--> ?PR?_SC_SETBYTEDPPPPHY?SCALER_TMDS
  +--> ?PR?_GETTMDSPHYDATA?SCALER_TMDS
  +--> ?PR?_SLEEP?MISC
  +--> ?PR?_ABS?ABS
  +--> ?PR?TMDS_EQSET_FLOWRESET?SCALER_TMDS
  +--> ?PR?_TMDS_EQSET_EQSETTING?SCALER_TMDS
  +--> ?PR?_TMDS_EQSET_ERRCNTINIT?SCALER_TMDS

?PR?SCALER_TMDS                                  -----    -----      -----    -----      -----    -----      -----    --
>> ---
  +--> ?PR?_SC_SETBYTEDPPPPHY?SCALER_TMDS
  +--> ?PR?_GETTMDSPHYDATA?SCALER_TMDS

?PR?_TMDS_EQSET_EQSETTING?SCALER_TMDS            -----    -----      -----    -----      -----    -----      A2FCH    00
>> 07H
  +--> ?PR?_SC_SETBYTEDPPPPHY?SCALER_TMDS
  +--> ?CO?SCALER_TMDS
BL51 BANKED LINKER/LOCATER V6.22                                                      01/06/2017  14:57:29  PAGE 98


  +--> ?PR?SCALER_TMDS
  +--> ?PR?_GETTMDSPHYDATA?SCALER_TMDS
  +--> ?PR?_SLEEP?MISC

?PR?_TMDS_EQSET_ERRCNTINIT?SCALER_TMDS           -----    -----      -----    -----      -----    -----      -----    --
>> ---
  +--> ?PR?SCALER_TMDS
  +--> ?PR?_GETTMDSPHYDATA?SCALER_TMDS
  +--> ?PR?GETTIMERTICK?INT

?PR?TMDSCLOCKSTABLE?SCALER_TMDS                  -----    -----      -----    -----      -----    -----      A2E9H    00
>> 06H
  +--> ?PR?GETTIMERTICK?INT
  +--> ?PR?SCALER_TMDS
  +--> ?PR?TMDS_GETCLOCK?SCALER_TMDS
  +--> ?PR?_ABS?ABS

?PR?TMDS_DUALLINKDETECTION?SCALER_TMDS           0020H.0  0000H.2    -----    -----      -----    -----      A2E9H    00
>> 06H
  +--> ?PR?GETTMDSPHYLINKSELECT?SCALER_COMMON
  +--> ?PR?_GETTMDSPHYDATA?SCALER_TMDS
  +--> ?PR?GETDIGINPUTHACTIVE?SCALER_TMDS
  +--> ?PR?_TMDSINITPHY?SCALER_TMDS
  +--> ?PR?_SC_SETBITDPPPPHY?SCALER_TMDS
  +--> ?PR?_TMDSDATAALIGN?SCALER_TMDS
  +--> ?PR?CLEARTMDSTRAINING?SCALER_TMDS
  +--> ?PR?_TMDSCLOCKTRAINING?SCALER_TMDS
  +--> ?PR?_ISTMDSLBR?SCALER_TMDS
  +--> ?PR?_SC_SETBYTEDPPPPHY?SCALER_TMDS
  +--> ?PR?_SLEEP?MISC
  +--> ?PR?SCALER_TMDS
  +--> ?PR?GETDIGINPUTVACTIVE?SCALER_TMDS

?PR?GETDIGINPUTHACTIVE?SCALER_TMDS               -----    -----      -----    -----      -----    -----      A2F5H    00
>> 05H
  +--> ?PR?GETCURRINPUTINTERFACE?SCALER_COMMON
  +--> ?PR?GETDPINPUTHDEIMMEDIATE?SCALER_DP
  +--> ?PR?_READSHORTSCALER?SCALERACCESS
  +--> ?PR?_DELAYVTIME?SCALER_SYNC

?PR?GETDPINPUTHDEIMMEDIATE?SCALER_DP             -----    -----      -----    -----      -----    -----      -----    --
>> ---
  +--> ?PR?SCALER_DP

?PR?_DELAYVTIME?SCALER_SYNC                      -----    -----      0027H    0004H      -----    -----      -----    --
>> ---
  +--> ?PR?SCALER_SYNC
  +--> ?PR?GETTIMERTICK?INT

?PR?_ISTMDSLBR?SCALER_TMDS                       -----    -----      -----    -----      -----    -----      -----    --
>> ---
  +--> ?PR?SCALER_TMDS

?PR?GETDIGINPUTVACTIVE?SCALER_TMDS               -----    -----      -----    -----      -----    -----      A2F5H    00
>> 05H
  +--> ?PR?_READSHORTSCALER?SCALERACCESS
  +--> ?PR?_DELAYVTIME?SCALER_SYNC
BL51 BANKED LINKER/LOCATER V6.22                                                      01/06/2017  14:57:29  PAGE 99



?PR?TMDSDEEPCOLORDETECTION?SCALER_HDMI           -----    -----      -----    -----      -----    -----      A30EH    00
>> 03H
  +--> ?PR?GETCURRINPUTINTERFACE?SCALER_COMMON
  +--> ?PR?TMDS_GETCLOCK?SCALER_TMDS
  +--> ?PR?TMDS_ISDUALLINK?SCALER_TMDS
  +--> ?PR?SCALER_HDMI
  +--> ?PR?_SC_SETBYTEDPPPPHY?SCALER_TMDS
  +--> ?PR?_ISTMDSLBR?SCALER_TMDS

?PR?TMDS_ISDUALLINK?SCALER_TMDS                  -----    -----      -----    -----      -----    -----      -----    --
>> ---
  +--> ?PR?GETTMDSPHYLINKSELECT?SCALER_COMMON

?PR?CHECKTMDSVCOVALUE?SCALER_TMDS                -----    -----      -----    -----      -----    -----      -----    --
>> ---
  +--> ?PR?GETCURRINPUTINTERFACE?SCALER_COMMON
  +--> ?PR?_SC_SETBYTEDPPPPHY?SCALER_TMDS
  +--> ?PR?SCALER_TMDS

?PR?CHECKTMDSERRORCOUNTER?SCALER_TMDS            0020H.0  0000H.1    -----    -----      -----    -----      A2E9H    00
>> 02H
  +--> ?PR?GETCURRINPUTINTERFACE?SCALER_COMMON
  +--> ?PR?TMDS_ISDUALLINK?SCALER_TMDS
  +--> ?PR?SCALER_TMDS
  +--> ?PR?_SC_SETBYTEDPPPPHY?SCALER_TMDS
  +--> ?PR?_GETTMDSPHYDATA?SCALER_TMDS
  +--> ?PR?_SLEEP?MISC

?PR?GETINPUTHFREQ?SCALER_SYNC                    -----    -----      -----    -----      -----    -----      A30EH    00
>> 02H
  +--> ?PR?SCALER_SYNC
  +--> ?PR?_READSHORTSCALER?SCALERACCESS

?PR?GETINPUTVFREQ?SCALER_SYNC                    -----    -----      -----    -----      -----    -----      A2E9H    00
>> 02H
  +--> ?PR?SCALER_SYNC
  +--> ?PR?_READSHORTSCALER?SCALERACCESS

?PR?_SETUPHSYNCOVERFLOWMASK?SCALER_SYNC          -----    -----      -----    -----      -----    -----      A2E9H    00
>> 01H
  +--> ?PR?GETCURRINPUTINTERFACE?SCALER_COMMON
  +--> ?PR?SCALER_SYNC

?PR?UPDATESYNCSRCIDX?SYNCHANDLER                 -----    -----      -----    -----      -----    -----      -----    --
>> ---
  +--> ?PR?GETCURRINPUTINTERFACE?SCALER_COMMON
  +--> ?CO?SYNCHANDLER

?PR?GETSYNCSOURCETIMER?SYNCHANDLER               -----    -----      -----    -----      -----    -----      A2E7H    00
>> 02H
  +--> ?PR?GETCURRINPUTINTERFACE?SCALER_COMMON

?PR?SYNCHANDLER                                  -----    -----      -----    -----      -----    -----      -----    --
>> ---
  +--> ?CO?SYNCHANDLER

BL51 BANKED LINKER/LOCATER V6.22                                                      01/06/2017  14:57:29  PAGE 100


?PR?GETSAMEINPUT?SYNCHANDLER                     -----    -----      -----    -----      -----    -----      -----    --
>> ---
  +--> ?PR?SYNCHANDLER

?PR?_RECORDCURRENTSOURCE?SYNCHANDLER             -----    -----      -----    -----      -----    -----      -----    --
>> ---
  +--> ?PR?UPDATESYNCSRCIDX?SYNCHANDLER

?PR?GETNEXTINPUT?SYNCHANDLER                     -----    -----      -----    -----      -----    -----      -----    --
>> ---
  +--> ?PR?SYNCHANDLER
  +--> ?PR?GETSAMEINPUT?SYNCHANDLER

?PR?BISHPDACTIVE?BOARD                           -----    -----      -----    -----      -----    -----      A2E7H    00
>> 01H
  +--> ?PR?GETCURRINPUTINTERFACE?SCALER_COMMON
  +--> ?PR?_MCUGETIOBIT?MCUIO

?PR?GETDPINPUTVDEIMMEDIATE?SCALER_DP             -----    -----      -----    -----      -----    -----      -----    --
>> ---
  +--> ?PR?SCALER_DP

?PR?GETDIGINPUTHTOTALIMMEDIATE?SCALER...         -----    -----      -----    -----      -----    -----      -----    --
>> ---
  +--> ?PR?GETCURRINPUTINTERFACE?SCALER_COMMON
  +--> ?PR?_READSHORTSCALERHIGHLOWFILTER?SCA...

?PR?_READSHORTSCALERHIGHLOWFILTER?SCA...         -----    -----      -----    -----      -----    -----      A331H    00
>> 06H
  +--> ?PR?SCALERACCESS
  +--> ?PR?_READSHORTSCALER?SCALERACCESS

?PR?GETDIGINPUTVTOTALIMMEDIATE?SCALER...         -----    -----      -----    -----      -----    -----      -----    --
>> ---
  +--> ?PR?GETCURRINPUTINTERFACE?SCALER_COMMON
  +--> ?PR?_READSHORTSCALERHIGHLOWFILTER?SCA...

?PR?GETDIGINPUTHACTIVEIMMEDIATE?SCALE...         -----    -----      -----    -----      -----    -----      -----    --
>> ---
  +--> ?PR?TMDS_ISDUALLINK?SCALER_TMDS
  +--> ?PR?_READSHORTSCALERHIGHLOWFILTER?SCA...

?PR?GETDIGINPUTVACTIVEIMMEDIATE?SCALE...         -----    -----      -----    -----      -----    -----      -----    --
>> ---
  +--> ?PR?TMDS_ISDUALLINK?SCALER_TMDS
  +--> ?PR?_READSHORTSCALERHIGHLOWFILTER?SCA...

?PR?CHECKMODECHANGE?SYNCHANDLER                  -----    -----      -----    -----      -----    -----      -----    --
>> ---
  +--> ?PR?ISFORCETOSLEEP?SCALER_POWER
  +--> ?PR?CLEARMODECHANGEFLAG?INT
  +--> ?PR?TMDS_ENABLESCDT?SCALER_TMDS
  +--> ?PR?TMDS_GETCLOCK?SCALER_TMDS
  +--> ?PR?SYNCHANDLER
  +--> ?PR?GETCURRINPUTINTERFACE?SCALER_COMMON
  +--> ?PR?GETDPINPUTHDEIMMEDIATE?SCALER_DP
  +--> ?PR?GETDPINPUTVDEIMMEDIATE?SCALER_DP
BL51 BANKED LINKER/LOCATER V6.22                                                      01/06/2017  14:57:29  PAGE 101


  +--> ?PR?TMDS_ISDUALLINK?SCALER_TMDS
  +--> ?PR?GETDIGINPUTHACTIVEIMMEDIATE?SCALE...
  +--> ?PR?GETDIGINPUTVACTIVEIMMEDIATE?SCALE...
  +--> ?PR?GETDIGINPUTHTOTALIMMEDIATE?SCALER...
  +--> ?PR?GETDIGINPUTVTOTALIMMEDIATE?SCALER...
  +--> ?PR?_ABS?ABS
  +--> ?PR?HDMISOFTRESET?SCALER_HDMI
  +--> ?PR?ISINTERLACESYNCPRESET?SCALER_SYNC
  +--> ?PR?CHECKMODECHANGEFLAG?INT

?PR?SETMODECHANGED?SYNCHANDLER                   -----    -----      -----    -----      -----    -----      A2E5H    00
>> 01H
  +--> ?PR?SCALERAUDIOPREMUTE?SCALER_HDMI
  +--> ?PR?GETCURRINPUTINTERFACE?SCALER_COMMON
  +--> ?PR?_SYSAPI_PERFORMHPDOFF?SYSAPI
  +--> ?PR?_SLEEP?MISC
  +--> ?PR?SYSAPI_PERFORMHPDON?SYSAPI
  +--> ?PR?CLEARTMDSTRAINING?SCALER_TMDS
  +--> ?PR?_FORCE2BACKGROUND?SCALER_DISPLAY
  +--> ?PR?GETSYNCSOURCETIMER?SYNCHANDLER
  +--> ?PR?GETTIMERTICK?INT
  +--> ?PR?CLEARMODECHANGEFLAG?INT
  +--> ?PR?CLEARFORCETOSLEEP?SCALER_POWER

?PR?HDMIHANDLER?SCALER_HDMI                      -----    -----      -----    -----      -----    -----      A2E5H    00
>> 01H
  +--> ?PR?GETCURRINPUTINTERFACE?SCALER_COMMON
  +--> ?PR?SCALER_HDMI
  +--> ?PR?GETTIMERTICK?INT
  +--> ?PR?GETMODEHANDLESTATE?MODEHANDLER
  +--> ?PR?GETSCALERCOLORSPACE?SCALER_CSC
  +--> ?PR?SETMODECHANGEFLAG?INT
  +--> ?PR?SETCOLORSPACE?SCALER_CSC
  +--> ?PR?_SLEEP?MISC

?PR?SETCOLORSPACE?SCALER_CSC                     -----    -----      -----    -----      -----    -----      -----    --
>> ---
  +--> ?PR?SETCOLORSPACE_OSD_HDMI_RGB_PC_RAN...

?PR?SETCOLORSPACE_OSD_HDMI_RGB_PC_RAN...         -----    -----      -----    -----      -----    -----      -----    --
>> ---
  +--> ?PR?GETCURRINPUTINTERFACE?SCALER_COMMON
  +--> ?PR?_CSC_CHECKINPUTFORMAT?SCALER_CSC
  +--> ?PR?CSC_SETPOSTPATTERNCOLOR?SCALER_CSC
  +--> ?PR?CSC_SETREPETITION?SCALER_CSC
  +--> ?PR?CSC_SETSCALERCSC?SCALER_CSC
  +--> ?PR?CSC_SETCAPTURECSC?SCALER_CSC

?PR?_CSC_CHECKINPUTFORMAT?SCALER_CSC             -----    -----      -----    -----      -----    -----      A2F5H    00
>> 05H
  +--> ?PR?ISHDMIVIDEO?SCALER_HDMI
  +--> ?PR?_READSHORTSCALER?SCALERACCESS
  +--> ?PR?SCALER_CSC
  +--> ?PR?ISCOMPONENTINPUT?MODECONFIG
  +--> ?PR?_SLEEP?MISC

?PR?ISCOMPONENTINPUT?MODECONFIG                  -----    -----      -----    -----      -----    -----      -----    --
BL51 BANKED LINKER/LOCATER V6.22                                                      01/06/2017  14:57:29  PAGE 102


>> ---
  +--> ?PR?GETCURRINPUTINTERFACE?SCALER_COMMON
  +--> ?PR?ISCOMPONENTTIMING?MODECONFIG

?PR?ISCOMPONENTTIMING?MODECONFIG                 -----    -----      -----    -----      -----    -----      -----    --
>> ---
  +--> ?PR?MODECONFIG

?PR?CSC_SETPOSTPATTERNCOLOR?SCALER_CSC           -----    -----      -----    -----      -----    -----      -----    --
>> ---
  +--> ?PR?ISHDMIVIDEO?SCALER_HDMI

?PR?CSC_SETSCALERCSC?SCALER_CSC                  -----    -----      -----    -----      -----    -----      A2F5H    00
>> 0BH
  +--> ?PR?SCALER_CSC
  +--> ?CO?SCALER_CSC
  +--> ?PR?_WRITESHORTSCALER?SCALERACCESS

?PR?CSC_SETCAPTURECSC?SCALER_CSC                 -----    -----      -----    -----      -----    -----      -----    --
>> ---
  +--> ?PR?SCALER_CSC

?PR?GETINPUTTIMING?MODEHANDLER                   -----    -----      -----    -----      -----    -----      -----    --
>> ---
  +--> ?PR?GETINPUTHFREQ?SCALER_SYNC
  +--> ?PR?GETINPUTVFREQ?SCALER_SYNC
  +--> ?PR?GETINPUTHSYNCWIDTH?SCALER_SYNC
  +--> ?PR?GETINPUTVSYNCWIDTH?SCALER_SYNC
  +--> ?PR?GETINPUTHVPOLARITY?SCALER_SYNC
  +--> ?PR?GETINPUTVTOTAL?SCALER_SYNC

?PR?GETINPUTVTOTAL?SCALER_SYNC                   -----    -----      -----    -----      -----    -----      A315H    00
>> 04H
  +--> ?PR?SCALER_SYNC
  +--> ?PR?_READSHORTSCALER?SCALERACCESS

?PR?MODESEARCH?MODESEARCH                        0020H.0  0000H.1    -----    -----      -----    -----      A2E5H    00
>> 10H
  +--> ?PR?SETUPINTERLACE?SCALER_SYNC
  +--> ?PR?_SETCSCCOLORSPACE?SCALER_CSC
  +--> ?PR?GETINPUTSYNCMODE?SYNCHANDLER
  +--> ?PR?GETAVERAGEINPUTVSYNCWIDTH?MODESEARCH
  +--> ?PR?MODESEARCH
  +--> ?PR?_ISNONSUPPORTMODE?MODESEARCH
  +--> ?PR?ISINTERLACED?SCALER_SYNC
  +--> ?PR?_ABS?ABS
  +--> ?CO?MODETABLE
  +--> ?PR?_COPYMODETABLE?MODESEARCH
  +--> ?PR?_NVRAMREADTIMINGDATA?NVRAM
  +--> ?PR?_NVRAMWRITETIMINGDATA?NVRAM
  +--> ?PR?GETDIGINPUTVACTIVE?SCALER_TMDS
  +--> ?PR?GETDIGINPUTHACTIVE?SCALER_TMDS

?PR?SETUPINTERLACE?SCALER_SYNC                   -----    -----      -----    -----      -----    -----      -----    --
>> ---
  +--> ?PR?ISINTERLACESYNCPRESET?SCALER_SYNC

BL51 BANKED LINKER/LOCATER V6.22                                                      01/06/2017  14:57:29  PAGE 103


?PR?_SETCSCCOLORSPACE?SCALER_CSC                 -----    -----      -----    -----      -----    -----      -----    --
>> ---
  +--> ?PR?SETCOLORSPACE?SCALER_CSC

?PR?GETAVERAGEINPUTVSYNCWIDTH?MODESEARCH         -----    -----      -----    -----      -----    -----      A2F5H    00
>> 08H
  +--> ?PR?GETINPUTVSYNCWIDTH?SCALER_SYNC
  +--> ?PR?_DELAYVTIME?SCALER_SYNC

?PR?MODESEARCH                                   -----    -----      -----    -----      -----    -----      -----    --
>> ---
  +--> ?CO?MODETABLE

?PR?_ISNONSUPPORTMODE?MODESEARCH                 -----    -----      -----    -----      -----    -----      -----    --
>> ---
  +--> ?CO?MODESEARCH

?PR?_COPYMODETABLE?MODESEARCH                    -----    -----      -----    -----      -----    -----      -----    --
>> ---
  +--> ?PR?MODESEARCH
  +--> ?CO?MODETABLE

?PR?_NVRAMREADTIMINGDATA?NVRAM                   0020H.1  0000H.1    -----    -----      -----    -----      A2F5H    00
>> 15H
  +--> ?PR?NVRAM
  +--> ?PR?_NVRAMREAD?NVRAM

?PR?_NVRAMWRITETIMINGDATA?NVRAM                  0020H.1  0000H.1    -----    -----      -----    -----      A2F5H    00
>> 17H
  +--> ?PR?NVRAM
  +--> ?PR?_NVRAMREAD?NVRAM
  +--> ?PR?_NVRAMWRITESYSTEMDATA?NVRAM
  +--> ?PR?_NVRAMWRITE?NVRAM

?PR?ISOUTOFRANGE?MODECONFIG                      -----    -----      -----    -----      -----    -----      -----    --
>> ---
  +--> ?PR?TMDS_ISDUALLINK?SCALER_TMDS
  +--> ?PR?ISVIDEOTIMING?MODECONFIG
  +--> ?PR?GETINPUTSYNCMODE?SYNCHANDLER
  +--> ?PR?_CHECKADCPLLOUTOFRANGE?AUTOADJ

?PR?ISVIDEOTIMING?MODECONFIG                     -----    -----      -----    -----      -----    -----      -----    --
>> ---
  +--> ?PR?MODECONFIG

?PR?_CHECKADCPLLOUTOFRANGE?AUTOADJ               -----    -----      -----    -----      -----    -----      A2F7H    00
>> 02H
  +--> ?PR?GETINPUTHFREQ?SCALER_SYNC

?PR?MODECONFIG?MODECONFIG                        0020H.0  0000H.1    -----    -----      -----    -----      A2E5H    00
>> 01H
  +--> ?PR?GETCURRINPUTINTERFACE?SCALER_COMMON
  +--> ?PR?GETINPUTSYNCMODE?SYNCHANDLER
  +--> ?PR?POWERDOWNANALOGINPUT?SCALER_POWER
  +--> ?PR?SETDVIPLL?SCALER_TMDS
  +--> ?PR?DVIAUTOPOSITION?AUTOADJ
  +--> ?PR?POWERDOWNDIGITALINPUT?SCALER_POWER
BL51 BANKED LINKER/LOCATER V6.22                                                      01/06/2017  14:57:29  PAGE 104


  +--> ?PR?DP_AUDIOMNCHECKERINIT?SCALER_DP
  +--> ?PR?DPCONFIGCRC?SCALER_DP
  +--> ?PR?CLEARHDMISTATUS?SCALER_HDMI
  +--> ?PR?SETNRBYDIGITALTIMING?NR
  +--> ?PR?APHYPOWEROFF?SCALER_TMDS
  +--> ?PR?CHECKINVALIDPARAMETER?MODECONFIG
  +--> ?PR?_SETADCPLL?SCALER_ADC
  +--> ?PR?_SETADCPHASE?SCALER_ADC
  +--> ?PR?SETNRBYANALOGTIMING?NR
  +--> ?PR?SETMINMAX?MODECONFIG
  +--> ?PR?MODECONFIG
  +--> ?PR?_SETHP?SCALER_CAPTURE
  +--> ?PR?_SETVP?SCALER_CAPTURE
  +--> ?PR?CHECKOVERSCAN?MODECONFIG
  +--> ?PR?SETHMASK?AUTOADJ
  +--> ?PR?_SETUPDISPLAYTIMING?SCALER_DISPLAY
  +--> ?PR?USERSETSR?USERSETTING
  +--> ?PR?DPCONFIGFIFO?SCALER_DP

?PR?POWERDOWNANALOGINPUT?SCALER_POWER            -----    -----      -----    -----      -----    -----      -----    --
>> ---
  +--> ?PR?VGA_POWEROFF?SCALER_ADC

?PR?SETDVIPLL?SCALER_TMDS                        -----    -----      -----    -----      -----    -----      -----    --
>> ---
  +--> ?PR?TMDSDEEPCOLORDETECTION?SCALER_HDMI
  +--> ?PR?_READSHORTSCALER?SCALERACCESS

?PR?DVIAUTOPOSITION?AUTOADJ                      0020H.4  0000H.1    -----    -----      -----    -----      A2EFH    00
>> 02H
  +--> ?PR?SETHMASK?AUTOADJ
  +--> ?PR?_SLEEP?MISC
  +--> ?PR?GETTIMERTICK?INT
  +--> ?PR?AUTOADJ
  +--> ?PR?CHECKMODECHANGEFLAG?INT
  +--> ?PR?_READSHORTSCALER?SCALERACCESS
  +--> ?PR?_WRITESHORTSCALER?SCALERACCESS
  +--> ?PR?_SETEVENFIELDOFFSET?SCALER_CAPTURE

?PR?SETHMASK?AUTOADJ                             -----    -----      -----    -----      -----    -----      A2FAH    00
>> 09H
  +--> ?PR?AUTOADJ
  +--> ?PR?_READSHORTSCALER?SCALERACCESS

?PR?POWERDOWNDIGITALINPUT?SCALER_POWER           -----    -----      -----    -----      -----    -----      -----    --
>> ---
  +--> ?PR?DVI_POWEROFF?SCALER_TMDS

?PR?DP_AUDIOMNCHECKERINIT?SCALER_DP              -----    -----      -----    -----      -----    -----      -----    --
>> ---
  +--> ?PR?SCALER_DP
  +--> ?PR?_DP_AUDIOSETAUDIOPATH?SCALER_DP

?PR?SETNRBYDIGITALTIMING?NR                      -----    -----      -----    -----      -----    -----      -----    --
>> ---
  +--> ?PR?_NRSETNRTYPE?SCALER_NR
  +--> ?PR?_DITHSETDITHERMODE?SCALER_DITHERING
BL51 BANKED LINKER/LOCATER V6.22                                                      01/06/2017  14:57:29  PAGE 105



?PR?CHECKINVALIDPARAMETER?MODECONFIG             -----    -----      -----    -----      -----    -----      -----    --
>> ---
  +--> ?PR?MODECONFIG

?PR?_SETADCPLL?SCALER_ADC                        -----    -----      -----    -----      -----    -----      A2E6H    00
>> 06H
  +--> ?PR?SCALER_ADC
  +--> ?PR?_READSHORTSCALER?SCALERACCESS
  +--> ?PR?_WRITESHORTSCALER?SCALERACCESS

?PR?SETNRBYANALOGTIMING?NR                       -----    -----      -----    -----      -----    -----      A2E6H    00
>> 04H
  +--> ?PR?NR
  +--> ?CO?NR
  +--> ?PR?_SETADCBANDWIDTH?SCALER_ADC
  +--> ?PR?_ENABLEADCGNDSAMPLING?SCALER_ADC
  +--> ?PR?_NRSETNRTYPE?SCALER_NR
  +--> ?PR?_NRSETEDGETHR?SCALER_NR
  +--> ?PR?_NRSETNRTHR?SCALER_NR
  +--> ?PR?_NRSETJCLVL?SCALER_NR
  +--> ?PR?_NRSETNR2THR?SCALER_NR
  +--> ?PR?_NRSETGCCFG?SCALER_NR
  +--> ?PR?_DITHSETDITHERMODE?SCALER_DITHERING

?PR?_SETADCBANDWIDTH?SCALER_ADC                  -----    -----      -----    -----      -----    -----      A2EAH    00
>> 05H
  +--> ?PR?SCALER_ADC
  +--> ?PR?_READSHORTSCALER?SCALERACCESS

?PR?_NRSETNRTHR?SCALER_NR                        -----    -----      -----    -----      -----    -----      -----    --
>> ---
  +--> ?PR?SCALER_NR

?PR?_NRSETJCLVL?SCALER_NR                        -----    -----      -----    -----      -----    -----      -----    --
>> ---
  +--> ?PR?SCALER_NR

?PR?_NRSETNR2THR?SCALER_NR                       -----    -----      -----    -----      -----    -----      -----    --
>> ---
  +--> ?PR?SCALER_NR

?PR?_NRSETGCCFG?SCALER_NR                        -----    -----      -----    -----      -----    -----      -----    --
>> ---
  +--> ?PR?SCALER_NR

?PR?SETMINMAX?MODECONFIG                         -----    -----      -----    -----      -----    -----      -----    --
>> ---
  +--> ?PR?MODECONFIG

?PR?_SETHP?SCALER_CAPTURE                        -----    -----      -----    -----      -----    -----      -----    --
>> ---
  +--> ?PR?_WRITESHORTSCALER?SCALERACCESS

?PR?_SETVP?SCALER_CAPTURE                        -----    -----      -----    -----      -----    -----      A315H    00
>> 02H
  +--> ?PR?_WRITESHORTSCALER?SCALERACCESS
BL51 BANKED LINKER/LOCATER V6.22                                                      01/06/2017  14:57:29  PAGE 106


  +--> ?PR?SCALER_CAPTURE

?PR?CHECKOVERSCAN?MODECONFIG                     -----    -----      -----    -----      -----    -----      -----    --
>> ---
  +--> ?PR?GETINPUTSYNCMODE?SYNCHANDLER
  +--> ?PR?ISCOMPONENTINPUT?MODECONFIG
  +--> ?PR?ISOVERSCAN?MODECONFIG
  +--> ?PR?GETCURRINPUTINTERFACE?SCALER_COMMON
  +--> ?PR?ISHDMI?SCALER_HDMI
  +--> ?PR?_SETVGAOVERSCANRATIO?MODECONFIG
  +--> ?PR?_SETOVERSCANRATIO?MODECONFIG

?PR?ISOVERSCAN?MODECONFIG                        -----    -----      -----    -----      -----    -----      -----    --
>> ---
  +--> ?PR?ISCOMPONENTINPUT?MODECONFIG

?PR?_SETVGAOVERSCANRATIO?MODECONFIG              -----    -----      -----    -----      -----    -----      A2ECH    00
>> 02H
  +--> ?PR?MODECONFIG
  +--> ?PR?ISINTERLACED?SCALER_SYNC
  +--> ?PR?_SETHSVSOFFSET?MODECONFIG
  +--> ?PR?_SETCAPTURESIZE?SCALER_CAPTURE
  +--> ?PR?_SETHP?SCALER_CAPTURE
  +--> ?PR?_SETVP?SCALER_CAPTURE
  +--> ?PR?_DELAYVTIME?SCALER_SYNC

?PR?_SETCAPTURESIZE?SCALER_CAPTURE               -----    -----      -----    -----      -----    -----      A2EFH    00
>> 02H
  +--> ?PR?_WRITESHORTSCALER?SCALERACCESS

?PR?_SETOVERSCANRATIO?MODECONFIG                 -----    -----      -----    -----      -----    -----      A2ECH    00
>> 03H
  +--> ?PR?MODECONFIG
  +--> ?PR?GETINPUTVSTART?SCALER_CAPTURE
  +--> ?PR?_WRITESHORTSCALER?SCALERACCESS
  +--> ?PR?ISINTERLACED?SCALER_SYNC
  +--> ?PR?_SETHP?SCALER_CAPTURE
  +--> ?PR?_SETVP?SCALER_CAPTURE
  +--> ?PR?_SETCAPTURESIZE?SCALER_CAPTURE
  +--> ?PR?_DELAYVTIME?SCALER_SYNC
  +--> ?PR?ENABLEOVERSAMPLE?SCALER_CAPTURE
  +--> ?PR?ISOVERSAMPLE?SCALER_CAPTURE
  +--> ?PR?DISABLEOVERSAMPLE?SCALER_CAPTURE
  +--> ?PR?DVIAUTOPOSITION?AUTOADJ
  +--> ?PR?UPDATECAPTUREINFO?MODECONFIG

?PR?GETINPUTVSTART?SCALER_CAPTURE                -----    -----      -----    -----      -----    -----      -----    --
>> ---
  +--> ?PR?_READSHORTSCALER?SCALERACCESS

?PR?UPDATECAPTUREINFO?MODECONFIG                 -----    -----      -----    -----      -----    -----      A2EFH    00
>> 02H
  +--> ?PR?GETDIGINPUTVACTIVE?SCALER_TMDS
  +--> ?PR?ISINTERLACED?SCALER_SYNC
  +--> ?PR?GETDIGINPUTHACTIVE?SCALER_TMDS
  +--> ?PR?MODECONFIG
  +--> ?PR?GETINPUTHSTART?SCALER_CAPTURE
BL51 BANKED LINKER/LOCATER V6.22                                                      01/06/2017  14:57:29  PAGE 107


  +--> ?PR?GETINPUTVSTART?SCALER_CAPTURE

?PR?GETINPUTHSTART?SCALER_CAPTURE                -----    -----      -----    -----      -----    -----      -----    --
>> ---
  +--> ?PR?_READSHORTSCALER?SCALERACCESS

?PR?_SETUPDISPLAYTIMING?SCALER_DISPLAY           0020H.4  0000H.1    -----    -----      -----    -----      A2ECH    00
>> 1FH
  +--> ?PR?SCALER_DISPLAY
  +--> ?PR?_READSHORTSCALER?SCALERACCESS
  +--> ?PR?LOADDEFAULTPANELDATA?SCALER_DISPLAY
  +--> ?PR?SETFREERUNCLK?SCALER_DISPLAY
  +--> ?PR?GETINPUTVTOTAL?SCALER_SYNC
  +--> ?PR?ISINTERLACED?SCALER_SYNC
  +--> ?PR?_DISPCLKCOMPRESS?SCALER_DISPLAY
  +--> ?PR?_WRITESHORTSCALER?SCALERACCESS
  +--> ?PR?SETDPLL?SCALER_DISPLAY
  +--> ?PR?_SLEEP?MISC
  +--> ?PR?CHECKMODECHANGEFLAG?INT
  +--> ?PR?_READSHORTSCALERHIGHLOWFILTER?SCA...
  +--> ?PR?_ABS?ABS
  +--> ?PR?CHECKFIFO?SCALER_DISPLAY
  +--> ?PR?CHECKINTERLACEDSIGNALFIELD?SCALER...
  +--> ?PR?SETFIXHR2?SCALER_DISPLAY
  +--> ?PR?SETSRINPUTTIMINGPARAMETER?SR

?PR?_DISPCLKCOMPRESS?SCALER_DISPLAY              -----    -----      -----    -----      -----    -----      A30BH    00
>> 06H
  +--> ?PR?SCALER_DISPLAY
  +--> ?PR?ISINTERLACED?SCALER_SYNC

?PR?CHECKFIFO?SCALER_DISPLAY                     -----    -----      -----    -----      -----    -----      A30BH    00
>> 02H
  +--> ?PR?ISINTERLACED?SCALER_SYNC
  +--> ?PR?GETINPUTVTOTAL?SCALER_SYNC
  +--> ?PR?SCALER_DISPLAY
  +--> ?PR?GETVCAPTURESIZE?SCALER_CAPTURE
  +--> ?PR?GETDIGINPUTVACTIVEIMMEDIATE?SCALE...
  +--> ?PR?_READSHORTSCALER?SCALERACCESS
  +--> ?PR?_WRITESHORTSCALER?SCALERACCESS
  +--> ?PR?GETHCAPTURESIZE?SCALER_CAPTURE

?PR?GETVCAPTURESIZE?SCALER_CAPTURE               -----    -----      -----    -----      -----    -----      -----    --
>> ---
  +--> ?PR?_READSHORTSCALER?SCALERACCESS

?PR?GETHCAPTURESIZE?SCALER_CAPTURE               -----    -----      -----    -----      -----    -----      -----    --
>> ---
  +--> ?PR?_READSHORTSCALER?SCALERACCESS

?PR?CHECKINTERLACEDSIGNALFIELD?SCALER...         -----    -----      -----    -----      -----    -----      A30BH    00
>> 0AH
  +--> ?PR?ISINTERLACED?SCALER_SYNC
  +--> ?PR?SCALER_DISPLAY
  +--> ?PR?DISABLEDCLKSSC?SCALER_DISPLAY
  +--> ?PR?GETINPUTVSTART?SCALER_CAPTURE
  +--> ?PR?_READSHORTSCALERHIGHLOWFILTER?SCA...
BL51 BANKED LINKER/LOCATER V6.22                                                      01/06/2017  14:57:29  PAGE 108


  +--> ?PR?_SETEVENFIELDOFFSET?SCALER_CAPTURE
  +--> ?PR?_SETVP?SCALER_CAPTURE
  +--> ?PR?_DELAYVTIME?SCALER_SYNC
  +--> ?PR?GETINPUTVTOTAL?SCALER_SYNC
  +--> ?PR?GETVCAPTURESIZE?SCALER_CAPTURE
  +--> ?PR?GETDIGINPUTVACTIVEIMMEDIATE?SCALE...
  +--> ?PR?_READSHORTSCALER?SCALERACCESS
  +--> ?PR?_WRITESHORTSCALER?SCALERACCESS
  +--> ?PR?_ABS?ABS

?PR?SETFIXHR2?SCALER_DISPLAY                     -----    -----      -----    -----      -----    -----      A30BH    00
>> 26H
  +--> ?PR?SCALER_DISPLAY
  +--> ?PR?_READSHORTSCALER?SCALERACCESS
  +--> ?PR?_WRITESHORTSCALER?SCALERACCESS
  +--> ?PR?_READSHORTSCALERHIGHLOWFILTER?SCA...
  +--> ?PR?SETDPLL?SCALER_DISPLAY
  +--> ?PR?_SLEEP?MISC
  +--> ?PR?CHECKMODECHANGEFLAG?INT
  +--> ?PR?_DELAYVTIME?SCALER_SYNC
  +--> ?PR?ISINTERLACED?SCALER_SYNC
  +--> ?PR?GETVCOUNTER?SCALER_DISPLAY
  +--> ?PR?_READ3BYTESCALERHIGHLOWFILTER?SCA...

?PR?GETVCOUNTER?SCALER_DISPLAY                   -----    -----      -----    -----      -----    -----      A331H    00
>> 09H
  +--> ?PR?SCALER_DISPLAY
  +--> ?PR?_READ3BYTESCALERHIGHLOWFILTER?SCA...
  +--> ?PR?_LABS?LABS
  +--> ?PR?_DELAYVTIME?SCALER_SYNC

?PR?_READ3BYTESCALERHIGHLOWFILTER?SCA...         -----    -----      -----    -----      -----    -----      A33AH    00
>> 08H
  +--> ?PR?SCALERACCESS
  +--> ?PR?_READ3BYTESCALER?SCALERACCESS

?PR?_READ3BYTESCALER?SCALERACCESS                -----    -----      -----    -----      -----    -----      A342H    00
>> 08H
  +--> ?PR?SCALERACCESS

?PR?SETSRINPUTTIMINGPARAMETER?SR                 -----    -----      -----    -----      -----    -----      A30BH    00
>> 03H
  +--> ?PR?GETINPUTSYNCMODE?SYNCHANDLER
  +--> ?PR?GETCURRINPUTINTERFACE?SCALER_COMMON
  +--> ?PR?DP_GETCLOCK?SCALER_DP
  +--> ?PR?SR
  +--> ?PR?TMDSDEEPCOLORDETECTION?SCALER_HDMI
  +--> ?PR?_SRAPI_SETHTOTAL?SRAPI
  +--> ?PR?ISINTERLACED?SCALER_SYNC
  +--> ?PR?_READSHORTSCALER?SCALERACCESS
  +--> ?PR?GETANGINPUTHTOTAL?SCALER_ADC
  +--> ?PR?_SRAPI_SETCAPTURESIZE?SRAPI
  +--> ?PR?GETINPUTHFREQ?SCALER_SYNC

?PR?_SRAPI_SETHTOTAL?SRAPI                       -----    -----      -----    -----      -----    -----      -----    --
>> ---
  +--> ?PR?_WRITESHORTSCALER?SCALERACCESS
BL51 BANKED LINKER/LOCATER V6.22                                                      01/06/2017  14:57:29  PAGE 109



?PR?GETANGINPUTHTOTAL?SCALER_ADC                 -----    -----      -----    -----      -----    -----      -----    --
>> ---
  +--> ?PR?SCALER_ADC
  +--> ?PR?_READSHORTSCALER?SCALERACCESS

?PR?_SRAPI_SETCAPTURESIZE?SRAPI                  -----    -----      -----    -----      -----    -----      A30EH    00
>> 02H
  +--> ?PR?_WRITESHORTSCALER?SCALERACCESS

?PR?USERSETSR?USERSETTING                        -----    -----      -----    -----      -----    -----      -----    --
>> ---
  +--> ?PR?_SETSRMODE?SR

?PR?_SETSRMODE?SR                                -----    -----      -----    -----      -----    -----      A2EAH    00
>> 01H
  +--> ?PR?SR
  +--> ?CO?SR
  +--> ?PR?_SRAPI_SETMDNFILTER?SRAPI
  +--> ?PR?_SRAPI_SETUSMFILTER?SRAPI
  +--> ?PR?_SRAPI_SETUSMLPTHRESHOLD?SRAPI
  +--> ?PR?_SRAPI_SETUSMDARKLIMIT?SRAPI
  +--> ?PR?_SRAPI_TURNONOFF?SRAPI
  +--> ?PR?SETCOLORSPACE?SCALER_CSC

?PR?_SRAPI_SETMDNFILTER?SRAPI                    -----    -----      -----    -----      -----    -----      -----    --
>> ---
  +--> ?PR?SRAPI
  +--> ?PR?_WRITESHORTSCALER?SCALERACCESS

?PR?_SRAPI_SETUSMFILTER?SRAPI                    -----    -----      -----    -----      -----    -----      A2EBH    00
>> 06H
  +--> ?PR?SRAPI
  +--> ?PR?_WRITESHORTSCALER?SCALERACCESS

?PR?_SRAPI_SETUSMLPTHRESHOLD?SRAPI               -----    -----      -----    -----      -----    -----      -----    --
>> ---
  +--> ?PR?_WRITESHORTSCALER?SCALERACCESS

?PR?DPCONFIGFIFO?SCALER_DP                       -----    -----      -----    -----      -----    -----      -----    --
>> ---
  +--> ?PR?GETDPINPUTHDEIMMEDIATE?SCALER_DP
  +--> ?PR?_SLEEP?MISC
  +--> ?PR?_READSHORTSCALER?SCALERACCESS

?PR?NORMALDISPLAY?SCALER_DISPLAY                 -----    -----      -----    -----      -----    -----      A2E5H    00
>> 01H
  +--> ?PR?GETCURRINPUTINTERFACE?SCALER_COMMON
  +--> ?PR?SCALER_DISPLAY
  +--> ?PR?USERSETASPECTRATIO?USERSETTING
  +--> ?PR?_SETPOSTBGCOLOR?SCALER_DISPLAY
  +--> ?PR?_SLEEP?MISC
  +--> ?PR?WAITHPLLSTABLE?SCALER_ADC
  +--> ?PR?HWAUTOOFFSET?AUTOADJ
  +--> ?PR?_SETUPHSYNCOVERFLOWMASK?SCALER_SYNC

?PR?USERSETASPECTRATIO?USERSETTING               0020H.3  0000H.1    -----    -----      -----    -----      A2EAH    00
BL51 BANKED LINKER/LOCATER V6.22                                                      01/06/2017  14:57:29  PAGE 110


>> 02H
  +--> ?PR?GETASPRATIOSETTING?USERSETTING
  +--> ?CO?NVRAM
  +--> ?PR?APPISOUTOFLIMIT?APPCTRL
  +--> ?PR?ISBACKLIGHTON?BOARD
  +--> ?PR?BACKLIGHTOFF?BOARD
  +--> ?PR?_SETDISPLAYMODE?SCALER_DISPLAY
  +--> ?PR?GRAPHICDISPLAYWINDOWDISABLE?SCALE...
  +--> ?PR?CHECKOVERSCAN?MODECONFIG
  +--> ?PR?SETSRINPUTTIMINGPARAMETER?SR
  +--> ?PR?_SETUPDISPLAYTIMING?SCALER_DISPLAY
  +--> ?PR?_SLEEP?MISC
  +--> ?PR?SETDEMO?COLORCONFIG
  +--> ?PR?GRAPHICDISPLAYWINDOWENABLE?SCALER...
  +--> ?PR?BACKLIGHTON?BOARD

?PR?GETASPRATIOSETTING?USERSETTING               -----    -----      -----    -----      -----    -----      A2ECH    00
>> 01H
  +--> ?PR?USERGETINPUTSOURCE?USERSETTING
  +--> ?PR?DETECTASPECTRATIO?MODECONFIG

?PR?DETECTASPECTRATIO?MODECONFIG                 -----    -----      -----    -----      -----    -----      A2F0H    00
>> 01H
  +--> ?PR?GETCURRINPUTINTERFACE?SCALER_COMMON
  +--> ?PR?ISINTERLACED?SCALER_SYNC
  +--> ?PR?GETDPINPUTVDEIMMEDIATE?SCALER_DP
  +--> ?PR?GETDPINPUTHDEIMMEDIATE?SCALER_DP

?PR?ISBACKLIGHTON?BOARD                          -----    -----      -----    -----      -----    -----      -----    --
>> ---
  +--> ?PR?_MCUGETIOBIT?MCUIO

?PR?_SETDISPLAYMODE?SCALER_DISPLAY               -----    -----      -----    -----      -----    -----      A2ECH    00
>> 07H
  +--> ?PR?SCALER_DISPLAY
  +--> ?PR?_READSHORTSCALER?SCALERACCESS
  +--> ?PR?_SETCUSTOMASPRATIO?SCALER_DISPLAY

?PR?_SETCUSTOMASPRATIO?SCALER_DISPLAY            -----    -----      -----    -----      -----    -----      A2F3H    00
>> 08H
  +--> ?PR?_READSHORTSCALER?SCALERACCESS
  +--> ?PR?SCALER_DISPLAY
  +--> ?PR?WAITDISVSYNC?SCALER_DISPLAY
  +--> ?PR?GRAPHICDISPLAYWINDOWDISABLE?SCALE...
  +--> ?PR?_WRITESHORTSCALER?SCALERACCESS
  +--> ?PR?_SLEEP?MISC
  +--> ?PR?GRAPHICDISPLAYWINDOWENABLE?SCALER...

?PR?GRAPHICDISPLAYWINDOWDISABLE?SCALE...         -----    -----      -----    -----      -----    -----      -----    --
>> ---
  +--> ?PR?SCALER_DISPLAY

?PR?GRAPHICDISPLAYWINDOWENABLE?SCALER...         -----    -----      -----    -----      -----    -----      -----    --
>> ---
  +--> ?PR?SCALER_DISPLAY

?PR?SETDEMO?COLORCONFIG                          -----    -----      -----    -----      -----    -----      A2EEH    00
BL51 BANKED LINKER/LOCATER V6.22                                                      01/06/2017  14:57:29  PAGE 111


>> 01H
  +--> ?PR?_DUALVIEWPOINTOBFMODE?USERSETTING
  +--> ?PR?ISOSDALLOWSENSEYEDEMO?OSDVIEW3
  +--> ?PR?COLORCONFIG
  +--> ?PR?_BFAPI_SETCUSTOMWINDOW?BFAPI
  +--> ?PR?_BFAPI_SETACTIVEWINDOW?BFAPI

?PR?WAITHPLLSTABLE?SCALER_ADC                    -----    -----      -----    -----      -----    -----      A2E6H    00
>> 06H
  +--> ?PR?GETTIMERTICK?INT
  +--> ?PR?_READ3BYTESCALER?SCALERACCESS
  +--> ?PR?SCALER_ADC
  +--> ?PR?_LABS?LABS

?PR?HWAUTOOFFSET?AUTOADJ                         -----    -----      -----    -----      -----    -----      A2F3H    00
>> 10H
  +--> ?PR?GETADCROFFSET?SCALER_ADC
  +--> ?PR?GETADCGOFFSET?SCALER_ADC
  +--> ?PR?GETADCBOFFSET?SCALER_ADC
  +--> ?PR?_SETADCROFFSET?SCALER_ADC
  +--> ?PR?_SETADCGOFFSET?SCALER_ADC
  +--> ?PR?_SETADCBOFFSET?SCALER_ADC
  +--> ?PR?AUTOADJ
  +--> ?PR?GETTIMERTICK?INT
  +--> ?PR?_SLEEP?MISC
  +--> ?PR?CHECKMODECHANGEFLAG?INT
  +--> ?PR?_ABS?ABS

?PR?DISPLAYNORMALIMAGE?SCALER_DISPLAY            -----    -----      -----    -----      -----    -----      -----    --
>> ---
  +--> ?PR?WAITDISVSYNC?SCALER_DISPLAY
  +--> ?PR?SCALER_DISPLAY

?PR?SYSAPI_WAKEUP?SYSAPI                         -----    -----      -----    -----      -----    -----      A2E5H    00
>> 01H
  +--> ?PR?GETCURRINPUTINTERFACE?SCALER_COMMON
  +--> ?PR?MODEHANDLESOFTPOWERON?MODEHANDLER
  +--> ?PR?LEDREDOFF?BOARD
  +--> ?PR?LEDGREENON?BOARD
  +--> ?PR?SCALERPOWERUP?SCALER_POWER

?PR?MODEHANDLEPOWERUP?MODEHANDLER                -----    -----      -----    -----      -----    -----      -----    --
>> ---
  +--> ?PR?MODEHANDLER
  +--> ?PR?GETTIMERTICK?INT

?PR?MCUCLKDIVDERCHECK?SCALER_POWER               -----    -----      -----    -----      -----    -----      -----    --
>> ---
  +--> ?PR?_MCUIICPRESENDACK?MCUHWIIC

?PR?EVENTHANDLER?EVENTHANDLE                     -----    -----      -----    -----      -----    -----      -----    --
>> ---
  +--> ?PR?_EVENTCOLLECTOR?EVENTHANDLE
  +--> ?PR?_EVENTDISPATCHER?EVENTHANDLE

?PR?_EVENTCOLLECTOR?EVENTHANDLE                  -----    -----      -----    -----      -----    -----      -----    --
>> ---
BL51 BANKED LINKER/LOCATER V6.22                                                      01/06/2017  14:57:29  PAGE 112


  +--> ?PR?OSDACTIONDEMANDER?OSDCTRL
  +--> ?PR?KEYACTIONDEMANDER?KEYCTRL
  +--> ?PR?APPACTIONDEMANDER?APPCTRL
  +--> ?PR?DDCCIACTIONDEMANDER?DDCCICTRL

?PR?OSDACTIONDEMANDER?OSDCTRL                    -----    -----      -----    -----      -----    -----      A2E5H    00
>> 01H
  +--> ?PR?OSDTIMERROUTINE?OSDCTRL
  +--> ?PR?OSDUSERUPDATE?OSDVIEW2
  +--> ?PR?OSDTMGUPDATE?OSDVIEW2
  +--> ?PR?OSDSYSUPDATE?OSDVIEW2
  +--> ?PR?OSDCALUPDATE?OSDVIEW2

?PR?OSDTIMERROUTINE?OSDCTRL                      -----    -----      -----    -----      -----    -----      -----    --
>> ---
  +--> ?PR?GETMODEHANDLESTATE?MODEHANDLER
  +--> ?PR?GETTIMERTICK?INT
  +--> ?PR?APPISOUTOFLIMIT?APPCTRL
  +--> ?PR?OSDENTEROOL?OSDCTRL
  +--> ?PR?ISOUTOFRANGE?MODECONFIG
  +--> ?PR?OSDENTEROOR?OSDCTRL
  +--> ?PR?OSDSHOWSMARREMINDER?OSDVIEW2
  +--> ?PR?ISOSDALLOWSENSEYEDEMO?OSDVIEW3
  +--> ?PR?OSDSHOWSENSEYEDEMO?OSDVIEW2
  +--> ?PR?OSDMOVEPOSITION?OSDVIEW2
  +--> ?PR?WAITDISVSYNC?SCALER_DISPLAY
  +--> ?PR?ISNOCABLESTATE?APPCTRL
  +--> ?PR?OSDENTERNOCABLE?OSDCTRL
  +--> ?PR?ISNOSYNCSTATE?APPCTRL
  +--> ?PR?OSDENTERNOSYNC?OSDCTRL
  +--> ?PR?OSDPERFORMAUTOTUNE?OSDVIEW2
  +--> ?PR?ISPRESETMODETIMING?MODECONFIG
  +--> ?PR?ISVIDEOTIMING?MODECONFIG
  +--> ?PR?OSDCLOSED?OSDVIEW2
  +--> ?PR?_SETOSDSTATE?OSDCTRL
  +--> ?PR?_OSDSHOWDIALOG?OSDVIEW3
  +--> ?PR?ISOSDALLOWRESNOTICE?OSDVIEW3
  +--> ?PR?OSDCLOSEALL?OSDCTRL
  +--> ?PR?USERGETSMARTREMINDERTIMER?USERSET...
  +--> ?PR?OSDRESHOWMENU?OSDVIEW2
  +--> ?PR?_OSDAPI_SETHVZOOM?OSDAPI
  +--> ?PR?GETOSDSTATE?OSDCTRL
  +--> ?PR?_OSDCANCELPREVIEW?OSDCTRL
  +--> ?PR?ISOUTRANGESTATE?APPCTRL
  +--> ?PR?APPRESENDAPPSYNC?APPCTRL
  +--> ?PR?OSDCONFIGKEYBEHAVIOR?OSDCTRL

?PR?OSDENTEROOL?OSDCTRL                          -----    -----      -----    -----      -----    -----      -----    --
>> ---
  +--> ?PR?OSDSHOWOOL?OSDVIEW2

?PR?OSDSHOWOOL?OSDVIEW2                          -----    -----      -----    -----      -----    -----      -----    --
>> ---
  +--> ?PR?USERGETINPUTSOURCE?USERSETTING
  +--> ?PR?OSDVIEW2
  +--> ?PR?GETINPUTSYNCMODE?SYNCHANDLER
  +--> ?PR?USERPERFORMAUTOTUNE?USERSETTING
BL51 BANKED LINKER/LOCATER V6.22                                                      01/06/2017  14:57:29  PAGE 113


  +--> ?PR?OSDCLOSED?OSDVIEW2
  +--> ?PR?_OSDSHOWDIALOG?OSDVIEW3

?PR?USERPERFORMAUTOTUNE?USERSETTING              -----    -----      -----    -----      -----    -----      -----    --
>> ---
  +--> ?PR?ISAUTOTUNEVALID?AUTOADJ
  +--> ?PR?AUTOTUNE?AUTOADJ
  +--> ?PR?GETANGINPUTHTOTAL?SCALER_ADC
  +--> ?PR?GETINPUTHSTART?SCALER_CAPTURE
  +--> ?PR?GETINPUTVSTART?SCALER_CAPTURE
  +--> ?PR?GETANGINPUTPHASE?SCALER_ADC
  +--> ?PR?SETMINMAX?MODECONFIG

?PR?ISAUTOTUNEVALID?AUTOADJ                      -----    -----      -----    -----      -----    -----      -----    --
>> ---
  +--> ?PR?GETCURRINPUTINTERFACE?SCALER_COMMON

?PR?AUTOTUNE?AUTOADJ                             -----    -----      -----    -----      -----    -----      A2EAH    00
>> 02H
  +--> ?PR?ISAUTOTUNEVALID?AUTOADJ
  +--> ?PR?AUTOADJ
  +--> ?PR?AUTOPOSITION?AUTOADJ
  +--> ?PR?AUTOCLOCK?AUTOADJ
  +--> ?PR?_OSDUPDATEAUTOTUNE?OSDCTRL
  +--> ?PR?AUTOCLOCKBYPHASE?AUTOADJ
  +--> ?PR?_AUTOPHASEFINETUNE?AUTOADJ
  +--> ?PR?AUTOTUNECOMPLETE?AUTOADJ

?PR?AUTOPOSITION?AUTOADJ                         0020H.3  0000H.1    -----    -----      -----    -----      A2ECH    00
>> 0EH
  +--> ?PR?AUTOADJ
  +--> ?PR?_READSHORTSCALER?SCALERACCESS
  +--> ?PR?SETHMASK?AUTOADJ
  +--> ?PR?MEASUREIMAGESIZE?AUTOADJ
  +--> ?PR?_ISHNONFULLSCREEN?AUTOADJCONFIG
  +--> ?PR?CHECKIMAGEOUTOFSCREEN?AUTOADJ
  +--> ?PR?_SETHP?SCALER_CAPTURE
  +--> ?PR?_ISVNONFULLSCREEN?AUTOADJCONFIG
  +--> ?PR?_SETVP?SCALER_CAPTURE
  +--> ?PR?_ABS?ABS

?PR?MEASUREIMAGESIZE?AUTOADJ                     0020H.4  0000H.1    -----    -----      -----    -----      A2FAH    00
>> 02H
  +--> ?PR?GETTIMERTICK?INT
  +--> ?PR?AUTOADJ
  +--> ?PR?CHECKMODECHANGEFLAG?INT

?PR?_ISHNONFULLSCREEN?AUTOADJCONFIG              -----    -----      -----    -----      -----    -----      A2FAH    00
>> 06H
  +--> ?PR?AUTOADJCONFIG
  +--> ?PR?GETHCAPTURESIZE?SCALER_CAPTURE
  +--> ?PR?GETANGINPUTHTOTAL?SCALER_ADC
  +--> ?PR?_ABS?ABS

?PR?CHECKIMAGEOUTOFSCREEN?AUTOADJ                -----    -----      -----    -----      -----    -----      A2FAH    00
>> 12H
  +--> ?PR?AUTOADJ
BL51 BANKED LINKER/LOCATER V6.22                                                      01/06/2017  14:57:29  PAGE 114


  +--> ?PR?_READSHORTSCALER?SCALERACCESS
  +--> ?PR?GETINPUTVTOTAL?SCALER_SYNC
  +--> ?PR?GETANGINPUTHTOTAL?SCALER_ADC
  +--> ?PR?_SETHP?SCALER_CAPTURE
  +--> ?PR?_SETVP?SCALER_CAPTURE
  +--> ?PR?GETINPUTHSTART?SCALER_CAPTURE
  +--> ?PR?GETINPUTVSTART?SCALER_CAPTURE

?PR?_ISVNONFULLSCREEN?AUTOADJCONFIG              -----    -----      -----    -----      -----    -----      A2FAH    00
>> 06H
  +--> ?PR?AUTOADJCONFIG
  +--> ?PR?GETVCAPTURESIZE?SCALER_CAPTURE
  +--> ?PR?GETINPUTVTOTAL?SCALER_SYNC

?PR?AUTOCLOCK?AUTOADJ                            -----    -----      -----    -----      -----    -----      A2ECH    00
>> 0BH
  +--> ?PR?AUTOADJ
  +--> ?PR?_READSHORTSCALER?SCALERACCESS
  +--> ?PR?_WRITESHORTSCALER?SCALERACCESS
  +--> ?PR?_SETADCPLL2?AUTOADJ
  +--> ?PR?SETHMASK?AUTOADJ
  +--> ?PR?MEASUREIMAGESIZE?AUTOADJ
  +--> ?PR?_CHECKADCPLLOUTOFRANGE?AUTOADJ

?PR?_SETADCPLL2?AUTOADJ                          -----    -----      -----    -----      -----    -----      A301H    00
>> 06H
  +--> ?PR?AUTOADJ
  +--> ?PR?_READSHORTSCALER?SCALERACCESS
  +--> ?PR?WAITDISVSYNC?SCALER_DISPLAY
  +--> ?PR?_WRITESHORTSCALER?SCALERACCESS
  +--> ?PR?_SETSRHTOTAL?SR

?PR?_SETSRHTOTAL?SR                              -----    -----      -----    -----      -----    -----      -----    --
>> ---
  +--> ?PR?_SRAPI_SETHTOTAL?SRAPI

?PR?_OSDUPDATEAUTOTUNE?OSDCTRL                   -----    -----      -----    -----      -----    -----      -----    --
>> ---
  +--> ?PR?_OSDUPDATEAUTOTUNEBAR?OSDVIEW2

?PR?AUTOCLOCKBYPHASE?AUTOADJ                     -----    -----      -----    -----      -----    -----      A2ECH    00
>> 15H
  +--> ?PR?AUTOADJ
  +--> ?PR?_READSHORTSCALER?SCALERACCESS
  +--> ?PR?_SETADCPLL2?AUTOADJ
  +--> ?PR?CHECKPHASEDATA?AUTOADJ
  +--> ?PR?_ABS?ABS
  +--> ?PR?_SETADCPHASE?SCALER_ADC

?PR?CHECKPHASEDATA?AUTOADJ                       0020H.3  0000H.1    -----    -----      -----    -----      A301H    00
>> 0FH
  +--> ?PR?_SETADCPHASE?SCALER_ADC
  +--> ?PR?AUTOADJ
  +--> ?PR?_OSDUPDATEAUTOTUNE?OSDCTRL
  +--> ?PR?GETTIMERTICK?INT
  +--> ?PR?CHECKMODECHANGEFLAG?INT
  +--> ?PR?_READSHORTSCALER?SCALERACCESS
BL51 BANKED LINKER/LOCATER V6.22                                                      01/06/2017  14:57:29  PAGE 115



?PR?_AUTOPHASEFINETUNE?AUTOADJ                   -----    -----      -----    -----      -----    -----      A2ECH    00
>> 20H
  +--> ?PR?AUTOADJ
  +--> ?PR?_OSDUPDATEAUTOTUNE?OSDCTRL
  +--> ?PR?GETTIMERTICK?INT
  +--> ?PR?CHECKMODECHANGEFLAG?INT
  +--> ?PR?_READSHORTSCALER?SCALERACCESS
  +--> ?PR?_SETADCPHASE?SCALER_ADC

?PR?AUTOTUNECOMPLETE?AUTOADJ                     -----    -----      -----    -----      -----    -----      -----    --
>> ---
  +--> ?PR?AUTOADJ
  +--> ?PR?_OSDUPDATEAUTOTUNE?OSDCTRL
  +--> ?PR?_SLEEP?MISC
  +--> ?PR?CHECKMODECHANGEFLAG?INT

?PR?_OSDSHOWDIALOG?OSDVIEW3                      -----    -----      -----    -----      -----    -----      A2E6H    00
>> 02H
  +--> ?PR?OSDCLOSED?OSDVIEW2
  +--> ?PR?_OSDAPI_SETHVZOOM?OSDAPI
  +--> ?PR?WAITDISVSYNC?SCALER_DISPLAY
  +--> ?PR?OSDINITIALIZE?OSDVIEW2
  +--> ?PR?_OSDLOADFONT?OSDFONT
  +--> ?PR?_OSDSHOWDIALOGFRAME?OSDVIEW2
  +--> ?PR?_OSDINITFRAME?OSDVIEW2
  +--> ?PR?_OSDCLEARFRAME?OSDVIEW2
  +--> ?PR?_OSDSETPOSITION?OSDVIEW2
  +--> ?PR?_OSDSHOWBIGWIN?OSDVIEW2
  +--> ?PR?_LOGOSETSPLIT?LOGO
  +--> ?PR?_WRITESHORTSCALER?SCALERACCESS
  +--> ?PR?OSDVIEW3
  +--> ?CO?OSDINDEX3
  +--> ?PR?OSDSHOWINPUTNOTICEDIALOGSTRING?OS...
  +--> ?PR?SHOWINDENTSTRING?OSDAPI_COMMON
  +--> ?PR?_OSDSHOWNOTICEICON?OSDVIEW2
  +--> ?PR?_OSDSHOWSELECTPAGEMAINFRAME?OSDVIEW2
  +--> ?PR?GETOSDSTATE?OSDCTRL
  +--> ?PR?OSDUPDATEKEYINFO?OSDVIEW2
  +--> ?PR?_OSDAPI_SETALIGNTYPE?OSDAPI
  +--> ?PR?_OSDAPI_SETINDENTINDEX?OSDAPI_INDENT
  +--> ?PR?USERSETTRANSPARENT?USERSETTING
  +--> ?PR?OSDTURNONOSD?OSDVIEW2
  +--> ?PR?OSDSHOWAUTOICON?OSDVIEW2
  +--> ?PR?OSDSHOWINPUTICON?OSDVIEW2

?PR?_OSDSHOWDIALOGFRAME?OSDVIEW2                 -----    -----      -----    -----      -----    -----      A2E8H    00
>> 07H
  +--> ?PR?OSDVIEW2
  +--> ?PR?_WRITESHORTSCALER?SCALERACCESS
  +--> ?PR?OSDAPI_WRITEXYCHAR?OSDAPI
  +--> ?PR?OSDAPI_WRITEXYREPEATCHAR?OSDAPI

?PR?OSDAPI_WRITEXYCHAR?OSDAPI                    0020H.3  0000H.1    -----    -----      -----    -----      A30FH    00
>> 03H
  +--> ?PR?OSDAPI

BL51 BANKED LINKER/LOCATER V6.22                                                      01/06/2017  14:57:29  PAGE 116


?PR?OSDAPI_WRITEXYREPEATCHAR?OSDAPI              0020H.2  0000H.1    -----    -----      -----    -----      A2F3H    00
>> 04H
  +--> ?PR?OSDAPI

?PR?_OSDCLEARFRAME?OSDVIEW2                      -----    -----      -----    -----      -----    -----      A2ECH    00
>> 02H
  +--> ?PR?_OSDCLEARFRAMEBORDER?OSDVIEW2

?PR?_OSDCLEARFRAMEBORDER?OSDVIEW2                -----    -----      -----    -----      -----    -----      A2EEH    00
>> 05H
  +--> ?PR?OSDVIEW2
  +--> ?PR?_WRITESHORTSCALER?SCALERACCESS
  +--> ?PR?OSDAPI_WRITEXYREPEATCHAR?OSDAPI

?PR?_OSDSHOWBIGWIN?OSDVIEW2                      -----    -----      -----    -----      -----    -----      A2EEH    00
>> 06H
  +--> ?PR?_OSDAPI_SELOSDWIN?OSDAPI
  +--> ?PR?OSDVIEW2
  +--> ?PR?OSDAPI_SETOSDWINATTR?OSDAPI
  +--> ?PR?_OSDAPI_SETOSDWINSIZE?OSDAPI
  +--> ?PR?_OSDAPI_OSDWINON?OSDAPI

?PR?OSDAPI_SETOSDWINATTR?OSDAPI                  -----    -----      -----    -----      -----    -----      A2FEH    00
>> 05H

?PR?_OSDAPI_SETOSDWINSIZE?OSDAPI                 -----    -----      -----    -----      -----    -----      A2FEH    00
>> 0BH
  +--> ?PR?OSDAPI
  +--> ?PR?_OSDAPI_ROTATEOSDWINPOSITION?OSDAPI2

?PR?_LOGOSETSPLIT?LOGO                           -----    -----      -----    -----      -----    -----      A2E8H    00
>> 04H

?PR?OSDSHOWINPUTNOTICEDIALOGSTRING?OS...         -----    -----      -----    -----      -----    -----      A2E8H    00
>> 1DH
  +--> ?CO?OSDINDEX
  +--> ?PR?OSDVIEW
  +--> ?PR?SHOWINDENTSTRING?OSDAPI_COMMON
  +--> ?PR?_GETINPUTPORTINDEX?USERSETTING

?PR?OSDVIEW                                      -----    -----      -----    -----      -----    -----      -----    --
>> ---
  +--> ?CO?OSDINDEX
  +--> ?CO?OSDVIEW

?PR?SHOWINDENTSTRING?OSDAPI_COMMON               0020H.2  0000H.1    -----    -----      -----    -----      A32EH    00
>> 06H
  +--> ?PR?OSDAPI_COMMON
  +--> ?PR?OSDAPI_GETALIGNTYPE?OSDAPI
  +--> ?PR?ISOSDARABALIGNRIGHT?OSDVIEW3
  +--> ?PR?_OSDAPI_SETALIGNTYPE?OSDAPI
  +--> ?PR?_OSDAPI_SETINDENTWIDTH?OSDAPI_INDENT
  +--> ?PR?_FINDTABLE_EUROPE?OSDFONT_EUROPE
  +--> ?PR?_FINDTABLE_TC?OSDFONT_TC
  +--> ?PR?_FINDTABLE_SC?OSDFONT_SC
  +--> ?PR?_FINDTABLE_JAPAN?OSDFONT_JAPAN
  +--> ?PR?OSDAPI_SHOWINDENTS?OSDAPI_INDENT
BL51 BANKED LINKER/LOCATER V6.22                                                      01/06/2017  14:57:29  PAGE 117



?PR?ISOSDARABALIGNRIGHT?OSDVIEW3                 -----    -----      -----    -----      -----    -----      -----    --
>> ---
  +--> ?PR?GETOSDSTATE?OSDCTRL

?PR?_FINDTABLE_EUROPE?OSDFONT_EUROPE             -----    -----      -----    -----      -----    -----      -----    --
>> ---
  +--> ?PR?_OSDAPI_SETINDENTSTRING?OSDAPI_CO...

?PR?_OSDAPI_SETINDENTSTRING?OSDAPI_CO...         -----    -----      0027H    0011H      -----    -----      -----    --
>> ---
  +--> ?PR?OSDAPI_COMMON
  +--> ?PR?GETOSDSTATE?OSDCTRL
  +--> ?PR?INITFONT_EUROPE?OSDFONT_EUROPE
  +--> ?PR?OSDAPI_GETALIGNTYPE?OSDAPI
  +--> ?PR?OSDAPI_GETOSDFONTHEIGHT?OSDAPI
  +--> ?PR?INITFONT_TC_TABLE1?OSDFONT_TC
  +--> ?PR?INITFONT_TC_TABLE2?OSDFONT_TC
  +--> ?PR?INITFONT_SC_TABLE1?OSDFONT_SC
  +--> ?PR?INITFONT_SC_TABLE2?OSDFONT_SC
  +--> ?PR?INITFONT_JAPAN_TABLE1?OSDFONT_JAPAN
  +--> ?PR?INITFONT_JAPAN_TABLE2?OSDFONT_JAPAN
  +--> ?PR?INITFONT_FRANAIS?OSDFONT_EUROPE
  +--> ?PR?INITFONT_DEUTSCH?OSDFONT_EUROPE
  +--> ?PR?INITFONT_ITALIANO?OSDFONT_EUROPE
  +--> ?PR?INITFONT_ESPANOL?OSDFONT_EUROPE
  +--> ?PR?INITFONT_POLSKI?OSDFONT_EUROPE
  +--> ?PR?INITFONT_CESKY?OSDFONT_EUROPE
  +--> ?PR?INITFONT_MAGYAR?OSDFONT_EUROPE
  +--> ?PR?INITFONT_SICG?OSDFONT_EUROPE
  +--> ?PR?INITFONT_ROMANA?OSDFONT_EUROPE
  +--> ?PR?INITFONT_PYCCKNN?OSDFONT_EUROPE
  +--> ?PR?INITFONT_SVENSKA?OSDFONT_EUROPE
  +--> ?PR?INITFONT_PORTUGUS?OSDFONT_EUROPE
  +--> ?PR?INITFONT_ARAB?OSDFONT_EUROPE
  +--> ?PR?_INITFONTTABLEBYLANG?OSDAPI_INDENT
  +--> ?PR?OSDAPI_LOADINDENTFONT?OSDAPI_INDENT

?PR?INITFONT_EUROPE?OSDFONT_EUROPE               -----    -----      -----    -----      -----    -----      -----    --
>> ---
  +--> ?PR?OSDFONT_EUROPE
  +--> ?CO?OSDFONT_EUROPE
  +--> ?PR?_OSDAPI_SETINDENTFONT?OSDAPI_INDENT

?PR?_OSDAPI_SETINDENTFONT?OSDAPI_INDENT          -----    -----      -----    -----      -----    -----      A339H    00
>> 06H
  +--> ?PR?OSDAPI_INDENT

?PR?INITFONT_TC_TABLE1?OSDFONT_TC                -----    -----      -----    -----      -----    -----      -----    --
>> ---
  +--> ?CO?OSDFONT_TC
  +--> ?PR?_OSDAPI_SETINDENTFONT?OSDAPI_INDENT

?PR?INITFONT_TC_TABLE2?OSDFONT_TC                -----    -----      -----    -----      -----    -----      -----    --
>> ---
  +--> ?CO?OSDFONT_TC
  +--> ?PR?_OSDAPI_SETINDENTFONT?OSDAPI_INDENT
BL51 BANKED LINKER/LOCATER V6.22                                                      01/06/2017  14:57:29  PAGE 118



?PR?INITFONT_SC_TABLE1?OSDFONT_SC                -----    -----      -----    -----      -----    -----      -----    --
>> ---
  +--> ?CO?OSDFONT_SC
  +--> ?PR?_OSDAPI_SETINDENTFONT?OSDAPI_INDENT

?PR?INITFONT_SC_TABLE2?OSDFONT_SC                -----    -----      -----    -----      -----    -----      -----    --
>> ---
  +--> ?CO?OSDFONT_SC
  +--> ?PR?_OSDAPI_SETINDENTFONT?OSDAPI_INDENT

?PR?INITFONT_JAPAN_TABLE1?OSDFONT_JAPAN          -----    -----      -----    -----      -----    -----      -----    --
>> ---
  +--> ?CO?OSDFONT_JAPAN
  +--> ?PR?_OSDAPI_SETINDENTFONT?OSDAPI_INDENT

?PR?INITFONT_JAPAN_TABLE2?OSDFONT_JAPAN          -----    -----      -----    -----      -----    -----      -----    --
>> ---
  +--> ?CO?OSDFONT_JAPAN
  +--> ?PR?_OSDAPI_SETINDENTFONT?OSDAPI_INDENT

?PR?INITFONT_FRANAIS?OSDFONT_EUROPE              -----    -----      -----    -----      -----    -----      -----    --
>> ---
  +--> ?PR?OSDFONT_EUROPE
  +--> ?CO?OSDFONT_EUROPE
  +--> ?PR?_OSDAPI_SETINDENTFONT?OSDAPI_INDENT

?PR?INITFONT_DEUTSCH?OSDFONT_EUROPE              -----    -----      -----    -----      -----    -----      -----    --
>> ---
  +--> ?PR?OSDFONT_EUROPE
  +--> ?CO?OSDFONT_EUROPE
  +--> ?PR?_OSDAPI_SETINDENTFONT?OSDAPI_INDENT

?PR?INITFONT_ITALIANO?OSDFONT_EUROPE             -----    -----      -----    -----      -----    -----      -----    --
>> ---
  +--> ?PR?OSDFONT_EUROPE
  +--> ?CO?OSDFONT_EUROPE
  +--> ?PR?_OSDAPI_SETINDENTFONT?OSDAPI_INDENT

?PR?INITFONT_ESPANOL?OSDFONT_EUROPE              -----    -----      -----    -----      -----    -----      -----    --
>> ---
  +--> ?PR?OSDFONT_EUROPE
  +--> ?CO?OSDFONT_EUROPE
  +--> ?PR?_OSDAPI_SETINDENTFONT?OSDAPI_INDENT

?PR?INITFONT_POLSKI?OSDFONT_EUROPE               -----    -----      -----    -----      -----    -----      -----    --
>> ---
  +--> ?PR?OSDFONT_EUROPE
  +--> ?CO?OSDFONT_EUROPE
  +--> ?PR?_OSDAPI_SETINDENTFONT?OSDAPI_INDENT

?PR?INITFONT_CESKY?OSDFONT_EUROPE                -----    -----      -----    -----      -----    -----      -----    --
>> ---
  +--> ?PR?OSDFONT_EUROPE
  +--> ?CO?OSDFONT_EUROPE
  +--> ?PR?_OSDAPI_SETINDENTFONT?OSDAPI_INDENT

BL51 BANKED LINKER/LOCATER V6.22                                                      01/06/2017  14:57:29  PAGE 119


?PR?INITFONT_MAGYAR?OSDFONT_EUROPE               -----    -----      -----    -----      -----    -----      -----    --
>> ---
  +--> ?PR?OSDFONT_EUROPE
  +--> ?CO?OSDFONT_EUROPE
  +--> ?PR?_OSDAPI_SETINDENTFONT?OSDAPI_INDENT

?PR?INITFONT_SICG?OSDFONT_EUROPE                 -----    -----      -----    -----      -----    -----      -----    --
>> ---
  +--> ?PR?OSDFONT_EUROPE
  +--> ?CO?OSDFONT_EUROPE
  +--> ?PR?_OSDAPI_SETINDENTFONT?OSDAPI_INDENT

?PR?INITFONT_ROMANA?OSDFONT_EUROPE               -----    -----      -----    -----      -----    -----      -----    --
>> ---
  +--> ?PR?OSDFONT_EUROPE
  +--> ?CO?OSDFONT_EUROPE
  +--> ?PR?_OSDAPI_SETINDENTFONT?OSDAPI_INDENT

?PR?INITFONT_PYCCKNN?OSDFONT_EUROPE              -----    -----      -----    -----      -----    -----      -----    --
>> ---
  +--> ?PR?OSDFONT_EUROPE
  +--> ?CO?OSDFONT_EUROPE
  +--> ?PR?_OSDAPI_SETINDENTFONT?OSDAPI_INDENT

?PR?INITFONT_SVENSKA?OSDFONT_EUROPE              -----    -----      -----    -----      -----    -----      -----    --
>> ---
  +--> ?PR?OSDFONT_EUROPE
  +--> ?CO?OSDFONT_EUROPE
  +--> ?PR?_OSDAPI_SETINDENTFONT?OSDAPI_INDENT

?PR?INITFONT_PORTUGUS?OSDFONT_EUROPE             -----    -----      -----    -----      -----    -----      -----    --
>> ---
  +--> ?PR?OSDFONT_EUROPE
  +--> ?CO?OSDFONT_EUROPE
  +--> ?PR?_OSDAPI_SETINDENTFONT?OSDAPI_INDENT

?PR?INITFONT_ARAB?OSDFONT_EUROPE                 -----    -----      -----    -----      -----    -----      -----    --
>> ---
  +--> ?PR?OSDFONT_EUROPE
  +--> ?CO?OSDFONT_EUROPE
  +--> ?PR?_OSDAPI_SETINDENTFONT?OSDAPI_INDENT

?PR?_INITFONTTABLEBYLANG?OSDAPI_INDENT           -----    -----      -----    -----      -----    -----      A334H    00
>> 05H
  +--> ?PR?INITFONT_TC_TABLE1?OSDFONT_TC
  +--> ?PR?INITFONT_TC_TABLE2?OSDFONT_TC
  +--> ?PR?INITFONT_SC_TABLE1?OSDFONT_SC
  +--> ?PR?INITFONT_SC_TABLE2?OSDFONT_SC
  +--> ?PR?INITFONT_JAPAN_TABLE1?OSDFONT_JAPAN
  +--> ?PR?INITFONT_JAPAN_TABLE2?OSDFONT_JAPAN
  +--> ?PR?OSDAPI_INDENT
  +--> ?PR?INITFONT_FRANAIS?OSDFONT_EUROPE
  +--> ?PR?INITFONT_DEUTSCH?OSDFONT_EUROPE
  +--> ?PR?INITFONT_ITALIANO?OSDFONT_EUROPE
  +--> ?PR?INITFONT_ESPANOL?OSDFONT_EUROPE
  +--> ?PR?INITFONT_POLSKI?OSDFONT_EUROPE
  +--> ?PR?INITFONT_CESKY?OSDFONT_EUROPE
BL51 BANKED LINKER/LOCATER V6.22                                                      01/06/2017  14:57:29  PAGE 120


  +--> ?PR?INITFONT_MAGYAR?OSDFONT_EUROPE
  +--> ?PR?INITFONT_SICG?OSDFONT_EUROPE
  +--> ?PR?INITFONT_ROMANA?OSDFONT_EUROPE
  +--> ?PR?INITFONT_PYCCKNN?OSDFONT_EUROPE
  +--> ?PR?INITFONT_SVENSKA?OSDFONT_EUROPE
  +--> ?PR?INITFONT_PORTUGUS?OSDFONT_EUROPE
  +--> ?PR?INITFONT_ARAB?OSDFONT_EUROPE
  +--> ?PR?INITFONT_EUROPE?OSDFONT_EUROPE
  +--> ?PR?OSDAPI_GETOSDFONTHEIGHT?OSDAPI

?PR?OSDAPI_LOADINDENTFONT?OSDAPI_INDENT          -----    -----      0038H    0001H      -----    -----      -----    --
>> ---
  +--> ?PR?OSDAPI_INDENT
  +--> ?PR?_OSDAPI_ROTATEIDENTFONT?OSDAPI
  +--> ?PR?OSDAPI_GETOSDFONTHEIGHT?OSDAPI

?PR?_OSDAPI_ROTATEIDENTFONT?OSDAPI               -----    -----      -----    -----      -----    -----      A334H    00
>> 1FH
  +--> ?PR?OSDAPI
  +--> ?PR?_OSDAPI_ROTATEFONT?OSDAPI

?PR?_OSDAPI_ROTATEFONT?OSDAPI                    -----    -----      -----    -----      -----    -----      -----    --
>> ---
  +--> ?PR?OSDAPI

?PR?_FINDTABLE_TC?OSDFONT_TC                     -----    -----      -----    -----      -----    -----      -----    --
>> ---
  +--> ?PR?_OSDAPI_SETINDENTSTRING?OSDAPI_CO...

?PR?_FINDTABLE_SC?OSDFONT_SC                     -----    -----      -----    -----      -----    -----      -----    --
>> ---
  +--> ?PR?_OSDAPI_SETINDENTSTRING?OSDAPI_CO...

?PR?_FINDTABLE_JAPAN?OSDFONT_JAPAN               -----    -----      -----    -----      -----    -----      -----    --
>> ---
  +--> ?PR?_OSDAPI_SETINDENTSTRING?OSDAPI_CO...

?PR?OSDAPI_SHOWINDENTS?OSDAPI_INDENT             0020H.3  0000H.1    0027H    0007H      -----    -----      -----    --
>> ---
  +--> ?PR?OSDAPI_INDENT
  +--> ?PR?OSDAPI_GETOSDWIDTH?OSDAPI
  +--> ?PR?_OSDAPI_GETATTRIBUTE?OSDAPI
  +--> ?PR?OSDAPI_GETALIGNTYPE?OSDAPI

?PR?_OSDAPI_GETATTRIBUTE?OSDAPI                  -----    -----      -----    -----      -----    -----      -----    --
>> ---
  +--> ?PR?OSDAPI

?PR?_GETINPUTPORTINDEX?USERSETTING               -----    -----      -----    -----      -----    -----      -----    --
>> ---
  +--> ?PR?USERSETTING

?PR?_OSDSHOWNOTICEICON?OSDVIEW2                  -----    -----      -----    -----      -----    -----      A2E8H    00
>> 02H
  +--> ?PR?OSDVIEW2
  +--> ?PR?_WRITESHORTSCALER?SCALERACCESS
  +--> ?CO?OSDVIEW2
BL51 BANKED LINKER/LOCATER V6.22                                                      01/06/2017  14:57:29  PAGE 121


  +--> ?PR?OSDAPI_WRITEXYCHAR?OSDAPI

?PR?_OSDSHOWSELECTPAGEMAINFRAME?OSDVIEW2         -----    -----      -----    -----      -----    -----      A2E8H    00
>> 03H
  +--> ?PR?_OSDPAGEMAINFRAME_RIGHT?OSDVIEW2
  +--> ?PR?_OSDPAGEMAINFRAME_LEFT?OSDVIEW3

?PR?_OSDPAGEMAINFRAME_RIGHT?OSDVIEW2             -----    -----      -----    -----      -----    -----      A2EBH    00
>> 05H
  +--> ?PR?OSDVIEW2
  +--> ?PR?_WRITESHORTSCALER?SCALERACCESS
  +--> ?PR?OSDAPI_WRITEXYCHAR?OSDAPI
  +--> ?PR?OSDAPI_WRITEXYREPEATCHAR?OSDAPI

?PR?_OSDPAGEMAINFRAME_LEFT?OSDVIEW3              -----    -----      -----    -----      -----    -----      A2EBH    00
>> 03H
  +--> ?PR?OSDVIEW3
  +--> ?PR?_WRITESHORTSCALER?SCALERACCESS
  +--> ?PR?OSDAPI_WRITEXYCHAR?OSDAPI
  +--> ?PR?OSDAPI_WRITEXYREPEATCHAR?OSDAPI

?PR?OSDUPDATEKEYINFO?OSDVIEW2                    0020H.1  0000H.1    -----    -----      -----    -----      A2E9H    00
>> 05H
  +--> ?PR?OSDVIEW2
  +--> ?PR?_OSDCHECKKEYINFO?OSDVIEW2
  +--> ?PR?_OSDISSUBITEMVALID?OSDVIEW2
  +--> ?PR?_OSDISLAYER3ITEMVALID?OSDVIEW2
  +--> ?PR?_OSDUPDATESELECTPAGEICON?OSDVIEW2

?PR?_OSDISSUBITEMVALID?OSDVIEW2                  -----    -----      -----    -----      -----    -----      A2EEH    00
>> 01H
  +--> ?PR?OSDVIEW2
  +--> ?PR?ISOSDCUSKEYBRICONDISABLE?OSDVIEW3
  +--> ?PR?ISOSDALLOWSENSEYEDEMO?OSDVIEW3
  +--> ?PR?ISOSDALLOWDCR?OSDVIEW3
  +--> ?PR?ISCOMPONENTINPUT?MODECONFIG
  +--> ?PR?ISHDMIVIDEO?SCALER_HDMI

?PR?ISOSDCUSKEYBRICONDISABLE?OSDVIEW3            -----    -----      -----    -----      -----    -----      -----    --
>> ---
  +--> ?PR?ISOSDALLOWDCR?OSDVIEW3

?PR?_OSDISLAYER3ITEMVALID?OSDVIEW2               -----    -----      -----    -----      -----    -----      A2EFH    00
>> 01H
  +--> ?PR?OSDVIEW2
  +--> ?PR?DETECTASPECTRATIO?MODECONFIG

?PR?_OSDUPDATESELECTPAGEICON?OSDVIEW2            0020H.2  0000H.1    -----    -----      -----    -----      A2EEH    00
>> 04H
  +--> ?PR?WAITDISVSYNC?SCALER_DISPLAY
  +--> ?PR?_OSDUPDATESELECTPAGEICON_RIGHT?OS...
  +--> ?PR?_OSDUPDATESELECTPAGEICON_LEFT?OSD...

?PR?_OSDUPDATESELECTPAGEICON_RIGHT?OS...         -----    -----      -----    -----      -----    -----      A2F2H    00
>> 07H
  +--> ?PR?OSDVIEW2
  +--> ?PR?_WRITESHORTSCALER?SCALERACCESS
BL51 BANKED LINKER/LOCATER V6.22                                                      01/06/2017  14:57:29  PAGE 122


  +--> ?PR?OSDAPI_WRITEXYCHAR?OSDAPI

?PR?_OSDUPDATESELECTPAGEICON_LEFT?OSD...         -----    -----      -----    -----      -----    -----      A2F2H    00
>> 07H
  +--> ?PR?OSDVIEW2
  +--> ?PR?_WRITESHORTSCALER?SCALERACCESS
  +--> ?PR?OSDAPI_WRITEXYCHAR?OSDAPI

?PR?OSDSHOWAUTOICON?OSDVIEW2                     -----    -----      -----    -----      -----    -----      A2E8H    00
>> 02H
  +--> ?PR?OSDVIEW2
  +--> ?PR?_WRITESHORTSCALER?SCALERACCESS
  +--> ?PR?OSDAPI_WRITEXYCHAR?OSDAPI

?PR?OSDSHOWINPUTICON?OSDVIEW2                    -----    -----      -----    -----      -----    -----      A2E8H    00
>> 02H
  +--> ?PR?OSDVIEW2
  +--> ?PR?_WRITESHORTSCALER?SCALERACCESS
  +--> ?PR?OSDAPI_WRITEXYCHAR?OSDAPI

?PR?OSDENTEROOR?OSDCTRL                          -----    -----      -----    -----      -----    -----      -----    --
>> ---
  +--> ?PR?OSDSHOWOOR?OSDVIEW2

?PR?OSDSHOWOOR?OSDVIEW2                          -----    -----      -----    -----      -----    -----      -----    --
>> ---
  +--> ?PR?_PANELPOWERONSEQUENCE?SYSAPI
  +--> ?PR?OSDVIEW2
  +--> ?PR?_OSDSHOWDIALOG?OSDVIEW3

?PR?OSDSHOWSMARREMINDER?OSDVIEW2                 -----    -----      -----    -----      -----    -----      -----    --
>> ---
  +--> ?PR?OSDCLOSEALL?OSDCTRL
  +--> ?PR?_SETOSDSTATE?OSDCTRL
  +--> ?PR?_OSDSHOWDIALOG?OSDVIEW3

?PR?OSDSHOWSENSEYEDEMO?OSDVIEW2                  -----    -----      -----    -----      -----    -----      -----    --
>> ---
  +--> ?PR?OSDCLOSEALL?OSDCTRL
  +--> ?PR?_SETOSDSTATE?OSDCTRL
  +--> ?PR?_OSDSHOWDIALOG?OSDVIEW3

?PR?OSDMOVEPOSITION?OSDVIEW2                     -----    -----      -----    -----      -----    -----      A2E6H    00
>> 08H
  +--> ?PR?OSDVIEW2
  +--> ?PR?_OSDAPI_SETROWPOSITION?OSDAPI

?PR?_OSDAPI_SETROWPOSITION?OSDAPI                -----    -----      -----    -----      -----    -----      -----    --
>> ---
  +--> ?PR?OSDAPI
  +--> ?PR?WAITDISVSYNC?SCALER_DISPLAY

?PR?OSDENTERNOCABLE?OSDCTRL                      -----    -----      -----    -----      -----    -----      -----    --
>> ---
  +--> ?PR?OSDSHOWBURNING?OSDVIEW2
  +--> ?PR?_SETGLOBALTIMER?MISC
  +--> ?PR?OSDSHOWNOCABLE?OSDVIEW2
BL51 BANKED LINKER/LOCATER V6.22                                                      01/06/2017  14:57:29  PAGE 123



?PR?OSDSHOWBURNING?OSDVIEW2                      -----    -----      -----    -----      -----    -----      -----    --
>> ---
  +--> ?PR?DISABLEDBC?DBC
  +--> ?PR?OSDVIEW2
  +--> ?PR?WAITDISVSYNC?SCALER_DISPLAY
  +--> ?PR?_PANELPOWERONSEQUENCE?SYSAPI
  +--> ?PR?_SETBRIGHTNESS?SYSAPI
  +--> ?PR?_SETPOSTBGCOLOR?SCALER_DISPLAY
  +--> ?PR?_OSDSHOWDIALOG?OSDVIEW3

?PR?DISABLEDBC?DBC                               -----    -----      -----    -----      -----    -----      -----    --
>> ---
  +--> ?PR?DBCAPI_DISABLEDBC?DBCAPI
  +--> ?PR?_DBCAPI_DISABLEDBCPWM?DBCAPI
  +--> ?PR?DBCAPI_DISABLERGBCOMPENSATION?DBCAPI
  +--> ?PR?DBCAPI_DISABLEABRUPTCHANGE?DBCAPI
  +--> ?PR?_SETREFERENCEDBCDUTY?SCALER_PWM

?PR?_SETREFERENCEDBCDUTY?SCALER_PWM              -----    -----      -----    -----      -----    -----      -----    --
>> ---
  +--> ?PR?SCALER_PWM

?PR?OSDSHOWNOCABLE?OSDVIEW2                      -----    -----      -----    -----      -----    -----      -----    --
>> ---
  +--> ?PR?DISABLEDBC?DBC
  +--> ?PR?OSDVIEW2
  +--> ?PR?WAITDISVSYNC?SCALER_DISPLAY
  +--> ?PR?_PANELPOWERONSEQUENCE?SYSAPI
  +--> ?PR?_SETBRIGHTNESS?SYSAPI
  +--> ?PR?_SETPOSTBGCOLOR?SCALER_DISPLAY
  +--> ?PR?_OSDSHOWDIALOG?OSDVIEW3

?PR?OSDENTERNOSYNC?OSDCTRL                       -----    -----      -----    -----      -----    -----      -----    --
>> ---
  +--> ?PR?OSDSHOWBURNING?OSDVIEW2
  +--> ?PR?_SETGLOBALTIMER?MISC
  +--> ?PR?OSDSHOWNOSYNC?OSDVIEW2

?PR?OSDSHOWNOSYNC?OSDVIEW2                       -----    -----      -----    -----      -----    -----      -----    --
>> ---
  +--> ?PR?DISABLEDBC?DBC
  +--> ?PR?OSDVIEW2
  +--> ?PR?WAITDISVSYNC?SCALER_DISPLAY
  +--> ?PR?_PANELPOWERONSEQUENCE?SYSAPI
  +--> ?PR?_SETBRIGHTNESS?SYSAPI
  +--> ?PR?_SETPOSTBGCOLOR?SCALER_DISPLAY
  +--> ?PR?_OSDSHOWDIALOG?OSDVIEW3

?PR?OSDPERFORMAUTOTUNE?OSDVIEW2                  -----    -----      -----    -----      -----    -----      -----    --
>> ---
  +--> ?PR?GETINPUTSYNCMODE?SYNCHANDLER
  +--> ?PR?_OSDSHOWDIALOG?OSDVIEW3
  +--> ?PR?USERPERFORMAUTOTUNE?USERSETTING
  +--> ?PR?OSDCLOSED?OSDVIEW2
  +--> ?PR?_NVRAMWRITETIMINGDATA?NVRAM

BL51 BANKED LINKER/LOCATER V6.22                                                      01/06/2017  14:57:29  PAGE 124


?PR?ISPRESETMODETIMING?MODECONFIG                -----    -----      -----    -----      -----    -----      -----    --
>> ---
  +--> ?PR?MODECONFIG
  +--> ?PR?ISCOMPONENTINPUT?MODECONFIG

?PR?ISOSDALLOWRESNOTICE?OSDVIEW3                 -----    -----      -----    -----      -----    -----      -----    --
>> ---
  +--> ?PR?ISNATIVETIMING?MODECONFIG
  +--> ?PR?ISSHOWRESOLUTIONNOTICE?USERSETTING
  +--> ?PR?ISDVIDPINPUT?OSDVIEW3
  +--> ?PR?ISHDMIVIDEOTIMING?MODECONFIG

?PR?ISNATIVETIMING?MODECONFIG                    0020H.0  0000H.1    -----    -----      -----    -----      -----    --
>> ---
  +--> ?PR?GETINPUTSYNCMODE?SYNCHANDLER
  +--> ?PR?_ABS?ABS

?PR?ISSHOWRESOLUTIONNOTICE?USERSETTING           -----    -----      -----    -----      -----    -----      -----    --
>> ---
  +--> ?PR?ISCOMPONENTINPUT?MODECONFIG

?PR?ISHDMIVIDEOTIMING?MODECONFIG                 -----    -----      -----    -----      -----    -----      -----    --
>> ---
  +--> ?PR?USERGETINPUTSOURCE?USERSETTING
  +--> ?PR?ISHDMIVIDEO?SCALER_HDMI
  +--> ?PR?ISVIDEOTIMING?MODECONFIG

?PR?OSDRESHOWMENU?OSDVIEW2                       -----    -----      -----    -----      -----    -----      A2E6H    00
>> 01H
  +--> ?PR?OSDVIEW2
  +--> ?PR?WAITDISVSYNC?SCALER_DISPLAY
  +--> ?PR?OSDINITIALIZE?OSDVIEW2
  +--> ?PR?_OSDINITFRAME?OSDVIEW2
  +--> ?PR?_OSDSHOWBENQMAINFRAME?OSDVIEW2
  +--> ?PR?_OSDSHOWSELECTPAGEMAINFRAME?OSDVIEW2
  +--> ?PR?_OSDSHOWSELECTPAGEICON?OSDVIEW2
  +--> ?PR?_OSDSHOWBIGWIN?OSDVIEW2
  +--> ?PR?_OSDSHOWSTRINGSEPARATER?OSDVIEW2
  +--> ?PR?_OSDSHOWMAINMENUICON?OSDVIEW2
  +--> ?PR?OSDSHOWTITLESTRING?OSDVIEW2
  +--> ?PR?OSDSHOWMAINMENUSTRINGS?OSDVIEW
  +--> ?PR?_OSDUNSELECTLAYER2ITEM?OSDVIEW2
  +--> ?PR?_OSDSELECTLAYER2ITEM?OSDVIEW
  +--> ?PR?_OSDSELECTLAYER1ITEM?OSDVIEW
  +--> ?PR?_OSDCLRLAYER1MENU?OSDVIEW2
  +--> ?PR?_OSDCLRLAYER2MENU?OSDVIEW2
  +--> ?PR?_OSDSELECTLAYER3ITEM?OSDVIEW
  +--> ?PR?OSDFOCUSDYNAMICCN?OSDVIEW2
  +--> ?PR?USERSETTRANSPARENT?USERSETTING
  +--> ?PR?_OSDSETPOSITION?OSDVIEW2
  +--> ?PR?_SETOSDSTATE?OSDCTRL
  +--> ?PR?OSDTURNONOSD?OSDVIEW2

?PR?_OSDSHOWBENQMAINFRAME?OSDVIEW2               -----    -----      -----    -----      -----    -----      A2E7H    00
>> 05H
  +--> ?PR?_OSDCLEARFRAME?OSDVIEW2
  +--> ?PR?OSDVIEW2
BL51 BANKED LINKER/LOCATER V6.22                                                      01/06/2017  14:57:29  PAGE 125


  +--> ?PR?_WRITESHORTSCALER?SCALERACCESS
  +--> ?PR?OSDAPI_WRITEXYCHAR?OSDAPI
  +--> ?PR?OSDAPI_WRITEXYREPEATCHAR?OSDAPI

?PR?_OSDSHOWSELECTPAGEICON?OSDVIEW2              -----    -----      -----    -----      -----    -----      A2E7H    00
>> 07H
  +--> ?PR?OSDVIEW2
  +--> ?PR?_WRITESHORTSCALER?SCALERACCESS
  +--> ?PR?OSDAPI_WRITEXYCHAR?OSDAPI

?PR?_OSDSHOWSTRINGSEPARATER?OSDVIEW2             0020H.1  0000H.1    -----    -----      -----    -----      A2EEH    00
>> 01H
  +--> ?PR?OSDVIEW2
  +--> ?PR?_WRITESHORTSCALER?SCALERACCESS
  +--> ?PR?OSDAPI_WRITEXYREPEATCHAR?OSDAPI

?PR?_OSDSHOWMAINMENUICON?OSDVIEW2                -----    -----      -----    -----      -----    -----      A2E7H    00
>> 02H
  +--> ?PR?OSDVIEW2
  +--> ?PR?_WRITESHORTSCALER?SCALERACCESS
  +--> ?CO?OSDVIEW2
  +--> ?PR?OSDAPI_WRITEXYSTRING?OSDAPI_COMMON
  +--> ?PR?_ISOSDMAINICONAVAILABLE?OSDVIEW3

?PR?OSDAPI_WRITEXYSTRING?OSDAPI_COMMON           0020H.0  0000H.1    -----    -----      -----    -----      A2E9H    00
>> 06H
  +--> ?PR?OSDAPI_COMMON
  +--> ?PR?OSDAPI_GETOSDWIDTH?OSDAPI

?PR?OSDSHOWTITLESTRING?OSDVIEW2                  -----    -----      -----    -----      -----    -----      A2E7H    00
>> 01H
  +--> ?PR?_OSDAPI_SETINDENTINDEX?OSDAPI_INDENT
  +--> ?PR?_OSDAPI_SETALIGNTYPE?OSDAPI
  +--> ?PR?OSDVIEW2
  +--> ?PR?_WRITESHORTSCALER?SCALERACCESS
  +--> ?CO?OSDINDEX2
  +--> ?PR?SHOWINDENTSTRING?OSDAPI_COMMON

?PR?OSDSHOWMAINMENUSTRINGS?OSDVIEW               -----    -----      -----    -----      -----    -----      A2E7H    00
>> 02H
  +--> ?PR?OSDVIEW
  +--> ?PR?_WRITESHORTSCALER?SCALERACCESS
  +--> ?PR?_OSDAPI_SETINDENTINDEX?OSDAPI_INDENT
  +--> ?PR?_ISOSDMAINICONAVAILABLE?OSDVIEW3
  +--> ?CO?OSDINDEX
  +--> ?PR?SHOWINDENTSTRING?OSDAPI_COMMON

?PR?_OSDUNSELECTLAYER2ITEM?OSDVIEW2              0020H.0  0000H.1    -----    -----      -----    -----      A2E7H    00
>> 02H
  +--> ?PR?OSDVIEW2
  +--> ?PR?CLRLAYER4?OSDVIEW
  +--> ?PR?_WRITESHORTSCALER?SCALERACCESS
  +--> ?PR?_OSDGETLAYER3ITEMNUM?OSDVIEW
  +--> ?PR?_OSDCHECKL3ITEMNUM?OSDVIEW
  +--> ?PR?OSDCLEARLAYER3?OSDVIEW2
  +--> ?PR?OSDAPI_WRITEXYREPEATCHAR?OSDAPI
  +--> ?PR?_OSDAPI_OSDWINOFF?OSDAPI
BL51 BANKED LINKER/LOCATER V6.22                                                      01/06/2017  14:57:29  PAGE 126


  +--> ?PR?_OSDAPI_FILLLINEATTR?OSDAPI

?PR?CLRLAYER4?OSDVIEW                            -----    -----      -----    -----      -----    -----      A2E9H    00
>> 01H
  +--> ?PR?OSDVIEW
  +--> ?PR?_WRITESHORTSCALER?SCALERACCESS
  +--> ?PR?OSDAPI_WRITEXYREPEATCHAR?OSDAPI

?PR?_OSDGETLAYER3ITEMNUM?OSDVIEW                 -----    -----      -----    -----      -----    -----      -----    --
>> ---
  +--> ?PR?OSDVIEW

?PR?_OSDCHECKL3ITEMNUM?OSDVIEW                   -----    -----      -----    -----      -----    -----      -----    --
>> ---
  +--> ?PR?OSDVIEW

?PR?OSDCLEARLAYER3?OSDVIEW2                      -----    -----      -----    -----      -----    -----      A2E9H    00
>> 01H
  +--> ?PR?OSDVIEW2
  +--> ?PR?_WRITESHORTSCALER?SCALERACCESS
  +--> ?PR?OSDAPI_WRITEXYREPEATCHAR?OSDAPI

?PR?_OSDAPI_FILLLINEATTR?OSDAPI                  -----    -----      -----    -----      -----    -----      A2EFH    00
>> 05H
  +--> ?PR?OSDAPI

?PR?_OSDSELECTLAYER2ITEM?OSDVIEW                 0020H.0  0000H.1    -----    -----      -----    -----      A2E7H    00
>> 07H
  +--> ?PR?_OSDAPI_FILLLINEATTR?OSDAPI
  +--> ?PR?_OSDAPI_SETALIGNTYPE?OSDAPI
  +--> ?PR?OSDVIEW
  +--> ?PR?_WRITESHORTSCALER?SCALERACCESS
  +--> ?PR?_OSDISSUBITEMVALID?OSDVIEW2
  +--> ?PR?_OSDSHOWARROW?OSDVIEW
  +--> ?PR?_OSDAPI_SETINDENTINDEX?OSDAPI_INDENT
  +--> ?PR?_OSDCLEARARROW?OSDVIEW
  +--> ?PR?_OSDSHOWTRIANICON?OSDVIEW2
  +--> ?PR?_OSDSHOWBIGWIN?OSDVIEW2
  +--> ?PR?_OSDSHOWSMALLWIN?OSDVIEW2
  +--> ?PR?_OSDSHOWSTRINGSEPARATER?OSDVIEW2
  +--> ?PR?_OSDGETLAYER3ITEMNUM?OSDVIEW
  +--> ?PR?OSDAPI_WRITEXYREPEATCHAR?OSDAPI
  +--> ?PR?SHOWINDENTSTRING?OSDAPI_COMMON
  +--> ?PR?_OSDUPDATEARROWICON?OSDVIEW2
  +--> ?PR?_OSDISLAYER3ITEMVALID?OSDVIEW2
  +--> ?PR?OSDSHOWINFO?OSDVIEW
  +--> ?PR?_OSDSHOWHOOKICON?OSDVIEW2
  +--> ?PR?_OSDSHOWLAYER3ITEM?OSDVIEW2

?PR?_OSDSHOWARROW?OSDVIEW                        -----    -----      -----    -----      -----    -----      A2EEH    00
>> 03H
  +--> ?PR?OSDVIEW
  +--> ?PR?OSDAPI_WRITEXYCHAR?OSDAPI

?PR?_OSDCLEARARROW?OSDVIEW                       -----    -----      -----    -----      -----    -----      A2EEH    00
>> 03H
  +--> ?PR?OSDVIEW
BL51 BANKED LINKER/LOCATER V6.22                                                      01/06/2017  14:57:29  PAGE 127


  +--> ?PR?OSDAPI_WRITEXYREPEATCHAR?OSDAPI

?PR?_OSDSHOWTRIANICON?OSDVIEW2                   -----    -----      -----    -----      -----    -----      A2EEH    00
>> 02H
  +--> ?PR?OSDVIEW2
  +--> ?PR?_OSDDRAWTRIANICON?OSDVIEW2

?PR?_OSDDRAWTRIANICON?OSDVIEW2                   -----    -----      -----    -----      -----    -----      A2F0H    00
>> 1FH
  +--> ?PR?OSDVIEW2
  +--> ?CO?OSDVIEW2
  +--> ?PR?FNGETCUSTOMERKEYITEM?OSDCTRL
  +--> ?PR?_WRITESHORTSCALER?SCALERACCESS
  +--> ?PR?ISCUSTOMMENUSLIDER?OSDVIEW2
  +--> ?PR?OSDAPI_WRITEXYCHAR?OSDAPI

?PR?ISCUSTOMMENUSLIDER?OSDVIEW2                  -----    -----      -----    -----      -----    -----      -----    --
>> ---
  +--> ?PR?FNGETCUSTOMERKEYITEM?OSDCTRL

?PR?_OSDSHOWSMALLWIN?OSDVIEW2                    -----    -----      -----    -----      -----    -----      A2EEH    00
>> 06H
  +--> ?PR?_OSDAPI_SELOSDWIN?OSDAPI
  +--> ?PR?OSDVIEW2
  +--> ?PR?OSDAPI_SETOSDWINATTR?OSDAPI
  +--> ?PR?_OSDAPI_SETOSDWINSIZE?OSDAPI
  +--> ?PR?_OSDAPI_OSDWINON?OSDAPI

?PR?_OSDUPDATEARROWICON?OSDVIEW2                 -----    -----      -----    -----      -----    -----      A2EEH    00
>> 04H
  +--> ?PR?OSDVIEW2
  +--> ?PR?_WRITESHORTSCALER?SCALERACCESS
  +--> ?PR?OSDAPI_WRITEXYCHAR?OSDAPI
  +--> ?PR?OSDAPI_WRITEXYREPEATCHAR?OSDAPI

?PR?OSDSHOWINFO?OSDVIEW                          -----    -----      -----    -----      -----    -----      -----    --
>> ---
  +--> ?PR?_OSDSHOWSTRINGSEPARATER?OSDVIEW2
  +--> ?PR?_OSDAPI_SETINDENTINDEX?OSDAPI_INDENT
  +--> ?PR?_OSDAPI_SETALIGNTYPE?OSDAPI
  +--> ?PR?OSDVIEW
  +--> ?PR?_WRITESHORTSCALER?SCALERACCESS
  +--> ?PR?_GETINPUTPORTINDEX?USERSETTING
  +--> ?CO?OSDINDEX
  +--> ?PR?SHOWINDENTSTRING?OSDAPI_COMMON
  +--> ?PR?_OSDSHOWCURRENTRESOLUTION?OSDVIEW2
  +--> ?PR?_OSDSHOWOPTIMUMRESOLUTION?OSDVIEW2

?PR?_OSDSHOWCURRENTRESOLUTION?OSDVIEW2           -----    -----      -----    -----      -----    -----      A2EEH    00
>> 23H
  +--> ?PR?GETCURRINPUTINTERFACE?SCALER_COMMON
  +--> ?PR?OSDVIEW2
  +--> ?CO?OSDVIEW2
  +--> ?PR?PRINTF?PRINTF
  +--> ?PR?_OSDAPI_SETALIGNTYPE?OSDAPI
  +--> ?PR?ISCOMPONENTTIMING?MODECONFIG
  +--> ?PR?ISHDMIVIDEOTIMING?MODECONFIG
BL51 BANKED LINKER/LOCATER V6.22                                                      01/06/2017  14:57:29  PAGE 128


  +--> ?PR?_OSDSHOWCOMPONENTTIMINGRESOLUTION...
  +--> ?PR?SHOWINDENTSTRING?OSDAPI_COMMON

?PR?PRINTF?PRINTF                                0020H.2  0001H.1    0027H    0005H      -----    -----      A32EH    00
>> 30H
  +--> ?PR?_PUTCHAR?INT

?PR?_PUTCHAR?INT                                 -----    -----      -----    -----      -----    -----      -----    --
>> ---
  +--> ?PR?_UART_PUTCHAR?INT

?PR?_OSDSHOWCOMPONENTTIMINGRESOLUTION...         -----    -----      -----    -----      -----    -----      A311H    00
>> 1DH
  +--> ?PR?OSDVIEW2
  +--> ?CO?OSDVIEW2
  +--> ?PR?PRINTF?PRINTF
  +--> ?PR?_OSDAPI_SETALIGNTYPE?OSDAPI
  +--> ?PR?SHOWINDENTSTRING?OSDAPI_COMMON

?PR?_OSDSHOWOPTIMUMRESOLUTION?OSDVIEW2           -----    -----      -----    -----      -----    -----      A2EEH    00
>> 21H
  +--> ?PR?OSDVIEW2
  +--> ?PR?PRINTF?PRINTF
  +--> ?PR?_OSDAPI_SETALIGNTYPE?OSDAPI
  +--> ?PR?SHOWINDENTSTRING?OSDAPI_COMMON

?PR?_OSDSHOWHOOKICON?OSDVIEW2                    -----    -----      -----    -----      -----    -----      A2EEH    00
>> 05H
  +--> ?PR?OSDVIEW2
  +--> ?PR?_OSDCLEARITEMHOOKICON?OSDVIEW2
  +--> ?PR?_WRITESHORTSCALER?SCALERACCESS
  +--> ?PR?GETGAMMANUM?COLORCONFIG
  +--> ?PR?ISCOMPONENTINPUT?MODECONFIG
  +--> ?PR?OSDAPI_WRITEXYCHAR?OSDAPI

?PR?_OSDCLEARITEMHOOKICON?OSDVIEW2               -----    -----      -----    -----      -----    -----      A2F3H    00
>> 02H
  +--> ?PR?OSDVIEW2
  +--> ?PR?_WRITESHORTSCALER?SCALERACCESS
  +--> ?PR?OSDAPI_WRITEXYCHAR?OSDAPI

?PR?_OSDSHOWLAYER3ITEM?OSDVIEW2                  -----    -----      -----    -----      -----    -----      A2EEH    00
>> 01H
  +--> ?PR?OSDVIEW2
  +--> ?PR?_OSDSHOWLAYER3SLIDERBAR?OSDVIEW2
  +--> ?PR?_OSDSHOWDYNAMICCONTRAST?OSDVIEW2
  +--> ?PR?_OSDSHOWVOLUME?OSDVIEW2

?PR?_OSDSHOWLAYER3SLIDERBAR?OSDVIEW2             0020H.1  0000H.1    -----    -----      -----    -----      A2EFH    00
>> 04H
  +--> ?PR?OSDVIEW2
  +--> ?PR?USERGETNORMALCLOCK?USERSETTING
  +--> ?PR?USERGETNORMALHPOSN?USERSETTING
  +--> ?PR?USERGETNORMALVPOSN?USERSETTING
  +--> ?PR?_OSDSHOWSLIDERBAR?OSDVIEW2
  +--> ?PR?_OSDSHOWNUM?OSDVIEW2

BL51 BANKED LINKER/LOCATER V6.22                                                      01/06/2017  14:57:29  PAGE 129


?PR?USERGETNORMALCLOCK?USERSETTING               -----    -----      -----    -----      -----    -----      -----    --
>> ---
  +--> ?PR?USERSETTING

?PR?USERGETNORMALHPOSN?USERSETTING               -----    -----      -----    -----      -----    -----      -----    --
>> ---
  +--> ?PR?USERSETTING

?PR?_OSDSHOWSLIDERBAR?OSDVIEW2                   0020H.2  0000H.1    -----    -----      -----    -----      A2F3H    00
>> 0DH
  +--> ?PR?OSDVIEW2
  +--> ?PR?_WRITESHORTSCALER?SCALERACCESS
  +--> ?PR?OSDAPI_WRITEXYCHAR?OSDAPI

?PR?_OSDSHOWNUM?OSDVIEW2                         -----    -----      -----    -----      -----    -----      A2F3H    00
>> 0BH
  +--> ?PR?OSDVIEW2
  +--> ?PR?PRINTF?PRINTF
  +--> ?PR?_OSDAPI_SETINDENTINDEX?OSDAPI_INDENT
  +--> ?PR?_OSDAPI_SETALIGNTYPE?OSDAPI
  +--> ?PR?_OSDAPI_SELOSDWIN?OSDAPI
  +--> ?PR?OSDAPI_SETOSDWINATTR?OSDAPI
  +--> ?PR?_OSDAPI_SETOSDWINSIZE?OSDAPI
  +--> ?PR?_OSDAPI_OSDWINON?OSDAPI
  +--> ?PR?_OSDAPI_OSDWINOFF?OSDAPI
  +--> ?PR?_WRITESHORTSCALER?SCALERACCESS
  +--> ?PR?SHOWINDENTSTRING?OSDAPI_COMMON

?PR?_OSDSHOWDYNAMICCONTRAST?OSDVIEW2             -----    -----      -----    -----      -----    -----      -----    --
>> ---
  +--> ?PR?OSDVIEW2
  +--> ?PR?_OSDSHOWSLIDERBAR?OSDVIEW2
  +--> ?PR?_OSDSHOWNUM?OSDVIEW2

?PR?_OSDSHOWVOLUME?OSDVIEW2                      0020H.1  0000H.1    -----    -----      -----    -----      A2EFH    00
>> 02H
  +--> ?PR?OSDVIEW2
  +--> ?PR?_OSDSHOWSLIDERBAR?OSDVIEW2
  +--> ?PR?_OSDSHOWNUM?OSDVIEW2

?PR?_OSDSELECTLAYER1ITEM?OSDVIEW                 -----    -----      -----    -----      -----    -----      A2E7H    00
>> 02H
  +--> ?PR?_OSDAPI_SETINDENTINDEX?OSDAPI_INDENT
  +--> ?PR?_OSDAPI_SETALIGNTYPE?OSDAPI
  +--> ?PR?OSDVIEW
  +--> ?PR?_WRITESHORTSCALER?SCALERACCESS
  +--> ?PR?_OSDISSUBITEMVALID?OSDVIEW2
  +--> ?PR?SHOWINDENTSTRING?OSDAPI_COMMON
  +--> ?PR?_OSDSELECTLAYER1ICON?OSDVIEW2
  +--> ?PR?_OSDSHOWUPDOWNARROWICON?OSDVIEW2

?PR?_OSDSELECTLAYER1ICON?OSDVIEW2                -----    -----      -----    -----      -----    -----      A2E9H    00
>> 02H
  +--> ?PR?_OSDSHOWSMALLWIN?OSDVIEW2
  +--> ?PR?OSDVIEW2
  +--> ?PR?_OSDAPI_FILLLINEATTR?OSDAPI

BL51 BANKED LINKER/LOCATER V6.22                                                      01/06/2017  14:57:29  PAGE 130


?PR?_OSDSHOWUPDOWNARROWICON?OSDVIEW2             -----    -----      -----    -----      -----    -----      -----    --
>> ---
  +--> ?PR?OSDVIEW2
  +--> ?PR?_WRITESHORTSCALER?SCALERACCESS
  +--> ?PR?OSDAPI_WRITEXYCHAR?OSDAPI
  +--> ?PR?OSDAPI_WRITEXYREPEATCHAR?OSDAPI

?PR?_OSDCLRLAYER1MENU?OSDVIEW2                   -----    -----      -----    -----      -----    -----      A2E7H    00
>> 05H
  +--> ?PR?_OSDAPI_OSDWINOFF?OSDAPI
  +--> ?PR?OSDVIEW2
  +--> ?PR?_OSDAPI_FILLLINEATTR?OSDAPI

?PR?_OSDCLRLAYER2MENU?OSDVIEW2                   -----    -----      -----    -----      -----    -----      A2E7H    00
>> 02H
  +--> ?PR?OSDDISABLELAYERWINDOW?OSDVIEW2
  +--> ?PR?_OSDAPI_FILLLINEATTR?OSDAPI
  +--> ?PR?OSDVIEW2
  +--> ?PR?_OSDISSUBITEMVALID?OSDVIEW2
  +--> ?PR?WAITDISVSYNC?SCALER_DISPLAY
  +--> ?PR?_OSDSHOWLAYERSEPARATER?OSDVIEW2

?PR?OSDDISABLELAYERWINDOW?OSDVIEW2               -----    -----      -----    -----      -----    -----      -----    --
>> ---
  +--> ?PR?_OSDAPI_OSDWINOFF?OSDAPI

?PR?_OSDSHOWLAYERSEPARATER?OSDVIEW2              0020H.0  0000H.1    -----    -----      -----    -----      A2E9H    00
>> 02H
  +--> ?PR?OSDVIEW2
  +--> ?PR?_WRITESHORTSCALER?SCALERACCESS
  +--> ?PR?_OSDCLEARLAYER?OSDVIEW2
  +--> ?PR?_OSDSHOWTRIANICON?OSDVIEW2
  +--> ?PR?_OSDDRAWLAYERSEPARATERLINE?OSDVIEW2

?PR?_OSDCLEARLAYER?OSDVIEW2                      -----    -----      -----    -----      -----    -----      A2EBH    00
>> 02H
  +--> ?PR?OSDVIEW2
  +--> ?PR?_WRITESHORTSCALER?SCALERACCESS
  +--> ?PR?OSDAPI_WRITEXYCHAR?OSDAPI

?PR?_OSDDRAWLAYERSEPARATERLINE?OSDVIEW2          0020H.1  0000H.1    -----    -----      -----    -----      A2EBH    00
>> 02H
  +--> ?PR?OSDVIEW2
  +--> ?PR?_WRITESHORTSCALER?SCALERACCESS
  +--> ?PR?OSDAPI_WRITEXYCHAR?OSDAPI

?PR?_OSDSELECTLAYER3ITEM?OSDVIEW                 -----    -----      -----    -----      -----    -----      A2E7H    00
>> 04H
  +--> ?PR?OSDVIEW
  +--> ?PR?_OSDGETLAYER3ITEMNUM?OSDVIEW
  +--> ?PR?_OSDCLEARITEMHOOKICON?OSDVIEW2
  +--> ?PR?_OSDSHOWLAYER3PAGEHOOKICON?OSDVIEW3
  +--> ?PR?_OSDSHOWLAYER3PAGESTRING?OSDVIEW
  +--> ?PR?_OSDUPDATEARROWICON?OSDVIEW2
  +--> ?PR?_OSDSHOWTRIANICON?OSDVIEW2
  +--> ?PR?_OSDSHOWSMALLWIN?OSDVIEW2
  +--> ?PR?_OSDCHECKL3ITEMNUM?OSDVIEW
BL51 BANKED LINKER/LOCATER V6.22                                                      01/06/2017  14:57:29  PAGE 131


  +--> ?PR?_OSDAPI_FILLLINEATTR?OSDAPI
  +--> ?PR?_OSDSHOWBIGWIN?OSDVIEW2
  +--> ?PR?_OSDSHOWLAYER4?OSDVIEW
  +--> ?PR?_OSDAPI_SETINDENTINDEX?OSDAPI_INDENT
  +--> ?PR?_OSDAPI_SETALIGNTYPE?OSDAPI

?PR?_OSDSHOWLAYER3PAGEHOOKICON?OSDVIEW3          -----    -----      -----    -----      -----    -----      A2EBH    00
>> 02H
  +--> ?PR?_OSDSHOWHOOKICON?OSDVIEW2

?PR?_OSDSHOWLAYER3PAGESTRING?OSDVIEW             -----    -----      -----    -----      -----    -----      A2EBH    00
>> 04H
  +--> ?PR?OSDVIEW
  +--> ?PR?_OSDCHECKL3ITEMNUM?OSDVIEW
  +--> ?PR?_OSDGETLAYER3ITEMNUM?OSDVIEW
  +--> ?PR?_OSDISLAYER3ITEMVALID?OSDVIEW2
  +--> ?PR?_WRITESHORTSCALER?SCALERACCESS
  +--> ?PR?SHOWINDENTSTRING?OSDAPI_COMMON

?PR?_OSDSHOWLAYER4?OSDVIEW                       -----    -----      -----    -----      -----    -----      A2EBH    00
>> 02H
  +--> ?PR?_OSDSHOWRGAIN?OSDVIEW2
  +--> ?PR?_OSDSHOWGGAIN?OSDVIEW2
  +--> ?PR?_OSDSHOWBGAIN?OSDVIEW2
  +--> ?PR?OSDVIEW
  +--> ?PR?_WRITESHORTSCALER?SCALERACCESS
  +--> ?PR?_OSDSHOWLOWBLUELIGHTSTRINGS?OSDVIEW2
  +--> ?PR?OSDFOCUSANIMATION?OSDVIEW2
  +--> ?CO?OSDINDEX
  +--> ?PR?_OSDSHOWSTRINGSEPARATER?OSDVIEW2
  +--> ?PR?_OSDAPI_SETINDENTINDEX?OSDAPI_INDENT
  +--> ?PR?_OSDAPI_SETALIGNTYPE?OSDAPI
  +--> ?PR?_OSDSHOWHOOKICON?OSDVIEW2
  +--> ?PR?SHOWINDENTSTRING?OSDAPI_COMMON

?PR?_OSDSHOWRGAIN?OSDVIEW2                       0020H.0  0000H.1    -----    -----      -----    -----      A2EDH    00
>> 01H
  +--> ?PR?OSDVIEW2
  +--> ?PR?_OSDSHOWSLIDERBAR?OSDVIEW2
  +--> ?PR?_OSDSHOWNUM2?OSDVIEW2
  +--> ?PR?_WRITESHORTSCALER?SCALERACCESS
  +--> ?PR?_OSDAPI_SETINDENTINDEX?OSDAPI_INDENT
  +--> ?PR?_OSDAPI_SETALIGNTYPE?OSDAPI
  +--> ?CO?OSDINDEX2
  +--> ?PR?SHOWINDENTSTRING?OSDAPI_COMMON

?PR?_OSDSHOWNUM2?OSDVIEW2                        -----    -----      -----    -----      -----    -----      A2EEH    00
>> 0DH
  +--> ?PR?OSDVIEW2
  +--> ?PR?PRINTF?PRINTF
  +--> ?PR?_OSDAPI_SETINDENTINDEX?OSDAPI_INDENT
  +--> ?PR?_OSDAPI_SETALIGNTYPE?OSDAPI
  +--> ?PR?_OSDAPI_SELOSDWIN?OSDAPI
  +--> ?PR?OSDAPI_SETOSDWINATTR?OSDAPI
  +--> ?PR?_OSDAPI_SETOSDWINSIZE?OSDAPI
  +--> ?PR?_OSDAPI_OSDWINON?OSDAPI
  +--> ?PR?_OSDAPI_OSDWINOFF?OSDAPI
BL51 BANKED LINKER/LOCATER V6.22                                                      01/06/2017  14:57:29  PAGE 132


  +--> ?PR?_WRITESHORTSCALER?SCALERACCESS
  +--> ?PR?SHOWINDENTSTRING?OSDAPI_COMMON

?PR?_OSDSHOWGGAIN?OSDVIEW2                       0020H.0  0000H.1    -----    -----      -----    -----      A2EDH    00
>> 01H
  +--> ?PR?OSDVIEW2
  +--> ?PR?_OSDSHOWSLIDERBAR?OSDVIEW2
  +--> ?PR?_OSDSHOWNUM2?OSDVIEW2
  +--> ?PR?_WRITESHORTSCALER?SCALERACCESS
  +--> ?PR?_OSDAPI_SETINDENTINDEX?OSDAPI_INDENT
  +--> ?PR?_OSDAPI_SETALIGNTYPE?OSDAPI
  +--> ?CO?OSDINDEX2
  +--> ?PR?SHOWINDENTSTRING?OSDAPI_COMMON

?PR?_OSDSHOWBGAIN?OSDVIEW2                       0020H.0  0000H.1    -----    -----      -----    -----      A2EDH    00
>> 01H
  +--> ?PR?OSDVIEW2
  +--> ?PR?_OSDSHOWSLIDERBAR?OSDVIEW2
  +--> ?PR?_OSDSHOWNUM2?OSDVIEW2
  +--> ?PR?_WRITESHORTSCALER?SCALERACCESS
  +--> ?PR?_OSDAPI_SETINDENTINDEX?OSDAPI_INDENT
  +--> ?PR?_OSDAPI_SETALIGNTYPE?OSDAPI
  +--> ?CO?OSDINDEX2
  +--> ?PR?SHOWINDENTSTRING?OSDAPI_COMMON

?PR?_OSDSHOWLOWBLUELIGHTSTRINGS?OSDVIEW2         -----    -----      -----    -----      -----    -----      A2EDH    00
>> 03H
  +--> ?PR?OSDVIEW2
  +--> ?CO?OSDINDEX2
  +--> ?PR?SHOWINDENTSTRING?OSDAPI_COMMON

?PR?OSDFOCUSANIMATION?OSDVIEW2                   -----    -----      -----    -----      -----    -----      -----    --
>> ---
  +--> ?PR?_OSDSHOWLAYER4SLIDERBAR?OSDVIEW3

?PR?_OSDSHOWLAYER4SLIDERBAR?OSDVIEW3             -----    -----      -----    -----      -----    -----      A2EDH    00
>> 01H
  +--> ?PR?_OSDSHOWNUM2?OSDVIEW2
  +--> ?PR?_OSDSHOWSLIDERBAR?OSDVIEW2

?PR?OSDFOCUSDYNAMICCN?OSDVIEW2                   -----    -----      -----    -----      -----    -----      -----    --
>> ---
  +--> ?PR?_OSDSHOWDYNAMICCONTRAST?OSDVIEW2

?PR?_OSDCANCELPREVIEW?OSDCTRL                    -----    -----      -----    -----      -----    -----      A2E6H    00
>> 02H
  +--> ?PR?_NVRAMREADUSERDATA?NVRAM
  +--> ?PR?USERSETGAMMA?USERSETTING
  +--> ?PR?USERSETCOLORTEMP?USERSETTING
  +--> ?PR?USERSETOD?USERSETTING
  +--> ?PR?USERSETBF?USERSETTING
  +--> ?PR?USERSETDUALVIEW?USERSETTING
  +--> ?PR?ISCOMPONENTINPUT?MODECONFIG
  +--> ?PR?OSDSETOVERSCAN?OSDVIEW2
  +--> ?PR?SETASPRATIOSETTING?USERSETTING
  +--> ?PR?USERSETASPECTRATIO?USERSETTING
  +--> ?PR?SETCOLORSPACE?SCALER_CSC
BL51 BANKED LINKER/LOCATER V6.22                                                      01/06/2017  14:57:29  PAGE 133


  +--> ?PR?USERSETVOLUMEANDMUTE?USERSETTING
  +--> ?PR?OSDAUDIOSELECT?OSDVIEW2

?PR?USERSETGAMMA?USERSETTING                     -----    -----      -----    -----      -----    -----      -----    --
>> ---
  +--> ?PR?LOADGAMMA?GAMMA
  +--> ?PR?GMAPI_ENABLEGAMMA?GAMMAAPI
  +--> ?PR?GMAPI_DISABLEGAMMA?GAMMAAPI

?PR?USERSETBF?USERSETTING                        -----    -----      -----    -----      -----    -----      -----    --
>> ---
  +--> ?PR?_SETTHEMEMODE?COLORCONFIG
  +--> ?PR?_SETPICTUREMODE?COLORCONFIG

?PR?_SETTHEMEMODE?COLORCONFIG                    -----    -----      -----    -----      -----    -----      A2EAH    00
>> 01H
  +--> ?PR?_BFAPI_SETACTIVEWINDOW?BFAPI
  +--> ?PR?_BFAPI_ENABLECM?BFAPI
  +--> ?PR?COLORCONFIG
  +--> ?CO?COLORCONFIG
  +--> ?PR?_BFAPI_SETROFFSET?BFAPI
  +--> ?PR?_BFAPI_SETGOFFSET?BFAPI
  +--> ?PR?_BFAPI_SETBOFFSET?BFAPI
  +--> ?PR?_BFAPI_SETRGAIN?BFAPI
  +--> ?PR?_BFAPI_SETGGAIN?BFAPI
  +--> ?PR?_BFAPI_SETBGAIN?BFAPI
  +--> ?PR?USERSETSATURATION?COLORCONFIG
  +--> ?PR?USERSETHUE?COLORCONFIG
  +--> ?PR?_BFAPI_SETHUE?BFAPI
  +--> ?PR?_BFAPI_SETSATURATION?BFAPI
  +--> ?PR?_BFAPI_SETINTENSITY?BFAPI
  +--> ?PR?_BFAPI_CORRECTFLESHTONE?BFAPI
  +--> ?PR?_BFAPI_ENHANCERED?BFAPI
  +--> ?PR?_BFAPI_ENHANCEGREEN?BFAPI
  +--> ?PR?_BFAPI_ENHANCEBLUE?BFAPI
  +--> ?PR?_BFAPI_SETYPEAKING?BFAPI
  +--> ?PR?_BFAPI_SETTEXTENHANCEMENT?BFAPI
  +--> ?PR?_BFAPI_COLORENHANCE?BFAPI
  +--> ?PR?_BFAPI_SETPREACEMODE?BFAPI
  +--> ?PR?_BFAPI_SETHHTABLE?BFAPI
  +--> ?PR?_BFAPI_SETHSTABLE?BFAPI
  +--> ?PR?_BFAPI_SETHITABLE?BFAPI
  +--> ?PR?SETDEMO?COLORCONFIG
  +--> ?PR?_BFAPI_ENABLEWINDOW?BFAPI

?PR?USERSETSATURATION?COLORCONFIG                -----    -----      -----    -----      -----    -----      -----    --
>> ---
  +--> ?PR?_BFAPI_SETACTIVEWINDOW?BFAPI
  +--> ?PR?COLORCONFIG
  +--> ?PR?_BFAPI_SETSATURATION?BFAPI

?PR?USERSETHUE?COLORCONFIG                       -----    -----      -----    -----      -----    -----      -----    --
>> ---
  +--> ?PR?_BFAPI_SETACTIVEWINDOW?BFAPI
  +--> ?PR?COLORCONFIG
  +--> ?PR?_BFAPI_SETHUE?BFAPI

BL51 BANKED LINKER/LOCATER V6.22                                                      01/06/2017  14:57:29  PAGE 134


?PR?_BFAPI_CORRECTFLESHTONE?BFAPI                -----    -----      -----    -----      -----    -----      -----    --
>> ---
  +--> ?PR?BFAPI

?PR?_BFAPI_ENHANCERED?BFAPI                      -----    -----      -----    -----      -----    -----      -----    --
>> ---
  +--> ?PR?BFAPI

?PR?_BFAPI_ENHANCEGREEN?BFAPI                    -----    -----      -----    -----      -----    -----      -----    --
>> ---
  +--> ?PR?BFAPI

?PR?_BFAPI_ENHANCEBLUE?BFAPI                     -----    -----      -----    -----      -----    -----      -----    --
>> ---
  +--> ?PR?BFAPI

?PR?_SETPICTUREMODE?COLORCONFIG                  -----    -----      -----    -----      -----    -----      A2EAH    00
>> 04H
  +--> ?PR?COLORCONFIG
  +--> ?PR?USERSETANIMATION?COLORCONFIG
  +--> ?CO?NVRAM
  +--> ?PR?_SETSENSEEYELEFTMODE?COLORCONFIG
  +--> ?PR?SETDEMO?COLORCONFIG
  +--> ?PR?SETLBLMODE?COLORCONFIG
  +--> ?PR?USERSETBRIGHTNESS?USERSETTING
  +--> ?PR?USERSETCONTRAST?USERSETTING
  +--> ?PR?USERSETCOLORTEMP?USERSETTING
  +--> ?PR?USERSETGAMMA?USERSETTING
  +--> ?PR?USERSETSHARPNESS?USERSETTING
  +--> ?PR?USERSETDBC?USERSETTING
  +--> ?PR?USERSETDCR?USERSETTING

?PR?USERSETANIMATION?COLORCONFIG                 -----    -----      -----    -----      -----    -----      -----    --
>> ---
  +--> ?PR?_BFAPI_SETACTIVEWINDOW?BFAPI
  +--> ?PR?_BFAPI_ENABLECM?BFAPI
  +--> ?CO?COLORCONFIG
  +--> ?PR?COLORCONFIG
  +--> ?PR?_BFAPI_SETPREACEMODE?BFAPI
  +--> ?PR?_BFAPI_SETPREACEMODEWITHSTEP?COLO...
  +--> ?PR?_BFAPI_ENABLEWINDOW?BFAPI

?PR?_BFAPI_SETPREACEMODEWITHSTEP?COLO...         -----    -----      -----    -----      -----    -----      A2EEH    00
>> 0CH
  +--> ?PR?COLORCONFIG
  +--> ?CO?COLORCONFIG
  +--> ?PR?WAITDISVSYNC?SCALER_DISPLAY
  +--> ?PR?BFAPI_ENABLEACEMODE?BFAPI
  +--> ?PR?_ABS?ABS

?PR?SETLBLMODE?COLORCONFIG                       -----    -----      -----    -----      -----    -----      -----    --
>> ---
  +--> ?PR?_SETGAMMANUM?COLORCONFIG
  +--> ?PR?USERSETBRIGHTNESS?USERSETTING
  +--> ?PR?USERSETCONTRAST?USERSETTING
  +--> ?PR?USERSETCOLORTEMP?USERSETTING
  +--> ?PR?USERSETGAMMA?USERSETTING
BL51 BANKED LINKER/LOCATER V6.22                                                      01/06/2017  14:57:29  PAGE 135



?PR?USERSETSHARPNESS?USERSETTING                 -----    -----      -----    -----      -----    -----      -----    --
>> ---
  +--> ?PR?SETCLRTMP_SHARPNESS?COLORCONFIG
  +--> ?PR?_BFAPI_SETSHARPNESS?BFAPI

?PR?SETCLRTMP_SHARPNESS?COLORCONFIG              -----    -----      -----    -----      -----    -----      -----    --
>> ---
  +--> ?PR?SETLBLMODE_SHARPNESS?COLORCONFIG

?PR?USERSETDBC?USERSETTING                       -----    -----      -----    -----      -----    -----      -----    --
>> ---
  +--> ?PR?_BFAPI_ENABLEWINDOW?BFAPI
  +--> ?PR?DISABLEDCR?COLORCONFIG
  +--> ?PR?ENABLEDBC?DBC
  +--> ?PR?DISABLEDBC?DBC

?PR?DISABLEDCR?COLORCONFIG                       -----    -----      -----    -----      -----    -----      -----    --
>> ---
  +--> ?PR?USERSETBRIGHTNESS?USERSETTING

?PR?ENABLEDBC?DBC                                -----    -----      -----    -----      -----    -----      -----    --
>> ---
  +--> ?PR?_DBCAPI_SETDISTORTION?DBCAPI
  +--> ?PR?_DBCAPI_SETSAVINGRATIO?DBCAPI
  +--> ?PR?DBC
  +--> ?PR?_DBCAPI_SETDBCMINMAX?DBCAPI
  +--> ?PR?_DBCAPI_ENABLEABRUPTCHANGE?DBCAPI
  +--> ?PR?_DBCAPI_SETABRUPTSTEP?DBCAPI
  +--> ?PR?_DBCAPI_SETABRUPTMODE?DBCAPI
  +--> ?PR?_DBCAPI_SETPWMADJUSTMENT?DBCAPI
  +--> ?PR?DBCLIMITTRACKER?DBC
  +--> ?PR?DBCAPI_ENABLEDBC?DBCAPI
  +--> ?PR?_DBCAPI_ENABLEDBCPWM?DBCAPI
  +--> ?PR?DBCAPI_ENABLERGBCOMPENSATION?DBCAPI
  +--> ?PR?_SETREFERENCEDBCDUTY?SCALER_PWM

?PR?DBC                                          -----    -----      -----    -----      -----    -----      -----    --
>> ---
  +--> ?CO?DBC

?PR?_DBCAPI_SETABRUPTSTEP?DBCAPI                 -----    -----      -----    -----      -----    -----      -----    --
>> ---
  +--> ?PR?DBCAPI

?PR?_DBCAPI_SETABRUPTMODE?DBCAPI                 -----    -----      -----    -----      -----    -----      -----    --
>> ---
  +--> ?PR?DBCAPI

?PR?DBCLIMITTRACKER?DBC                          -----    -----      -----    -----      -----    -----      A2EEH    00
>> 01H
  +--> ?PR?DBC
  +--> ?PR?_DBCAPI_SETGRAY2PWMLIM?DBCAPI
  +--> ?PR?_DBCAPI_SETGRAY2GAINLIM?DBCAPI

?PR?USERSETDCR?USERSETTING                       -----    -----      -----    -----      -----    -----      -----    --
>> ---
BL51 BANKED LINKER/LOCATER V6.22                                                      01/06/2017  14:57:29  PAGE 136


  +--> ?PR?_BFAPI_SETACTIVEWINDOW?BFAPI
  +--> ?PR?SETDEMO?COLORCONFIG
  +--> ?PR?_DISABLEDBCSMOOTH?DBC
  +--> ?PR?ISOSDALLOWDCR?OSDVIEW3
  +--> ?PR?DISABLEDBC?DBC
  +--> ?PR?DCR_BENQ_FROCESETBK?COLORCONFIG
  +--> ?PR?DCR_BENQ_INIT?COLORCONFIG
  +--> ?PR?_PERFORMDCR?COLORCONFIG
  +--> ?PR?DISABLEDCR?COLORCONFIG

?PR?_DISABLEDBCSMOOTH?DBC                        -----    -----      -----    -----      -----    -----      -----    --
>> ---
  +--> ?PR?_DBCAPI_SETPWMADJUSTMENT?DBCAPI
  +--> ?PR?_DBCAPI_SETDISTORTION?DBCAPI
  +--> ?PR?_DBCAPI_SETSAVINGRATIO?DBCAPI
  +--> ?PR?DBCAPI_DISABLENLGAIN?DBCAPI
  +--> ?PR?DISABLEDBC?DBC

?PR?_PERFORMDCR?COLORCONFIG                      -----    -----      -----    -----      -----    -----      A2EEH    00
>> 01H
  +--> ?PR?_DCR_SETDYNACETYPE?DCR_SETDYMACE
  +--> ?PR?_DCR_UPDATEHISTOGRAM?DCR
  +--> ?PR?_DCR_SETDYMACE?DCR_SETDYMACE
  +--> ?PR?WAITDISVSYNC?SCALER_DISPLAY
  +--> ?PR?_SLEEP?MISC
  +--> ?PR?_GETSCALERPWM?SCALER_PWM
  +--> ?PR?_DCR_BENQ_RESETDYNBACKLIGHT?COLOR...
  +--> ?PR?DCR_BENQ_SETDYMBACKLIGHT?COLORCONFIG

?PR?_DCR_UPDATEHISTOGRAM?DCR                     -----    -----      -----    -----      -----    -----      A2EFH    00
>> 05H
  +--> ?PR?DCR

?PR?_DCR_SETDYMACE?DCR_SETDYMACE                 -----    -----      -----    -----      -----    -----      A2EFH    00
>> 04H
  +--> ?PR?DCR_SETDYMACE
  +--> ?PR?DCR_NEWIGBYHISTOGRAM?DCR_SETDYMACE
  +--> ?PR?WAITDISVSYNC?SCALER_DISPLAY
  +--> ?PR?BFAPI_ENABLEACEMODE?BFAPI

?PR?DCR_NEWIGBYHISTOGRAM?DCR_SETDYMACE           0020H.3  0000H.1    -----    -----      -----    -----      A2F3H    00
>> 01H
  +--> ?PR?_DCR_SETDYNACEPNTS?DCR_SETDYMACE
  +--> ?PR?DCR_ISSCENECHANGED?DCR
  +--> ?PR?DCR_UPDATEPREVHISTOGRAM?DCR
  +--> ?PR?DCR_SETDYMACE

?PR?_DCR_SETDYNACEPNTS?DCR_SETDYMACE             -----    -----      -----    -----      -----    -----      A2F4H    00
>> 03H
  +--> ?PR?DCR_SETDYMACE

?PR?DCR_ISSCENECHANGED?DCR                       -----    -----      -----    -----      -----    -----      A2F4H    00
>> 03H
  +--> ?PR?DCR
  +--> ?PR?_DCR_GETHISTOGRAMDIFF?DCR

?PR?_DCR_GETHISTOGRAMDIFF?DCR                    -----    -----      -----    -----      -----    -----      -----    --
BL51 BANKED LINKER/LOCATER V6.22                                                      01/06/2017  14:57:29  PAGE 137


>> ---
  +--> ?PR?DCR
  +--> ?PR?_ABS?ABS

?PR?DCR_UPDATEPREVHISTOGRAM?DCR                  -----    -----      -----    -----      -----    -----      -----    --
>> ---
  +--> ?PR?DCR

?PR?_DCR_BENQ_RESETDYNBACKLIGHT?COLOR...         -----    -----      -----    -----      -----    -----      -----    --
>> ---
  +--> ?PR?DCR_BENQ_SETDYMBACKLIGHT?COLORCONFIG

?PR?DCR_BENQ_SETDYMBACKLIGHT?COLORCONFIG         -----    -----      -----    -----      -----    -----      A2EFH    00
>> 02H
  +--> ?PR?COLORCONFIG
  +--> ?PR?ISHDMI?SCALER_HDMI
  +--> ?PR?ISBLANKVIDEO?COLORCONFIG
  +--> ?PR?GETTIMERTICK?INT
  +--> ?PR?ISBACKLIGHTON?BOARD
  +--> ?PR?BACKLIGHTON?BOARD
  +--> ?PR?BACKLIGHTOFF?BOARD
  +--> ?PR?_ABS?ABS
  +--> ?PR?_SETDBCBACKLIGHT?COLORCONFIG

?PR?_SETDBCBACKLIGHT?COLORCONFIG                 0020H.3  0000H.1    -----    -----      -----    -----      -----    --
>> ---
  +--> ?CO?COLORCONFIG
  +--> ?PR?_SETBRIGHTNESS?SYSAPI

?PR?USERSETDUALVIEW?USERSETTING                  0020H.0  0000H.1    -----    -----      -----    -----      A2E8H    00
>> 02H
  +--> ?PR?SETDEMO?COLORCONFIG
  +--> ?PR?_DUALVIEWPOINTOBFMODE?USERSETTING
  +--> ?PR?_SETTHEMEMODE?COLORCONFIG
  +--> ?PR?_SETPICTUREMODE?COLORCONFIG

?PR?OSDSETOVERSCAN?OSDVIEW2                      -----    -----      -----    -----      -----    -----      -----    --
>> ---
  +--> ?PR?USERSETASPECTRATIO?USERSETTING

?PR?SETASPRATIOSETTING?USERSETTING               -----    -----      -----    -----      -----    -----      -----    --
>> ---
  +--> ?PR?USERGETINPUTSOURCE?USERSETTING

?PR?USERSETVOLUMEANDMUTE?USERSETTING             -----    -----      -----    -----      -----    -----      -----    --
>> ---
  +--> ?PR?_SETVOLUME?SYSAPI
  +--> ?PR?USERSETVOLUME?USERSETTING
  +--> ?PR?USERSETAUDIOMUTE?USERSETTING

?PR?_SETVOLUME?SYSAPI                            -----    -----      -----    -----      -----    -----      A2EAH    00
>> 04H
  +--> ?PR?_SETSCALERPWM?SCALER_PWM
  +--> ?PR?_CONFIGSCALERAUDIO?SCALER_HDMI

?PR?_CONFIGSCALERAUDIO?SCALER_HDMI               -----    -----      -----    -----      -----    -----      A2EEH    00
>> 08H
BL51 BANKED LINKER/LOCATER V6.22                                                      01/06/2017  14:57:29  PAGE 138


  +--> ?PR?_CONFIGHDMIANALOGAUDIOGAIN?SCALER...
  +--> ?PR?_READSHORTSCALER?SCALERACCESS
  +--> ?PR?SCALER_HDMI
  +--> ?PR?_CONFIGHDMIDIGITALAUDIOGAIN?SCALE...

?PR?_CONFIGHDMIDIGITALAUDIOGAIN?SCALE...         -----    -----      -----    -----      -----    -----      A2F6H    00
>> 02H
  +--> ?PR?_WRITESHORTSCALER?SCALERACCESS

?PR?USERSETVOLUME?USERSETTING                    -----    -----      -----    -----      -----    -----      -----    --
>> ---
  +--> ?PR?USERSETTING
  +--> ?PR?_SETVOLUME?SYSAPI

?PR?USERSETAUDIOMUTE?USERSETTING                 -----    -----      -----    -----      -----    -----      -----    --
>> ---
  +--> ?PR?AUDIOMUTEON?BOARD
  +--> ?PR?AUDIOMUTEOFF?BOARD

?PR?AUDIOMUTEOFF?BOARD                           -----    -----      -----    -----      -----    -----      -----    --
>> ---
  +--> ?PR?_SLEEP?MISC
  +--> ?PR?_MCUSETIOBIT?MCUIO

?PR?OSDAUDIOSELECT?OSDVIEW2                      -----    -----      -----    -----      -----    -----      -----    --
>> ---
  +--> ?PR?AUDIOMUTEON?BOARD
  +--> ?PR?_SETVOLUME?SYSAPI
  +--> ?PR?USERSETAUDIOCHANNEL?USERSETTING
  +--> ?PR?_SLEEP?MISC
  +--> ?PR?USERSETVOLUME?USERSETTING
  +--> ?PR?USERSETAUDIOMUTE?USERSETTING

?PR?OSDCONFIGKEYBEHAVIOR?OSDCTRL                 -----    -----      -----    -----      -----    -----      -----    --
>> ---
  +--> ?PR?OSDCHECKBARADJITEM?OSDVIEW2
  +--> ?PR?_KEYSETREPEATEVENT?KEYCTRL

?PR?OSDCHECKBARADJITEM?OSDVIEW2                  0020H.0  0000H.1    -----    -----      -----    -----      -----    --
>> ---
  +--> ?PR?GETOSDSTATE?OSDCTRL

?PR?OSDUSERUPDATE?OSDVIEW2                       0020H.0  0000H.1    -----    -----      -----    -----      -----    --
>> ---

?PR?OSDTMGUPDATE?OSDVIEW2                        0020H.0  0000H.1    -----    -----      -----    -----      -----    --
>> ---

?PR?OSDSYSUPDATE?OSDVIEW2                        0020H.0  0000H.1    -----    -----      -----    -----      -----    --
>> ---

?PR?OSDCALUPDATE?OSDVIEW2                        0020H.0  0000H.1    -----    -----      -----    -----      -----    --
>> ---

?PR?KEYACTIONDEMANDER?KEYCTRL                    -----    -----      -----    -----      -----    -----      -----    --
>> ---
  +--> ?PR?KEYGETKEYEVENT?KEYCTRL
BL51 BANKED LINKER/LOCATER V6.22                                                      01/06/2017  14:57:29  PAGE 139



?PR?KEYGETKEYEVENT?KEYCTRL                       -----    -----      -----    -----      -----    -----      A2E5H    00
>> 02H
  +--> ?PR?SCANKEYPAD?KEYPAD
  +--> ?PR?_SEARCHKEYCODEINDEX?KEYCTRL
  +--> ?PR?KEYCTRL
  +--> ?PR?_SEARCHKEYEVENTINDEX?KEYCTRL
  +--> ?PR?GETTIMERTICK?INT
  +--> ?PR?OSDCLEARKEYCOLOR?OSDVIEW2

?PR?SCANKEYPAD?KEYPAD                            -----    -----      -----    -----      -----    -----      A2E7H    00
>> 03H
  +--> ?PR?GETKEY?KEYPAD
  +--> ?PR?GETTIMERTICK?INT

?PR?_SEARCHKEYCODEINDEX?KEYCTRL                  -----    -----      -----    -----      -----    -----      -----    --
>> ---
  +--> ?CO?KEYCTRL
  +--> ?PR?KEYCTRL

?PR?OSDCLEARKEYCOLOR?OSDVIEW2                    0020H.0  0000H.1    -----    -----      -----    -----      A2E7H    00
>> 02H
  +--> ?PR?GETOSDSTATE?OSDCTRL
  +--> ?PR?_OSDBLINKSELECTPAGEBUTTON?OSDVIEW2
  +--> ?PR?OSDUPDATEKEYINFO?OSDVIEW2

?PR?_OSDBLINKSELECTPAGEBUTTON?OSDVIEW2           0020H.1  0000H.1    -----    -----      -----    -----      A2E9H    00
>> 02H
  +--> ?PR?_OSDCHECKNONBLINKITEM?OSDVIEW2
  +--> ?PR?_SLEEP?MISC
  +--> ?PR?WAITDISVSYNC?SCALER_DISPLAY
  +--> ?PR?_OSDSHOWSELECTPAGEBUTTON_RIGHT?OS...
  +--> ?PR?_OSDSHOWSELECTPAGEBUTTON_LEFT?OSD...

?PR?_OSDCHECKNONBLINKITEM?OSDVIEW2               0020H.2  0000H.2    -----    -----      -----    -----      A2EBH    00
>> 03H
  +--> ?PR?GETOSDSTATE?OSDCTRL
  +--> ?PR?OSDVIEW2
  +--> ?PR?ISCOMPONENTINPUT?MODECONFIG
  +--> ?PR?_OSDISSUBITEMVALID?OSDVIEW2
  +--> ?PR?DETECTASPECTRATIO?MODECONFIG
  +--> ?PR?_OSDISLAYER3ITEMVALID?OSDVIEW2

?PR?_OSDSHOWSELECTPAGEBUTTON_RIGHT?OS...         0020H.2  0000H.1    -----    -----      -----    -----      A2EBH    00
>> 04H
  +--> ?PR?OSDVIEW3
  +--> ?PR?_OSDAPI_FILLLINEATTR?OSDAPI

?PR?_OSDSHOWSELECTPAGEBUTTON_LEFT?OSD...         0020H.2  0000H.1    -----    -----      -----    -----      A2EBH    00
>> 04H
  +--> ?PR?OSDVIEW3
  +--> ?PR?OSDCHECKHOOKICON?OSDVIEW2
  +--> ?PR?_OSDAPI_FILLLINEATTR?OSDAPI

?PR?OSDCHECKHOOKICON?OSDVIEW2                    0020H.3  0000H.1    -----    -----      -----    -----      -----    --
>> ---
  +--> ?PR?GETOSDSTATE?OSDCTRL
BL51 BANKED LINKER/LOCATER V6.22                                                      01/06/2017  14:57:29  PAGE 140



?PR?APPACTIONDEMANDER?APPCTRL                    -----    -----      -----    -----      -----    -----      A2E5H    00
>> 01H
  +--> ?PR?APPSYNCPUBLISHER?APPCTRL
  +--> ?PR?APPTIMERROUTINE?APPCTRL

?PR?APPSYNCPUBLISHER?APPCTRL                     -----    -----      -----    -----      -----    -----      A2E6H    00
>> 02H
  +--> ?PR?GETMODEHANDLESTATE?MODEHANDLER
  +--> ?PR?APPTASKSBEFOREDISPLAY?APPCTRL
  +--> ?PR?PANELPOWEROFFSEQUENCE?SYSAPI
  +--> ?PR?APPTASKSAFTERMUTE?APPCTRL
  +--> ?PR?APPTASKSAFTERDISPLAY?APPCTRL
  +--> ?PR?APPISOUTOFLIMIT?APPCTRL
  +--> ?PR?_SETGLOBALTIMER?MISC
  +--> ?PR?_GETGLOBALTIMER?MISC
  +--> ?PR?APPCTRL
  +--> ?PR?GETINPUTSYNCMODE?SYNCHANDLER

?PR?APPTASKSBEFOREDISPLAY?APPCTRL                -----    -----      -----    -----      -----    -----      -----    --
>> ---
  +--> ?PR?USERSETAUDIOCHANNEL?USERSETTING
  +--> ?PR?_SETBLPWMBYINPUTVSYNC?SYSAPI
  +--> ?PR?USERSETBF?USERSETTING
  +--> ?PR?USERSETDCR?USERSETTING
  +--> ?PR?USERSETDUALVIEW?USERSETTING
  +--> ?PR?_SETSRBLOCKONOFF?SR
  +--> ?PR?USERSETOD?USERSETTING

?PR?_SETSRBLOCKONOFF?SR                          -----    -----      -----    -----      -----    -----      -----    --
>> ---
  +--> ?PR?SRAPI_SRBLOCKENABLE?SRAPI
  +--> ?PR?SRAPI_SRBLOCKDISABLE?SRAPI

?PR?SRAPI_SRBLOCKENABLE?SRAPI                    -----    -----      -----    -----      -----    -----      -----    --
>> ---
  +--> ?PR?GETHCAPTURESIZE?SCALER_CAPTURE

?PR?APPTASKSAFTERMUTE?APPCTRL                    -----    -----      -----    -----      -----    -----      -----    --
>> ---
  +--> ?PR?ISZPMODE?SCALER_POWER
  +--> ?PR?POWERUPREGISTERACCESS?SCALER_POWER
  +--> ?PR?_SETSRMODE?SR
  +--> ?PR?_SETSRBLOCKONOFF?SR
  +--> ?PR?AUDIOMUTEON?BOARD
  +--> ?PR?_SETBLPWMBYINPUTVSYNC?SYSAPI
  +--> ?PR?DISABLEDBC?DBC
  +--> ?PR?_BFAPI_DISABLEWINDOW?BFAPI
  +--> ?PR?POWERDOWNREGISTERACCESS?SCALER_POWER

?PR?APPTASKSAFTERDISPLAY?APPCTRL                 -----    -----      -----    -----      -----    -----      -----    --
>> ---
  +--> ?PR?USERSETVOLUMEANDMUTE?USERSETTING
  +--> ?PR?USERSETSR?USERSETTING
  +--> ?PR?FRCISFRCENABLED?SCALER_FRC
  +--> ?PR?ODAPI_DISABLEOD?ODAPI
  +--> ?PR?_RECORDCURRENTSOURCE?SYNCHANDLER
BL51 BANKED LINKER/LOCATER V6.22                                                      01/06/2017  14:57:29  PAGE 141



?PR?APPTIMERROUTINE?APPCTRL                      -----    -----      -----    -----      -----    -----      -----    --
>> ---
  +--> ?PR?SETBRIGHTNESSPWMMAX?SYSAPI
  +--> ?PR?HDMIDELAYAUDIOINIT?SCALER_HDMI
  +--> ?PR?DPHANDLER?SCALER_DP
  +--> ?PR?MCUCHECKDDCUPDATE?MCUDDC
  +--> ?PR?NVRAMSAVEEDID?NVRAM
  +--> ?PR?TMDS_EQSET_FLOW?SCALER_TMDS
  +--> ?PR?_GETGLOBALTIMER?MISC
  +--> ?PR?_SETGLOBALTIMER?MISC
  +--> ?PR?ISPANELPOWERON?BOARD
  +--> ?PR?RECORDTIMESCALE?FE2P_API
  +--> ?PR?_NVRAMWRITESYSTEMDATA?NVRAM
  +--> ?PR?FE2P_SAVETOFLASH?FE2P_API
  +--> ?PR?ERASETIMESCALE?FE2P_API
  +--> ?PR?GETINPUTSYNCMODE?SYNCHANDLER
  +--> ?PR?GETMODEHANDLESTATE?MODEHANDLER
  +--> ?PR?_NVRAMWRITETIMINGDATA?NVRAM
  +--> ?PR?_NVRAMWRITEUSERDATA?NVRAM
  +--> ?PR?_NVRAMWRITECALIBDATA?NVRAM
  +--> ?PR?ISZPMODE?SCALER_POWER
  +--> ?PR?GETTIMERTICK?INT
  +--> ?PR?APPCLOSEPOWERONLOGO?APPCTRL
  +--> ?PR?GETOSDSTATE?OSDCTRL
  +--> ?PR?APPCTRL
  +--> ?PR?APPPERFORMBURNIN?APPCTRL
  +--> ?PR?OSDCLOSEALL?OSDCTRL
  +--> ?PR?_APPSETSYSTEMPOWERSTATE?APPCTRL
  +--> ?PR?APPCOUNTREDLED?APPCTRL
  +--> ?PR?DBCBRIGHTNESSTRACKER?DBC
  +--> ?PR?ISOSDALLOWDCR?OSDVIEW3
  +--> ?PR?_PERFORMDCR?COLORCONFIG
  +--> ?PR?_DISABLEDBCSMOOTH?DBC

?PR?SETBRIGHTNESSPWMMAX?SYSAPI                   -----    -----      -----    -----      -----    -----      A2E6H    00
>> 01H
  +--> ?PR?GETSCID?SCALER_COMMON
  +--> ?PR?_GETGLOBALTIMER?MISC
  +--> ?PR?_GETSCALERPWM?SCALER_PWM
  +--> ?PR?_SETBRIGHTNESS?SYSAPI

?PR?HDMIDELAYAUDIOINIT?SCALER_HDMI               -----    -----      -----    -----      -----    -----      -----    --
>> ---
  +--> ?PR?GETTIMERTICK?INT
  +--> ?PR?SCALER_HDMI

?PR?DPHANDLER?SCALER_DP                          -----    -----      -----    -----      -----    -----      A2E6H    00
>> 01H
  +--> ?PR?GETCURRINPUTINTERFACE?SCALER_COMMON
  +--> ?PR?ISZPMODE?SCALER_POWER
  +--> ?PR?SCALER_DP
  +--> ?PR?ISDPTRAININGDONE?SCALER_DP
  +--> ?PR?ISDPAUXDETECT?SCALER_DP
  +--> ?PR?GETTIMERTICK?INT
  +--> ?PR?CLEARDPAUXDETECT?SCALER_DP
  +--> ?PR?GETMODEHANDLESTATE?MODEHANDLER
BL51 BANKED LINKER/LOCATER V6.22                                                      01/06/2017  14:57:29  PAGE 142


  +--> ?PR?DP_AUDIOMNCHECKER?SCALER_DP
  +--> ?PR?_SETGLOBALTIMER?MISC
  +--> ?PR?_GETGLOBALTIMER?MISC

?PR?DP_AUDIOMNCHECKER?SCALER_DP                  -----    -----      -----    -----      -----    -----      A2E7H    00
>> 01H
  +--> ?PR?DP_AUDIOGETFIFOSTATUS?SCALER_DP
  +--> ?PR?DP_AUDIOMNCHECKERINIT?SCALER_DP
  +--> ?PR?SCALER_DP

?PR?DP_AUDIOGETFIFOSTATUS?SCALER_DP              0020H.0  0000H.1    -----    -----      -----    -----      -----    --
>> ---
  +--> ?PR?SCALER_DP
  +--> ?PR?_SLEEP?MISC

?PR?MCUCHECKDDCUPDATE?MCUDDC                     -----    -----      -----    -----      -----    -----      A2E6H    00
>> 0DH
  +--> ?PR?MCUDDC
  +--> ?PR?GETTIMERTICK?INT
  +--> ?PR?_EDIDSYNC?MCUDDC

?PR?MCUDDC                                       -----    -----      -----    -----      -----    -----      -----    --
>> ---
  +--> ?CO?MCUDDC

?PR?_EDIDSYNC?MCUDDC                             -----    -----      -----    -----      -----    -----      A2F3H    00
>> 09H
  +--> ?PR?MCUDDC
  +--> ?PR?_CHECKEDIDSUM?MCUDDC

?PR?_CHECKEDIDSUM?MCUDDC                         -----    -----      -----    -----      -----    -----      A2FCH    00
>> 03H
  +--> ?PR?MCUDDC

?PR?NVRAMSAVEEDID?NVRAM                          -----    -----      -----    -----      -----    -----      -----    --
>> ---
  +--> ?PR?_NVRAMWRITEDVIEDID?NVRAM
  +--> ?PR?_NVRAMWRITEHDMIEDID?NVRAM

?PR?_NVRAMWRITEDVIEDID?NVRAM                     -----    -----      -----    -----      -----    -----      -----    --
>> ---
  +--> ?PR?_NVRAMWRITE?NVRAM

?PR?_NVRAMWRITEHDMIEDID?NVRAM                    -----    -----      -----    -----      -----    -----      -----    --
>> ---
  +--> ?PR?_NVRAMWRITE?NVRAM

?PR?TMDS_EQSET_FLOW?SCALER_TMDS                  -----    -----      -----    -----      -----    -----      A2E6H    00
>> 05H
  +--> ?PR?SCALER_TMDS
  +--> ?PR?ISZPMODE?SCALER_POWER
  +--> ?PR?GETTIMERTICK?INT
  +--> ?PR?GETCURRINPUTINTERFACE?SCALER_COMMON
  +--> ?PR?_TMDS_EQSET_GETERRCNT?SCALER_TMDS
  +--> ?PR?_TMDS_EQSET_EQSETTING?SCALER_TMDS
  +--> ?PR?_TMDS_EQSET_ERRCNTINIT?SCALER_TMDS

BL51 BANKED LINKER/LOCATER V6.22                                                      01/06/2017  14:57:29  PAGE 143


?PR?_TMDS_EQSET_GETERRCNT?SCALER_TMDS            -----    -----      -----    -----      -----    -----      A2EBH    00
>> 07H
  +--> ?PR?SCALER_TMDS
  +--> ?PR?_SC_SETBYTEDPPPPHY?SCALER_TMDS

?PR?RECORDTIMESCALE?FE2P_API                     -----    -----      -----    -----      -----    -----      A2E6H    00
>> 07H
  +--> ?PR?ERASETIMESCALE?FE2P_API
  +--> ?PR?_FE2P_BYTEREAD?FE2P
  +--> ?PR?_FLASH_PROTECTOFF?FE2P_API
  +--> ?PR?FE2P_API
  +--> ?CO?FE2P_API
  +--> ?PR?FE2P_WRITEENABLE?FE2P
  +--> ?PR?_FE2P_BYTEWRITE?FE2P
  +--> ?PR?FLASH_PROTECTON?FE2P_API

?PR?APPCLOSEPOWERONLOGO?APPCTRL                  -----    -----      -----    -----      -----    -----      -----    --
>> ---
  +--> ?PR?CLOSELOGO?LOGO
  +--> ?PR?APPESCAPEPOWERONLOGO?APPCTRL

?PR?CLOSELOGO?LOGO                               -----    -----      -----    -----      -----    -----      -----    --
>> ---
  +--> ?PR?PANELPOWEROFFSEQUENCE?SYSAPI
  +--> ?PR?GMAPI_ENABLEGAMMA?GAMMAAPI
  +--> ?PR?OSDCLOSEALL?OSDCTRL
  +--> ?PR?_SETPOSTBGCOLOR?SCALER_DISPLAY
  +--> ?PR?USERSETBRIGHTNESS?USERSETTING
  +--> ?PR?USERSETCONTRAST?USERSETTING
  +--> ?PR?USERSETCOLORTEMP?USERSETTING
  +--> ?PR?OSDINITIALIZE?OSDVIEW2

?PR?APPESCAPEPOWERONLOGO?APPCTRL                 -----    -----      -----    -----      -----    -----      -----    --
>> ---
  +--> ?PR?_KEYSETLOCKEVENT?KEYCTRL
  +--> ?PR?CONTINUEMODEDISPLAY?MODEHANDLER

?PR?APPPERFORMBURNIN?APPCTRL                     -----    -----      -----    -----      -----    -----      -----    --
>> ---
  +--> ?CO?APPCTRL
  +--> ?PR?_SETPOSTBGCOLOR?SCALER_DISPLAY

?PR?_APPSETSYSTEMPOWERSTATE?APPCTRL              -----    -----      -----    -----      -----    -----      -----    --
>> ---
  +--> ?PR?GETMODEHANDLESTATE?MODEHANDLER
  +--> ?PR?APPESCAPEPOWERONLOGO?APPCTRL
  +--> ?PR?APPTOGGLEFACTORYMODE?APPCTRL
  +--> ?PR?ERASETIMESCALE?FE2P_API
  +--> ?PR?_NVRAMWRITESYSTEMDATA?NVRAM
  +--> ?PR?DCR_BENQ_RESET?COLORCONFIG
  +--> ?PR?SYSAPI_SETPOWEROFF?SYSAPI
  +--> ?PR?SYSAPI_SETPOWERON?SYSAPI
  +--> ?PR?USERSETINPUTSOURCE?USERSETTING
  +--> ?PR?APPENTERPOWERONLOGO?APPCTRL
  +--> ?PR?SYSAPI_POWERSAVING?SYSAPI
  +--> ?PR?SYSAPI_FORCEPOWERSAVING?SYSAPI

BL51 BANKED LINKER/LOCATER V6.22                                                      01/06/2017  14:57:29  PAGE 144


?PR?DCR_BENQ_RESET?COLORCONFIG                   -----    -----      -----    -----      -----    -----      -----    --
>> ---
  +--> ?PR?COLORCONFIG

?PR?SYSAPI_SETPOWERON?SYSAPI                     -----    -----      -----    -----      -----    -----      -----    --
>> ---
  +--> ?PR?MODEHANDLESOFTPOWERON?MODEHANDLER
  +--> ?PR?LEDREDOFF?BOARD
  +--> ?PR?LEDGREENON?BOARD
  +--> ?PR?SCALERPOWERUP?SCALER_POWER
  +--> ?PR?AUDIOPOWERON?BOARD

?PR?SYSAPI_POWERSAVING?SYSAPI                    -----    -----      -----    -----      -----    -----      -----    --
>> ---
  +--> ?PR?SCALERAUDIOPREMUTE?SCALER_HDMI
  +--> ?PR?MODEHANDLEPOWERSAVING?MODEHANDLER
  +--> ?PR?LEDGREENOFF?BOARD
  +--> ?PR?LEDREDON?BOARD
  +--> ?PR?AUDIOMUTEON?BOARD
  +--> ?PR?PANELPOWEROFFSEQUENCE?SYSAPI
  +--> ?PR?AUDIOPOWEROFF?BOARD
  +--> ?PR?SCALERPOWERSAVING?SCALER_POWER

?PR?MODEHANDLEPOWERSAVING?MODEHANDLER            -----    -----      -----    -----      -----    -----      -----    --
>> ---
  +--> ?PR?MODEHANDLER

?PR?LEDREDON?BOARD                               -----    -----      -----    -----      -----    -----      -----    --
>> ---
  +--> ?PR?_MCUSETIOBIT?MCUIO

?PR?SCALERPOWERSAVING?SCALER_POWER               -----    -----      -----    -----      -----    -----      -----    --
>> ---
  +--> ?PR?_DISPLAYPOSTPATTERN?SCALER_DISPLAY
  +--> ?PR?_DISABLESCALERPWM?SCALER_PWM
  +--> ?PR?SCALERAUDIOPOWEROFF?SCALER_HDMI
  +--> ?PR?DISABLEDPLL?SCALER_DISPLAY
  +--> ?PR?DVI_POWEROFF?SCALER_TMDS
  +--> ?PR?VGA_POWEROFF?SCALER_ADC
  +--> ?PR?APHYPOWEROFF?SCALER_TMDS
  +--> ?PR?DP_POWEROFF?SCALER_DP
  +--> ?PR?SET6502RESET?SCALER_DP_6502
  +--> ?PR?_TMDS_ENABLECKDT?SCALER_TMDS
  +--> ?PR?DISPLAYMUTEIMAGE?SCALER_DISPLAY
  +--> ?PR?MMUPOWEROFF?SCALER_MMU
  +--> ?PR?TURNOFFSCALERMAINPOWER?SCALER_POWER
  +--> ?PR?USERSETAUTOPOWEROFFTIMER?USERSETTING
  +--> ?PR?MCUPOWERDOWNAPLL?MCU
  +--> ?PR?_SETLOWPOWERMODE?SCALER_POWER
  +--> ?PR?DPCONFIGAUXDETECT?SCALER_DP

?PR?_TMDS_ENABLECKDT?SCALER_TMDS                 -----    -----      -----    -----      -----    -----      A2E6H    00
>> 01H
  +--> ?PR?_SC_SETBYTEDPPPPHY?SCALER_TMDS

?PR?USERSETAUTOPOWEROFFTIMER?USERSETTING         -----    -----      -----    -----      -----    -----      A2E6H    00
>> 04H
BL51 BANKED LINKER/LOCATER V6.22                                                      01/06/2017  14:57:29  PAGE 145


  +--> ?PR?GETTIMERTICK?INT

?PR?SYSAPI_FORCEPOWERSAVING?SYSAPI               -----    -----      -----    -----      -----    -----      -----    --
>> ---
  +--> ?PR?SETFORCETOSLEEP?SCALER_POWER
  +--> ?PR?SYSAPI_POWERSAVING?SYSAPI

?PR?APPCOUNTREDLED?APPCTRL                       0020H.0  0000H.1    -----    -----      -----    -----      -----    --
>> ---
  +--> ?PR?LEDREDON?BOARD
  +--> ?PR?LEDREDOFF?BOARD

?PR?DBCBRIGHTNESSTRACKER?DBC                     -----    -----      -----    -----      -----    -----      A2E6H    00
>> 01H
  +--> ?PR?DBC
  +--> ?PR?_DBCAPI_SETDBCMINMAX?DBCAPI
  +--> ?PR?DBCLIMITTRACKER?DBC
  +--> ?PR?WAITDISVSYNC?SCALER_DISPLAY

?PR?DDCCIACTIONDEMANDER?DDCCICTRL                -----    -----      -----    -----      -----    -----      A2E5H    00
>> 01H
  +--> ?PR?DDCCITIMERROUTINE?DDCCICTRL
  +--> ?PR?DDCCIUSERUPDATE?DDCCI
  +--> ?PR?DDCCITMGUPDATE?DDCCI
  +--> ?PR?DDCCISYSUPDATE?DDCCI
  +--> ?PR?DDCCICALUPDATE?DDCCI
  +--> ?PR?DDCCIPWRON?DDCCI
  +--> ?PR?DDCCIPWROFF?DDCCI
  +--> ?PR?DDCCIPWRSAVING?DDCCI

?PR?DDCCITIMERROUTINE?DDCCICTRL                  -----    -----      -----    -----      -----    -----      -----    --
>> ---
  +--> ?PR?CHECKDDC2BI?DDCCI

?PR?CHECKDDC2BI?DDCCI                            -----    -----      -----    -----      -----    -----      A2E6H    00
>> 01H
  +--> ?PR?_SETGLOBALTIMER?MISC
  +--> ?PR?_GETGLOBALTIMER?MISC
  +--> ?PR?DDCCI
  +--> ?PR?CHECK2BICMD?DDCCI
  +--> ?PR?_MCUIICRELEASESCL?MCUHWIIC
  +--> ?PR?_MCUIICPRESENDACK?MCUHWIIC

?PR?CHECK2BICMD?DDCCI                            -----    -----      -----    -----      -----    -----      -----    --
>> ---
  +--> ?PR?_SENDNULLCMD?DDCCI
  +--> ?PR?GETVCP_FEATURE?DDCCI
  +--> ?PR?SETVCP_FEATURE?DDCCI
  +--> ?PR?GETTIMING?DDCCI
  +--> ?PR?DDCCI
  +--> ?PR?GETINPUTSYNCMODE?SYNCHANDLER
  +--> ?PR?SETVCP_CAPABILITIES?DDCCI
  +--> ?PR?OSDCLOSEALL?OSDCTRL

?PR?_SENDNULLCMD?DDCCI                           -----    -----      -----    -----      -----    -----      -----    --
>> ---
  +--> ?PR?DDCCI
BL51 BANKED LINKER/LOCATER V6.22                                                      01/06/2017  14:57:29  PAGE 146


  +--> ?PR?GENTXCHECKSUM?DDCCI

?PR?GENTXCHECKSUM?DDCCI                          -----    -----      -----    -----      -----    -----      -----    --
>> ---
  +--> ?PR?DDCCI

?PR?GETVCP_FEATURE?DDCCI                         -----    -----      -----    -----      -----    -----      A2E7H    00
>> 02H
  +--> ?PR?DDCCI
  +--> ?PR?GETINPUTSYNCMODE?SYNCHANDLER
  +--> ?PR?USERGETNORMALCLOCK?USERSETTING
  +--> ?CO?DDCCI
  +--> ?PR?USERGETNORMALHPOSN?USERSETTING
  +--> ?PR?_GETINPUTPORTNAME?USERSETTING
  +--> ?PR?GETMODEHANDLESTATE?MODEHANDLER
  +--> ?PR?REPLYNA?DDCCI
  +--> ?PR?GENTXCHECKSUM?DDCCI

?PR?_GETINPUTPORTNAME?USERSETTING                -----    -----      -----    -----      -----    -----      -----    --
>> ---
  +--> ?PR?USERSETTING

?PR?REPLYNA?DDCCI                                -----    -----      -----    -----      -----    -----      -----    --
>> ---
  +--> ?PR?DDCCI

?PR?SETVCP_FEATURE?DDCCI                         -----    -----      -----    -----      -----    -----      A2E7H    00
>> 02H
  +--> ?PR?AUTOALIGN_COMMAND?DDCCI
  +--> ?PR?USERRECALLCONFIGURATION?USERSETTING
  +--> ?CO?NVRAM
  +--> ?PR?USERSETCONTRAST?USERSETTING
  +--> ?PR?USERSETBRIGHTNESS?USERSETTING
  +--> ?PR?USERRECALLHVPOSITION?USERSETTING
  +--> ?PR?USERRECALLCOLOR?USERSETTING
  +--> ?PR?USERSETCOLORTEMP?USERSETTING
  +--> ?PR?DDCCI
  +--> ?PR?_USERSETCLOCK100?USERSETTING
  +--> ?PR?USERSETRGAIN?USERSETTING
  +--> ?PR?USERSETGGAIN?USERSETTING
  +--> ?PR?USERSETBGAIN?USERSETTING
  +--> ?PR?USERPERFORMAUTOTUNE?USERSETTING
  +--> ?PR?GETINPUTSYNCMODE?SYNCHANDLER
  +--> ?PR?OSDCLOSEALL?OSDCTRL
  +--> ?PR?AUTOCOLOR?AUTOADJ
  +--> ?PR?_USERSETHPOSN100?USERSETTING
  +--> ?PR?_USERSETVPOSN100?USERSETTING
  +--> ?PR?_USERSETPHASE100?USERSETTING
  +--> ?PR?_GETINPUTPORTNAME?USERSETTING
  +--> ?PR?USERSETINPUTSOURCE?USERSETTING
  +--> ?PR?USERSETROFFSET?USERSETTING
  +--> ?PR?USERSETGOFFSET?USERSETTING
  +--> ?PR?USERSETBOFFSET?USERSETTING
  +--> ?PR?USERSETLANGUAGE?USERSETTING
  +--> ?PR?GETMODEHANDLESTATE?MODEHANDLER
  +--> ?PR?USERSETBF?USERSETTING
  +--> ?PR?USERSETVOLUME?USERSETTING
BL51 BANKED LINKER/LOCATER V6.22                                                      01/06/2017  14:57:29  PAGE 147


  +--> ?PR?USERSETAUDIOMUTE?USERSETTING
  +--> ?PR?STARTHDCPSTORING?HDCP
  +--> ?PR?_STOREHDCP?HDCP
  +--> ?PR?CHECKHDCPCHKSUM?HDCP
  +--> ?PR?GENTXCHECKSUM?DDCCI

?PR?AUTOALIGN_COMMAND?DDCCI                      -----    -----      -----    -----      -----    -----      A2E9H    00
>> 02H
  +--> ?PR?FC_ENTER_AUTOALIGN?DDCCI
  +--> ?PR?_CALIGNSENDACKCMD?DDCCI
  +--> ?PR?FC_READ_R_GAIN?DDCCI
  +--> ?PR?DDCCI
  +--> ?PR?FC_READ_G_GAIN?DDCCI
  +--> ?PR?FC_READ_B_GAIN?DDCCI
  +--> ?PR?_GETRGBCOLOR?DDCCI
  +--> ?PR?FC_READ_CONTRAST?DDCCI
  +--> ?PR?FC_READ_BRIGHTNESS?DDCCI
  +--> ?PR?GENTXCHECKSUM?DDCCI
  +--> ?PR?CDDCCITXCOMMANDREADY?DDCCI
  +--> ?PR?FC_ADJUST_R_GAIN?DDCCI
  +--> ?PR?FC_ADJUST_G_GAIN?DDCCI
  +--> ?PR?FC_ADJUST_B_GAIN?DDCCI
  +--> ?PR?_SETRGBCOLOR?DDCCI
  +--> ?PR?FC_ADJUST_CONTRAST?DDCCI
  +--> ?PR?USERSETCONTRAST?USERSETTING
  +--> ?PR?FC_ADJUST_BRIGHTNESS?DDCCI
  +--> ?PR?USERSETBRIGHTNESS?USERSETTING
  +--> ?PR?FC_ADJUST_LANGUAGE?DDCCI
  +--> ?PR?FC_AUTO_COLOR?DDCCI
  +--> ?PR?AUTOCOLOR?AUTOADJ
  +--> ?PR?GETADCRGAIN?SCALER_ADC
  +--> ?PR?GETADCGGAIN?SCALER_ADC
  +--> ?PR?GETADCBGAIN?SCALER_ADC
  +--> ?PR?GETADCROFFSET?SCALER_ADC
  +--> ?PR?GETADCGOFFSET?SCALER_ADC
  +--> ?PR?GETADCBOFFSET?SCALER_ADC
  +--> ?PR?FC_CHANGE_TO_9300?DDCCI
  +--> ?PR?FC_CHANGE_TO_6500?DDCCI
  +--> ?PR?FC_CHANGE_TO_5800?DDCCI
  +--> ?PR?FC_CHANGE_TO_7500?DDCCI
  +--> ?PR?USERSETCOLORTEMP?USERSETTING
  +--> ?PR?FC_INIT_EEPROM?DDCCI
  +--> ?PR?FC_SAVE_9300?DDCCI
  +--> ?PR?FC_SAVE_6500?DDCCI
  +--> ?PR?FC_SAVE_5800?DDCCI
  +--> ?PR?FC_SAVE_7500?DDCCI
  +--> ?PR?FC_BRICONT_DEFAULT?DDCCI
  +--> ?PR?FC_ENTER_BURNIN?DDCCI
  +--> ?PR?FC_EXIT_BURNIN?DDCCI
  +--> ?PR?FC_ENTER_FACTORY?DDCCI
  +--> ?PR?FC_EXIT_FACTORY?DDCCI
  +--> ?PR?FC_EXIT_AUTOALIGN?DDCCI
  +--> ?PR?FC_DVIFUNC_ON?DDCCI
  +--> ?PR?FC_DVIFUNC_OFF?DDCCI
  +--> ?PR?FC_AUDIOFUNC_ON?DDCCI
  +--> ?PR?FC_AUDIOFUNC_OFF?DDCCI
  +--> ?PR?FC_DCRFUNC_ON?DDCCI
BL51 BANKED LINKER/LOCATER V6.22                                                      01/06/2017  14:57:29  PAGE 148


  +--> ?PR?FC_DCRFUNC_OFF?DDCCI
  +--> ?PR?FC_SOURCE_VGA?DDCCI
  +--> ?PR?FC_SOURCE_DVI?DDCCI

?PR?_CALIGNSENDACKCMD?DDCCI                      -----    -----      -----    -----      -----    -----      -----    --
>> ---
  +--> ?PR?DDCCI
  +--> ?PR?GENTXCHECKSUM?DDCCI
  +--> ?PR?CDDCCITXCOMMANDREADY?DDCCI

?PR?_GETRGBCOLOR?DDCCI                           -----    -----      -----    -----      -----    -----      A2EBH    00
>> 01H
  +--> ?PR?DDCCI

?PR?_SETRGBCOLOR?DDCCI                           -----    -----      -----    -----      -----    -----      A2EBH    00
>> 01H
  +--> ?PR?DDCCI

?PR?AUTOCOLOR?AUTOADJ                            -----    -----      -----    -----      -----    -----      A2EBH    00
>> 08H
  +--> ?PR?ISAUTOCOLORVALID?AUTOADJ
  +--> ?PR?GETADCROFFSET?SCALER_ADC
  +--> ?PR?GETADCGOFFSET?SCALER_ADC
  +--> ?PR?GETADCBOFFSET?SCALER_ADC
  +--> ?PR?GETADCRGAIN?SCALER_ADC
  +--> ?PR?GETADCGGAIN?SCALER_ADC
  +--> ?PR?GETADCBGAIN?SCALER_ADC
  +--> ?PR?AUTOOFFSET?AUTOADJ
  +--> ?PR?AUTOGAIN?AUTOADJ
  +--> ?PR?_SETADCROFFSET?SCALER_ADC
  +--> ?PR?_SETADCGOFFSET?SCALER_ADC
  +--> ?PR?_SETADCBOFFSET?SCALER_ADC
  +--> ?PR?_SETADCRGAIN?SCALER_ADC
  +--> ?PR?_SETADCGGAIN?SCALER_ADC
  +--> ?PR?_SETADCBGAIN?SCALER_ADC

?PR?ISAUTOCOLORVALID?AUTOADJ                     -----    -----      -----    -----      -----    -----      -----    --
>> ---
  +--> ?PR?GETCURRINPUTINTERFACE?SCALER_COMMON

?PR?AUTOOFFSET?AUTOADJ                           -----    -----      -----    -----      -----    -----      -----    --
>> ---
  +--> ?PR?AUTOGAINCOARSE?AUTOADJ
  +--> ?PR?HWAUTOOFFSET?AUTOADJ

?PR?AUTOGAINCOARSE?AUTOADJ                       -----    -----      -----    -----      -----    -----      A2F3H    00
>> 0AH
  +--> ?PR?GETADCRGAIN?SCALER_ADC
  +--> ?PR?GETADCGGAIN?SCALER_ADC
  +--> ?PR?GETADCBGAIN?SCALER_ADC
  +--> ?PR?GETTIMERTICK?INT
  +--> ?PR?AUTOADJ
  +--> ?PR?CHECKMODECHANGEFLAG?INT
  +--> ?PR?_SETADCRGAIN?SCALER_ADC
  +--> ?PR?_SETADCGGAIN?SCALER_ADC
  +--> ?PR?_SETADCBGAIN?SCALER_ADC

BL51 BANKED LINKER/LOCATER V6.22                                                      01/06/2017  14:57:29  PAGE 149


?PR?AUTOGAIN?AUTOADJ                             0020H.0  0000H.1    -----    -----      -----    -----      A2F3H    00
>> 1AH
  +--> ?PR?GETADCRGAIN?SCALER_ADC
  +--> ?PR?GETADCGGAIN?SCALER_ADC
  +--> ?PR?GETADCBGAIN?SCALER_ADC
  +--> ?PR?AUTOADJ
  +--> ?PR?_READSHORTSCALER?SCALERACCESS
  +--> ?PR?CHECKMODECHANGEFLAG?INT
  +--> ?PR?GETTIMERTICK?INT
  +--> ?PR?_SETADCRGAIN?SCALER_ADC
  +--> ?PR?_SETADCGGAIN?SCALER_ADC
  +--> ?PR?_SETADCBGAIN?SCALER_ADC

?PR?USERRECALLCONFIGURATION?USERSETTING          0020H.0  0000H.3    -----    -----      -----    -----      A2E9H    00
>> 01H
  +--> ?CO?NVRAM
  +--> ?PR?USERSETBRIGHTNESS?USERSETTING
  +--> ?PR?USERSETCONTRAST?USERSETTING
  +--> ?PR?USERSETGAMMA?USERSETTING
  +--> ?PR?USERSETCOLORTEMP?USERSETTING
  +--> ?PR?USERSETOSDH?USERSETTING
  +--> ?PR?USERSETOSDV?USERSETTING
  +--> ?PR?USERSETTRANSPARENT?USERSETTING
  +--> ?PR?USERSETTIMEOUT?USERSETTING
  +--> ?PR?USERSETOSDROTATION?USERSETTING
  +--> ?PR?USERSETVOLUMEANDMUTE?USERSETTING
  +--> ?PR?USERSETDCR?USERSETTING
  +--> ?PR?USERSETDDCCI?USERSETTING
  +--> ?PR?USERSETOD?USERSETTING
  +--> ?PR?SETDEMO?COLORCONFIG
  +--> ?PR?USERSETBF?USERSETTING
  +--> ?PR?USERSETSR?USERSETTING
  +--> ?PR?USERSETAUDIOCHANNEL?USERSETTING
  +--> ?PR?NVRAMCLEARTIMING?NVRAM
  +--> ?PR?SETCOLORSPACE?SCALER_CSC
  +--> ?PR?USERSETTING
  +--> ?PR?USERSETASPECTRATIO?USERSETTING
  +--> ?PR?USERPERFORMAUTOTUNE?USERSETTING
  +--> ?PR?ERASETIMESCALE?FE2P_API
  +--> ?PR?SETDPSPEED?SCALER_DP_COMMON
  +--> ?PR?_SYSAPI_PERFORMHPDOFF?SYSAPI
  +--> ?PR?_NVRAMWRITESYSTEMDATA?NVRAM

?PR?USERSETDDCCI?USERSETTING                     -----    -----      -----    -----      -----    -----      -----    --
>> ---
  +--> ?PR?_MCUENABLEIIC?MCUHWIIC
  +--> ?PR?_MCUDISABLEIIC?MCUHWIIC

?PR?USERRECALLHVPOSITION?USERSETTING             -----    -----      -----    -----      -----    -----      -----    --
>> ---
  +--> ?PR?_SETADCPLL2?AUTOADJ
  +--> ?PR?_SETHP?SCALER_CAPTURE
  +--> ?PR?_SETVP?SCALER_CAPTURE
  +--> ?PR?_SETADCPHASE?SCALER_ADC

?PR?USERRECALLCOLOR?USERSETTING                  -----    -----      -----    -----      -----    -----      -----    --
>> ---
BL51 BANKED LINKER/LOCATER V6.22                                                      01/06/2017  14:57:29  PAGE 150


  +--> ?CO?NVRAM
  +--> ?PR?USERSETROFFSET?USERSETTING
  +--> ?PR?USERSETGOFFSET?USERSETTING
  +--> ?PR?USERSETBOFFSET?USERSETTING
  +--> ?PR?USERSETTING
  +--> ?PR?USERSETBF?USERSETTING

?PR?USERSETROFFSET?USERSETTING                   -----    -----      -----    -----      -----    -----      -----    --
>> ---
  +--> ?PR?USERSETTING
  +--> ?PR?_MTXAPI_SETROFFSET?MATRIX

?PR?_MTXAPI_SETROFFSET?MATRIX                    -----    -----      -----    -----      -----    -----      -----    --
>> ---
  +--> ?PR?_MTXAPI_SETRGBOFFSET?MATRIX

?PR?_MTXAPI_SETRGBOFFSET?MATRIX                  -----    -----      -----    -----      -----    -----      -----    --
>> ---
  +--> ?PR?_MTXAPI_SETRGBOFFSETVALUE?MATRIX

?PR?USERSETGOFFSET?USERSETTING                   -----    -----      -----    -----      -----    -----      -----    --
>> ---
  +--> ?PR?USERSETTING
  +--> ?PR?_MTXAPI_SETGOFFSET?MATRIX

?PR?_MTXAPI_SETGOFFSET?MATRIX                    -----    -----      -----    -----      -----    -----      -----    --
>> ---
  +--> ?PR?MATRIX
  +--> ?PR?_MTXAPI_SETRGBOFFSET?MATRIX

?PR?USERSETBOFFSET?USERSETTING                   -----    -----      -----    -----      -----    -----      -----    --
>> ---
  +--> ?PR?USERSETTING
  +--> ?PR?_MTXAPI_SETBOFFSET?MATRIX

?PR?_MTXAPI_SETBOFFSET?MATRIX                    -----    -----      -----    -----      -----    -----      -----    --
>> ---
  +--> ?PR?MATRIX
  +--> ?PR?_MTXAPI_SETRGBOFFSET?MATRIX

?PR?_USERSETCLOCK100?USERSETTING                 -----    -----      -----    -----      -----    -----      -----    --
>> ---
  +--> ?PR?USERSETTING
  +--> ?PR?USERSETCLOCK?USERSETTING

?PR?USERSETCLOCK?USERSETTING                     -----    -----      -----    -----      -----    -----      -----    --
>> ---
  +--> ?PR?_SETADCPLL2?AUTOADJ

?PR?USERSETRGAIN?USERSETTING                     -----    -----      -----    -----      -----    -----      -----    --
>> ---
  +--> ?PR?USERSETTING
  +--> ?PR?_MTXAPI_SETRGAIN?MATRIX

?PR?_MTXAPI_SETRGAIN?MATRIX                      -----    -----      -----    -----      -----    -----      -----    --
>> ---
  +--> ?PR?MATRIX
BL51 BANKED LINKER/LOCATER V6.22                                                      01/06/2017  14:57:29  PAGE 151


  +--> ?PR?_MTXAPI_SETCONTRAST?MATRIX

?PR?USERSETGGAIN?USERSETTING                     -----    -----      -----    -----      -----    -----      -----    --
>> ---
  +--> ?PR?USERSETTING
  +--> ?PR?_MTXAPI_SETGGAIN?MATRIX

?PR?_MTXAPI_SETGGAIN?MATRIX                      -----    -----      -----    -----      -----    -----      -----    --
>> ---
  +--> ?PR?MATRIX
  +--> ?PR?_MTXAPI_SETCONTRAST?MATRIX

?PR?USERSETBGAIN?USERSETTING                     -----    -----      -----    -----      -----    -----      -----    --
>> ---
  +--> ?PR?USERSETTING
  +--> ?PR?_MTXAPI_SETBGAIN?MATRIX

?PR?_MTXAPI_SETBGAIN?MATRIX                      -----    -----      -----    -----      -----    -----      -----    --
>> ---
  +--> ?PR?_MTXAPI_SETCONTRAST?MATRIX

?PR?_USERSETHPOSN100?USERSETTING                 -----    -----      -----    -----      -----    -----      -----    --
>> ---
  +--> ?PR?USERSETTING
  +--> ?PR?USERSETHPOSITION?USERSETTING

?PR?USERSETHPOSITION?USERSETTING                 -----    -----      -----    -----      -----    -----      -----    --
>> ---
  +--> ?PR?_SETHP?SCALER_CAPTURE

?PR?_USERSETVPOSN100?USERSETTING                 -----    -----      -----    -----      -----    -----      -----    --
>> ---
  +--> ?PR?USERSETTING
  +--> ?PR?USERSETVPOSITION?USERSETTING

?PR?USERSETVPOSITION?USERSETTING                 -----    -----      -----    -----      -----    -----      -----    --
>> ---
  +--> ?PR?_SETVP?SCALER_CAPTURE

?PR?_USERSETPHASE100?USERSETTING                 -----    -----      -----    -----      -----    -----      -----    --
>> ---
  +--> ?PR?USERSETTING
  +--> ?PR?USERSETPHASE?USERSETTING

?PR?USERSETPHASE?USERSETTING                     -----    -----      -----    -----      -----    -----      -----    --
>> ---
  +--> ?PR?_SETADCPHASE?SCALER_ADC

?PR?STARTHDCPSTORING?HDCP                        -----    -----      -----    -----      -----    -----      -----    --
>> ---
  +--> ?PR?HDCP

?PR?_STOREHDCP?HDCP                              -----    -----      -----    -----      -----    -----      A2E9H    00
>> 06H
  +--> ?PR?HDCP

?PR?CHECKHDCPCHKSUM?HDCP                         -----    -----      -----    -----      -----    -----      -----    --
BL51 BANKED LINKER/LOCATER V6.22                                                      01/06/2017  14:57:29  PAGE 152


>> ---
  +--> ?PR?HDCP
  +--> ?PR?_NVRAMWRITEHDCPDATA?NVRAM
  +--> ?PR?INITHDCP?HDCP

?PR?_NVRAMWRITEHDCPDATA?NVRAM                    -----    -----      -----    -----      -----    -----      -----    --
>> ---
  +--> ?PR?_NVRAMWRITE?NVRAM

?PR?INITHDCP?HDCP                                -----    -----      -----    -----      -----    -----      -----    --
>> ---
  +--> ?PR?HDCP
  +--> ?PR?_NVRAMREADHDCPDATA?NVRAM
  +--> ?PR?_WRITEHDCPKEY?HDCPAPI
  +--> ?PR?ENABLEHDCP?HDCPAPI

?PR?_NVRAMREADHDCPDATA?NVRAM                     -----    -----      -----    -----      -----    -----      -----    --
>> ---
  +--> ?PR?_NVRAMREAD?NVRAM

?PR?_WRITEHDCPKEY?HDCPAPI                        -----    -----      -----    -----      -----    -----      A2E9H    00
>> 07H
  +--> ?PR?HDCPAPI
  +--> ?CO?HDCPAPI

?PR?HDCPAPI                                      -----    -----      -----    -----      -----    -----      -----    --
>> ---
  +--> ?CO?HDCPAPI

?PR?GETTIMING?DDCCI                              -----    -----      -----    -----      -----    -----      A2E7H    00
>> 01H
  +--> ?PR?DDCCI
  +--> ?PR?ISOUTOFRANGE?MODECONFIG
  +--> ?PR?GENTXCHECKSUM?DDCCI

?PR?SETVCP_CAPABILITIES?DDCCI                    -----    -----      -----    -----      -----    -----      A2E7H    00
>> 05H
  +--> ?PR?GETINPUTSYNCMODE?SYNCHANDLER
  +--> ?PR?DDCCI
  +--> ?CO?DDCCI
  +--> ?PR?GENTXCHECKSUM?DDCCI

?PR?DDCCIUSERUPDATE?DDCCI                        0020H.0  0000H.1    -----    -----      -----    -----      -----    --
>> ---

?PR?DDCCITMGUPDATE?DDCCI                         0020H.0  0000H.1    -----    -----      -----    -----      -----    --
>> ---

?PR?DDCCISYSUPDATE?DDCCI                         0020H.0  0000H.1    -----    -----      -----    -----      -----    --
>> ---

?PR?DDCCICALUPDATE?DDCCI                         0020H.0  0000H.1    -----    -----      -----    -----      -----    --
>> ---

?PR?DDCCIPWRON?DDCCI                             0020H.0  0000H.1    -----    -----      -----    -----      -----    --
>> ---

BL51 BANKED LINKER/LOCATER V6.22                                                      01/06/2017  14:57:29  PAGE 153


?PR?DDCCIPWROFF?DDCCI                            0020H.0  0000H.1    -----    -----      -----    -----      -----    --
>> ---

?PR?DDCCIPWRSAVING?DDCCI                         0020H.0  0000H.1    -----    -----      -----    -----      -----    --
>> ---

?PR?_EVENTDISPATCHER?EVENTHANDLE                 -----    -----      -----    -----      -----    -----      A2E5H    00
>> 01H
  +--> ?PR?_OSDACTIONDISPATCHER?OSDCTRL
  +--> ?PR?_KEYACTIONDISPATCHER?KEYCTRL
  +--> ?PR?_APPACTIONDISPATCHER?APPCTRL
  +--> ?PR?_DDCCIACTIONDISPATCHER?DDCCICTRL

?PR?_OSDACTIONDISPATCHER?OSDCTRL                 -----    -----      -----    -----      -----    -----      A2E6H    00
>> 01H
  +--> ?PR?GETMODEHANDLESTATE?MODEHANDLER
  +--> ?CO?OSDCTRL
  +--> ?PR?_OSDBLINKSELECTPAGEBUTTON?OSDVIEW2
  +--> ?PR?GETTIMERTICK?INT
  +--> ?PR?USERSETTIMEOUT?USERSETTING
  +--> ?PR?OSDCONFIGKEYBEHAVIOR?OSDCTRL

?PR?_APPACTIONDISPATCHER?APPCTRL                 -----    -----      -----    -----      -----    -----      -----    --
>> ---
  +--> ?CO?APPCTRL
  +--> ?PR?OSDSHOWOSDLOCK?OSDVIEW2
  +--> ?PR?_KEYSETHOLDEVENT?KEYCTRL
  +--> ?PR?_SETOSDSTATE?OSDCTRL
  +--> ?PR?OSDENTEROSDUNLOCK?OSDCTRL
  +--> ?PR?APPTOGGLEDEMOMODE?APPCTRL
  +--> ?PR?_APPSETSYSTEMPOWERSTATE?APPCTRL
  +--> ?PR?_GETINPUTPORTINDEX?USERSETTING
  +--> ?PR?_GETINPUTPORTNAME?USERSETTING
  +--> ?PR?USERSETINPUTSOURCE?USERSETTING
  +--> ?PR?_SETGLOBALTIMER?MISC
  +--> ?PR?SIMILARTIMINGSWITCH?MODESEARCH

?PR?OSDSHOWOSDLOCK?OSDVIEW2                      -----    -----      -----    -----      -----    -----      -----    --
>> ---
  +--> ?PR?_OSDSHOWDIALOG?OSDVIEW3

?PR?OSDENTEROSDUNLOCK?OSDCTRL                    -----    -----      -----    -----      -----    -----      -----    --
>> ---
  +--> ?PR?_OSDSHOWDIALOG?OSDVIEW3
  +--> ?PR?GETTIMERTICK?INT

?PR?SIMILARTIMINGSWITCH?MODESEARCH               -----    -----      -----    -----      -----    -----      -----    --
>> ---
  +--> ?PR?GETINPUTSYNCMODE?SYNCHANDLER
  +--> ?PR?GETNEXTSIMILARTIMING?MODESEARCH
  +--> ?PR?_COPYMODETABLE?MODESEARCH
  +--> ?PR?MODESEARCH
  +--> ?PR?_NVRAMWRITETIMINGDATA?NVRAM
  +--> ?PR?GETCURRINPUTINTERFACE?SCALER_COMMON
  +--> ?PR?_SETINPUTINTERFACE?SCALER_COMMON

?PR?GETNEXTSIMILARTIMING?MODESEARCH              0020H.0  0000H.1    -----    -----      -----    -----      -----    --
BL51 BANKED LINKER/LOCATER V6.22                                                      01/06/2017  14:57:29  PAGE 154


>> ---
  +--> ?PR?MODESEARCH

?PR?_DDCCIACTIONDISPATCHER?DDCCICTRL             -----    -----      -----    -----      -----    -----      -----    --
>> ---
  +--> ?CO?DDCCICTRL
  +--> ?PR?DDCCIUPDATENOTICE?DDCCI

?PR?SYSAPI_CHECKSYSPOWER?SYSAPI                  -----    -----      -----    -----      -----    -----      -----    --
>> ---
  +--> ?PR?MCUCHECK5V?MCU

?C_INITSEG                                       -----    -----      -----    -----      -----    -----      -----    --
>> ---
  +--> ?CO?DCR



INTERBANK CALL TABLE OF MODULE:  .\Bin\NT68875_ (MAIN)

ADDRESS    FUNCTION NAME
------------------------
 01E3H     MCUINITIALIZE
 01E9H     CONFIGHPD
 01EFH     _SYSAPI_PERFORMHPDOFF
 01F5H     RAMINITIALIZE
 01FBH     SCALERINITIALIZE
 0201H     NVRAMLOADDATA
 0207H     CUSTOM_SYSTEM_INIT
 020DH     APPINITSYSTEM
 0213H     MODEHANDLER
 0219H     EVENTHANDLER
 021FH     SYSAPI_CHECKSYSPOWER
 0225H     _SET6502ACTIVE
 022BH     LOADDEFAULTTRIM
 0231H     OSDAPI_GETALIGNTYPE
 0237H     ISOSDARABALIGNRIGHT
 023DH     _OSDAPI_SETALIGNTYPE
 0243H     _OSDAPI_SETINDENTWIDTH
 0249H     _FINDTABLE_EUROPE
 024FH     _FINDTABLE_TC
 0255H     _FINDTABLE_SC
 025BH     _FINDTABLE_JAPAN
 0261H     OSDAPI_SHOWINDENTS
 0267H     OSDAPI_GETOSDWIDTH
 026DH     GETOSDSTATE
 0273H     INITFONT_EUROPE
 0279H     OSDAPI_GETOSDFONTHEIGHT
 027FH     INITFONT_TC_TABLE1
 0285H     INITFONT_TC_TABLE2
 028BH     INITFONT_SC_TABLE1
 0291H     INITFONT_SC_TABLE2
 0297H     INITFONT_JAPAN_TABLE1
 029DH     INITFONT_JAPAN_TABLE2
 02A3H     INITFONT_FRANAIS
 02A9H     INITFONT_DEUTSCH
 02AFH     INITFONT_ITALIANO
BL51 BANKED LINKER/LOCATER V6.22                                                      01/06/2017  14:57:29  PAGE 155


 02B5H     INITFONT_ESPANOL
 02BBH     INITFONT_POLSKI
 02C1H     INITFONT_CESKY
 02C7H     INITFONT_MAGYAR
 02CDH     INITFONT_SICG
 02D3H     INITFONT_ROMANA
 02D9H     INITFONT_PYCCKNN
 02DFH     INITFONT_SVENSKA
 02E5H     INITFONT_PORTUGUS
 02EBH     INITFONT_ARAB
 02F1H     _INITFONTTABLEBYLANG
 02F7H     OSDAPI_LOADINDENTFONT
 02FDH     WAITDISVSYNC
 0303H     _SC_SETBYTEDPPPPHY
 0309H     GMAPI_DISABLEGAMMA
 030FH     _SLEEP
 0315H     _OSDUPDATEAUTOTUNE
 031BH     _SETHP
 0321H     _SETVP
 0327H     GETANGINPUTHTOTAL
 032DH     GETINPUTHSTART
 0333H     GETINPUTVSTART
 0339H     _SETADCPHASE
 033FH     GETADCROFFSET
 0345H     GETADCGOFFSET
 034BH     GETADCBOFFSET
 0351H     _SETADCROFFSET
 0357H     _SETADCGOFFSET
 035DH     _SETADCBOFFSET
 0363H     GETADCRGAIN
 0369H     GETADCGGAIN
 036FH     GETADCBGAIN
 0375H     _SETADCRGAIN
 037BH     _SETADCGGAIN
 0381H     _SETADCBGAIN
 0387H     _SETEVENFIELDOFFSET
 038DH     _SETSRHTOTAL
 0393H     GETVCAPTURESIZE
 0399H     GETHCAPTURESIZE
 039FH     GETDPINPUTHDEIMMEDIATE
 03A5H     GETDPINPUTVDEIMMEDIATE
 03ABH     _FORCE2BACKGROUND
 03B1H     NORMALDISPLAY
 03B7H     DISPLAYNORMALIMAGE
 03BDH     DP_AUDIOMNCHECKERINIT
 03C3H     DPCONFIGCRC
 03C9H     _SETADCPLL
 03CFH     _SETUPDISPLAYTIMING
 03D5H     USERSETSR
 03DBH     DPCONFIGFIFO
 03E1H     USERGETINPUTSOURCE
 03E7H     _SETCAPTURESIZE
 03EDH     ENABLEOVERSAMPLE
 03F3H     ISOVERSAMPLE
 03F9H     DISABLEOVERSAMPLE
 03FFH     _SETADCBANDWIDTH
 0405H     _ENABLEADCGNDSAMPLING
BL51 BANKED LINKER/LOCATER V6.22                                                      01/06/2017  14:57:29  PAGE 156


 040BH     _NRSETNRTYPE
 0411H     _NRSETEDGETHR
 0417H     _NRSETNRTHR
 041DH     _NRSETJCLVL
 0423H     _NRSETNR2THR
 0429H     _NRSETGCCFG
 042FH     _DITHSETDITHERMODE
 0435H     _GETSCALERPWM
 043BH     _SETSCALERPWM
 0441H     _CONFIGSCALERPWM
 0447H     _SETPOSTBGCOLOR
 044DH     DPCONFIGHWHPD
 0453H     ADCINIT
 0459H     DISPLAYINIT
 045FH     _DPINIT
 0465H     CAPINIT
 046BH     DITHINIT
 0471H     NRINIT
 0477H     _ENABLESCALERPWM
 047DH     _SET6502HOLD
 0483H     _DISPLAYPOSTPATTERN
 0489H     _DISABLESCALERPWM
 048FH     DISABLEDPLL
 0495H     VGA_POWEROFF
 049BH     DP_POWEROFF
 04A1H     SET6502RESET
 04A7H     DISPLAYMUTEIMAGE
 04ADH     USERSETAUTOPOWEROFFTIMER
 04B3H     DPCONFIGAUXDETECT
 04B9H     ENABLEDPLL
 04BFH     VGA_POWERON
 04C5H     SCHMITTTRIGGERPOWERON
 04CBH     SCHMITTTRIGGERPOWEROFF
 04D1H     DP_GETCLOCK
 04D7H     ISDPAUXDETECT
 04DDH     CLEARDPAUXDETECT
 04E3H     _GETINPUTPORTINDEX
 04E9H     OSDAPI_WRITEXYREPEATCHAR
 04EFH     OSDSHOWTITLESTRING
 04F5H     _OSDAPI_SETINDENTINDEX
 04FBH     _OSDUPDATEARROWICON
 0501H     OSDAPI_WRITEXYCHAR
 0507H     _OSDAPI_FILLLINEATTR
 050DH     _OSDSHOWBIGWIN
 0513H     _OSDSHOWSMALLWIN
 0519H     _OSDSHOWTRIANICON
 051FH     _OSDAPI_OSDWINOFF
 0525H     _ISOSDMAINICONAVAILABLE
 052BH     FNGETCUSTOMERKEYITEM
 0531H     _OSDSHOWCUSKEYHOOK
 0537H     _OSDISSUBITEMVALID
 053DH     _OSDSELECTLAYER1ICON
 0543H     _OSDSHOWUPDOWNARROWICON
 0549H     _OSDSHOWSTRINGSEPARATER
 054FH     _OSDISLAYER3ITEMVALID
 0555H     _OSDSHOWHOOKICON
 055BH     _OSDSHOWLAYER3ITEM
BL51 BANKED LINKER/LOCATER V6.22                                                      01/06/2017  14:57:29  PAGE 157


 0561H     _OSDCLEARITEMHOOKICON
 0567H     _OSDSHOWLAYER3PAGEHOOKICON
 056DH     _GETCUSTOMEKEYSTATE
 0573H     _OSDSHOWCURRENTRESOLUTION
 0579H     _OSDSHOWOPTIMUMRESOLUTION
 057FH     _OSDSHOWRGAIN
 0585H     _OSDSHOWGGAIN
 058BH     _OSDSHOWBGAIN
 0591H     _OSDSHOWLOWBLUELIGHTSTRINGS
 0597H     OSDFOCUSANIMATION
 059DH     _OSDCLEARITEMSTRING
 05A3H     _OSDISCUSTOMKEYITEMVALID
 05A9H     SCANKEYPAD
 05AFH     OSDCLEARKEYCOLOR
 05B5H     _SETREFERENCEDBCDUTY
 05BBH     GETSCID
 05C1H     _SMOOTHSCALERPWM
 05C7H     _SETBLPWMBYINPUTVSYNC
 05CDH     _SETVSYNCRESETPWM
 05D3H     USERSETOSDH
 05D9H     USERSETOSDV
 05DFH     USERSETTRANSPARENT
 05E5H     USERSETTIMEOUT
 05EBH     USERSETOSDROTATION
 05F1H     USERSETBRIGHTNESS
 05F7H     USERSETCONTRAST
 05FDH     USERSETCOLORTEMP
 0603H     CHECKFACTORYMODE
 0609H     GETEFUSE_SCID
 060FH     INITHDCPTRIMKEY
 0615H     LEDGREENON
 061BH     OSDINITIALIZE
 0621H     AUDIOPOWERON
 0627H     LOADPREGAMMA
 062DH     LOADREVGAMMA
 0633H     LOADGAMMA
 0639H     INITCOLOR
 063FH     INITDBC
 0645H     INITSR
 064BH     USERSETADCGAINOFFSET
 0651H     USERSETOD
 0657H     USERSETINPUTSOURCE
 065DH     USERSETAUDIOCHANNEL
 0663H     _SETSYNCSOURCE
 0669H     _KEYSETREPEATEVENT
 066FH     _KEYSETHOLDEVENT
 0675H     _KEYSETMFUNCEVENT
 067BH     _KEYSETHOLDTIME
 0681H     _KEYSETREPEATTIME
 0687H     _KEYSETLONGPRESSTIME
 068DH     _MCUSETDDCWP
 0693H     EDIDWPOFF
 0699H     EDIDWPON
 069FH     SYSAPI_SETPOWEROFF
 06A5H     OSDSHOWOSDLOCK
 06ABH     _SETOSDSTATE
 06B1H     OSDENTEROSDUNLOCK
BL51 BANKED LINKER/LOCATER V6.22                                                      01/06/2017  14:57:29  PAGE 158


 06B7H     _GETINPUTPORTNAME
 06BDH     _SETGLOBALTIMER
 06C3H     SIMILARTIMINGSWITCH
 06C9H     SETBRIGHTNESSPWMMAX
 06CFH     HDMIDELAYAUDIOINIT
 06D5H     DPHANDLER
 06DBH     MCUCHECKDDCUPDATE
 06E1H     NVRAMSAVEEDID
 06E7H     TMDS_EQSET_FLOW
 06EDH     _GETGLOBALTIMER
 06F3H     ISPANELPOWERON
 06F9H     RECORDTIMESCALE
 06FFH     _NVRAMWRITESYSTEMDATA
 0705H     FE2P_SAVETOFLASH
 070BH     ERASETIMESCALE
 0711H     GETINPUTSYNCMODE
 0717H     GETMODEHANDLESTATE
 071DH     _NVRAMWRITETIMINGDATA
 0723H     _NVRAMWRITEUSERDATA
 0729H     _NVRAMWRITECALIBDATA
 072FH     ISZPMODE
 0735H     OSDCLOSEALL
 073BH     DBCBRIGHTNESSTRACKER
 0741H     ISOSDALLOWDCR
 0747H     _PERFORMDCR
 074DH     _DISABLEDBCSMOOTH
 0753H     DCR_BENQ_RESET
 0759H     SYSAPI_SETPOWERON
 075FH     SYSAPI_POWERSAVING
 0765H     SYSAPI_FORCEPOWERSAVING
 076BH     USERSETBF
 0771H     USERSETDCR
 0777H     USERSETDUALVIEW
 077DH     _SETSRBLOCKONOFF
 0783H     USERSETVOLUMEANDMUTE
 0789H     FRCISFRCENABLED
 078FH     ODAPI_DISABLEOD
 0795H     _RECORDCURRENTSOURCE
 079BH     POWERUPREGISTERACCESS
 07A1H     _SETSRMODE
 07A7H     AUDIOMUTEON
 07ADH     DISABLEDBC
 07B3H     _BFAPI_DISABLEWINDOW
 07B9H     POWERDOWNREGISTERACCESS
 07BFH     PANELPOWEROFFSEQUENCE
 07C5H     SHOWLOGO
 07CBH     _KEYSETLOCKEVENT
 07D1H     HOLDMODEDISPLAY
 07D7H     CONTINUEMODEDISPLAY
 07DDH     CLOSELOGO
 07E3H     LEDREDON
 07E9H     LEDREDOFF
 07EFH     FORDEMOHDCPCOMPILERCODEPASS
 07F5H     FORODCOMPILERCODEPASS
 07FBH     FORLDCOMPILERCODEPASS
 0801H     FORUSBTYPECCOMPILERCODEPASS2
 0807H     FORUSBTYPECCOMPILERCODEPASS1
BL51 BANKED LINKER/LOCATER V6.22                                                      01/06/2017  14:57:29  PAGE 159


 080DH     FORMHLCOMPILERCODEPASS
 0813H     _ODAPI_SETSEPARATEODTESTPATTERNENABLE
 0819H     OSDACTIONDEMANDER
 081FH     KEYACTIONDEMANDER
 0825H     DDCCIACTIONDEMANDER
 082BH     _OSDACTIONDISPATCHER
 0831H     _KEYACTIONDISPATCHER
 0837H     _DDCCIACTIONDISPATCHER
 083DH     ISINTERLACED
 0843H     GETINPUTVTOTAL
 0849H     SETSRINPUTTIMINGPARAMETER
 084FH     _DELAYVTIME
 0855H     GETDIGINPUTVACTIVEIMMEDIATE
 085BH     GETCURRINPUTINTERFACE
 0861H     USERSETASPECTRATIO
 0867H     WAITHPLLSTABLE
 086DH     HWAUTOOFFSET
 0873H     _SETUPHSYNCOVERFLOWMASK
 0879H     ISHDMI
 087FH     ISBACKLIGHTON
 0885H     BACKLIGHTON
 088BH     BACKLIGHTOFF
 0891H     _SETBRIGHTNESS
 0897H     _DUALVIEWPOINTOBFMODE
 089DH     ISOSDALLOWSENSEYEDEMO
 08A3H     USERSETGAMMA
 08A9H     USERSETSHARPNESS
 08AFH     USERSETDBC
 08B5H     _GETTMDSPHYDATA
 08BBH     _OSDAPI_SETINDENTFONT
 08C1H     SETCLRTMP_BRICON
 08C7H     _MTXAPI_SETCONTRASTVALUE
 08CDH     _MTXAPI_SELMATRIX
 08D3H     SETLOCALMATRIX
 08D9H     _MTXAPI_SETCONTRAST
 08DFH     _SETADCPLL2
 08E5H     _MTXAPI_ENABLELOCALMATRIX
 08EBH     _SETCOLORTEMPERATURE
 08F1H     _SETODMODE
 08F7H     _MTXAPI_SETRGAIN
 08FDH     _MTXAPI_SETGGAIN
 0903H     _MTXAPI_SETBGAIN
 0909H     _MTXAPI_SETROFFSET
 090FH     _MTXAPI_SETGOFFSET
 0915H     _MTXAPI_SETBOFFSET
 091BH     _OSDAPI_SETPOSITION
 0921H     _OSDAPI_SETOSDFGBGTRAN
 0927H     _OSDAPI_SETOSDSPECIALBGTRAN
 092DH     _OSDAPI_SELOSDWIN
 0933H     _OSDAPI_SETOSDWINTRAN
 0939H     _OSDAPI_ROTATEOSDPOSITION
 093FH     AUDIOMUTEOFF
 0945H     _BFAPI_SETACTIVEWINDOW
 094BH     SETDEMO
 0951H     DCR_BENQ_FROCESETBK
 0957H     DCR_BENQ_INIT
 095DH     DISABLEDCR
BL51 BANKED LINKER/LOCATER V6.22                                                      01/06/2017  14:57:29  PAGE 160


 0963H     APPISOUTOFLIMIT
 0969H     _SETDISPLAYMODE
 096FH     GRAPHICDISPLAYWINDOWDISABLE
 0975H     CHECKOVERSCAN
 097BH     GRAPHICDISPLAYWINDOWENABLE
 0981H     GMAPI_ENABLEGAMMA
 0987H     _SETVOLUME
 098DH     NVRAMCLEARTIMING
 0993H     SETCOLORSPACE
 0999H     ISAUTOTUNEVALID
 099FH     AUTOTUNE
 09A5H     GETANGINPUTPHASE
 09ABH     SETMINMAX
 09B1H     _SETTHEMEMODE
 09B7H     _SETPICTUREMODE
 09BDH     SCALERAUDIOPREMUTE
 09C3H     _SETINPUTINTERFACE
 09C9H     DETECTASPECTRATIO
 09CFH     _SCALERAUDIOSELECT
 09D5H     SETCLRTMP_SHARPNESS
 09DBH     _BFAPI_SETSHARPNESS
 09E1H     _MCUENABLEIIC
 09E7H     _MCUDISABLEIIC
 09EDH     ISCOMPONENTINPUT
 09F3H     _BFAPI_ENABLEWINDOW
 09F9H     ENABLEDBC
 09FFH     _OSDLOADFONT
 0A05H     _OSDINITFRAME
 0A0BH     OSDTURNONOSD
 0A11H     OSDENTERMENUKEYMENU
 0A17H     OSDENTERTOPPAGEMENU
 0A1DH     OSDENTEREXITKEYMENU
 0A23H     OSDENTERMAINMENU
 0A29H     OSDENTERCUSTOMER3MENU
 0A2FH     OSDENTERCUSTOMER1MENU
 0A35H     OSDENTERCUSTOMER2MENU
 0A3BH     OSDEXITTOPPAGEMENU
 0A41H     OSDEXITCUSTOMERMENU
 0A47H     OSDCONFIRMCUSTOMERMENU
 0A4DH     OSDCUSTOMERMENUUP
 0A53H     OSDCUSTOMERMENUDOWN
 0A59H     OSDITM31EXITTOPPAGEMENU
 0A5FH     OSDITM35EXITTOPPAGEMENU
 0A65H     OSDCUSTVOLUMEUP
 0A6BH     OSDCUSTVOLUMEDOWN
 0A71H     OSDCUSTCONTRASTUP
 0A77H     OSDCUSTCONTRASTDOWN
 0A7DH     OSDCUSTBRIGHTNESSUP
 0A83H     OSDCUSTBRIGHTNESSDOWN
 0A89H     OSDEXITMAINMENU
 0A8FH     OSDENTERSUBMENU1
 0A95H     OSDMAINMENUUP
 0A9BH     OSDMAINMENUDOWN
 0AA1H     OSDENTERSUBMENU2
 0AA7H     OSDENTERSUBMENU3
 0AADH     OSDENTERSUBMENUAUDIO
 0AB3H     OSDENTERSUBMENU4
BL51 BANKED LINKER/LOCATER V6.22                                                      01/06/2017  14:57:29  PAGE 161


 0AB9H     OSDEXITSUBMENU1
 0ABFH     OSDENTERITM12
 0AC5H     OSDSUBMENUUP1
 0ACBH     OSDSUBMENUDOWN1
 0AD1H     OSDEXITSUBMENU2
 0AD7H     OSDENTERITM21
 0ADDH     OSDSUBMENUUP2
 0AE3H     OSDSUBMENUDOWN2
 0AE9H     OSDENTERITM22
 0AEFH     OSDENTERITM23
 0AF5H     OSDENTERITM24
 0AFBH     OSDENTERITM25
 0B01H     OSDENTERITM26
 0B07H     OSDENTERITM27
 0B0DH     OSDENTERITM28
 0B13H     OSDENTERITM29
 0B19H     OSDEXITSUBMENU3
 0B1FH     OSDENTERITM31
 0B25H     OSDSUBMENUUP3
 0B2BH     OSDSUBMENUDOWN3
 0B31H     OSDENTERITM32
 0B37H     OSDENTERITM33
 0B3DH     OSDENTERITM34
 0B43H     OSDENTERITM35
 0B49H     OSDENTERITM36
 0B4FH     OSDENTERITM37
 0B55H     OSDEXITSUBMENUAUDIO
 0B5BH     OSDENTERITMAUDIO1
 0B61H     OSDSUBMENUUPAUDIO
 0B67H     OSDSUBMENUDOWNAUDIO
 0B6DH     OSDENTERITMAUDIO2
 0B73H     OSDENTERITMAUDIO3
 0B79H     OSDEXITSUBMENU4
 0B7FH     OSDENTERITM41
 0B85H     OSDSUBMENUUP4
 0B8BH     OSDSUBMENUDOWN4
 0B91H     OSDENTERITM42
 0B97H     OSDENTERITM43
 0B9DH     OSDENTERITM44
 0BA3H     OSDENTERITM45
 0BA9H     OSDENTERITM411
 0BAFH     OSDENTERITM48
 0BB5H     OSDENTERITM49
 0BBBH     OSDENTERITM412
 0BC1H     OSDEXITITM12
 0BC7H     OSDSELECTINPUT
 0BCDH     OSDITM12UP
 0BD3H     OSDITM12DOWN
 0BD9H     OSDEXITITM21
 0BDFH     OSDBRIGHTNESSUP
 0BE5H     OSDBRIGHTNESSDOWN
 0BEBH     OSDEXITITM22
 0BF1H     OSDCONTRASTUP
 0BF7H     OSDCONTRASTDOWN
 0BFDH     OSDEXITITM23
 0C03H     OSDSHARPNESSUP
 0C09H     OSDSHARPNESSDOWN
BL51 BANKED LINKER/LOCATER V6.22                                                      01/06/2017  14:57:29  PAGE 162


 0C0FH     OSDEXITITM24
 0C15H     OSDCONFIRMITM24
 0C1BH     OSDITM24UP
 0C21H     OSDITM24DOWN
 0C27H     OSDITM24EXITTOPPAGEMENU
 0C2DH     OSDEXITITM25
 0C33H     OSDCONFIRMITM25
 0C39H     OSDITM25UP
 0C3FH     OSDITM25DOWN
 0C45H     OSDITM25EXITTOPPAGEMENU
 0C4BH     OSDENTERSUBITM2541
 0C51H     OSDEXITITM26
 0C57H     OSDCOLORHUEUP
 0C5DH     OSDCOLORHUEDOWN
 0C63H     OSDEXITITM27
 0C69H     OSDCOLORSATURATIONUP
 0C6FH     OSDCOLORSATURATIONDOWN
 0C75H     OSDEXITITM28
 0C7BH     OSDCONFIRMITM28
 0C81H     OSDITM28UP
 0C87H     OSDITM28DOWN
 0C8DH     OSDEXITITM29
 0C93H     OSDCONFIRMITM29
 0C99H     OSDITM29UP
 0C9FH     OSDITM29DOWN
 0CA5H     OSDITM29EXITTOPPAGEMENU
 0CABH     OSDEXITITM31
 0CB1H     OSDCHECKITM31
 0CB7H     OSDITM31UP
 0CBDH     OSDITM31DOWN
 0CC3H     OSDENTERSUBITMANIMATION
 0CC9H     OSDENTERSUBITM313
 0CCFH     OSDEXITITM32
 0CD5H     OSDCONFIRMITM32
 0CDBH     OSDITM32UP
 0CE1H     OSDITM32DOWN
 0CE7H     OSDITM32EXITTOPPAGEMENU
 0CEDH     OSDEXITITM33
 0CF3H     OSDDYNAMICCNUP
 0CF9H     OSDDYNAMICCNDOWN
 0CFFH     OSDEXITITM34
 0D05H     OSDCONFIRMITM34
 0D0BH     OSDITM34UP
 0D11H     OSDITM34DOWN
 0D17H     OSDITM34EXITTOPPAGEMENU
 0D1DH     OSDEXITITM35
 0D23H     OSDCONFIRMITM35
 0D29H     OSDITM35UP
 0D2FH     OSDITM35DOWN
 0D35H     OSDEXITITM36
 0D3BH     OSDCONFIRMITM36
 0D41H     OSDITM36UP
 0D47H     OSDITM36DOWN
 0D4DH     OSDITM36EXITTOPPAGEMENU
 0D53H     OSDEXITITM37
 0D59H     OSDCONFIRMITM37
 0D5FH     OSDITM37UP
BL51 BANKED LINKER/LOCATER V6.22                                                      01/06/2017  14:57:29  PAGE 163


 0D65H     OSDITM37DOWN
 0D6BH     OSDITM37EXITTOPPAGEMENU
 0D71H     OSDEXITITMAUDIO1
 0D77H     OSDVOLUMEUP
 0D7DH     OSDVOLUMEDOWN
 0D83H     OSDEXITITMAUDIO2
 0D89H     OSDCONFIRMAUDIO2
 0D8FH     OSDITMAUDIO2UP
 0D95H     OSDITMAUDIO2DOWN
 0D9BH     OSDAUDIO2EXITTOPPAGEMENU
 0DA1H     OSDEXITITMAUDIO3
 0DA7H     OSDCONFIRMAUDIO3
 0DADH     OSDITMAUDIO3UP
 0DB3H     OSDITMAUDIO3DOWN
 0DB9H     OSDAUDIO3EXITTOPPAGEMENU
 0DBFH     OSDEXITITM41
 0DC5H     OSDENTERSUBITM411
 0DCBH     OSDITM41UP
 0DD1H     OSDITM41DOWN
 0DD7H     OSDENTERSUBITM412
 0DDDH     OSDENTERSUBITM413
 0DE3H     OSDEXITITM42
 0DE9H     OSDCONFIRMCUSTOMEKEY1
 0DEFH     OSDITM42UP
 0DF5H     OSDITM42DOWN
 0DFBH     OSDEXITITM43
 0E01H     OSDCONFIRMCUSTOMEKEY2
 0E07H     OSDITM43UP
 0E0DH     OSDITM43DOWN
 0E13H     OSDEXITITM44
 0E19H     OSDCONFIRMCUSTOMEKEY3
 0E1FH     OSDITM44UP
 0E25H     OSDITM44DOWN
 0E2BH     OSDEXITITM45
 0E31H     OSDCHECKITM45
 0E37H     OSDITM45UP
 0E3DH     OSDITM45DOWN
 0E43H     OSDITM45EXITTOPPAGEMENU
 0E49H     OSDEXITITM48
 0E4FH     OSDCONFIRMITM48
 0E55H     OSDITM48UP
 0E5BH     OSDITM48DOWN
 0E61H     OSDEXITITM49
 0E67H     OSDCONFIRMITM49
 0E6DH     OSDITM49UP
 0E73H     OSDITM49DOWN
 0E79H     OSDITM49EXITTOPPAGEMENU
 0E7FH     OSDEXITITM410
 0E85H     OSDEXITITM411
 0E8BH     OSDCONFIRMITM411
 0E91H     OSDITM411UP
 0E97H     OSDITM411DOWN
 0E9DH     OSDEXITITM412
 0EA3H     OSDCONFIRMITM412
 0EA9H     OSDITM412UP
 0EAFH     OSDITM412DOWN
 0EB5H     OSDEXITSUBITM2541
BL51 BANKED LINKER/LOCATER V6.22                                                      01/06/2017  14:57:29  PAGE 164


 0EBBH     OSDENTERSUBITM2542
 0EC1H     OSDSUBITM2541UP
 0EC7H     OSDSUBITM2541DOWN
 0ECDH     OSDENTERSUBITM2543TO1
 0ED3H     OSDENTERSUBITM2543
 0ED9H     OSDSUBITM2542UP
 0EDFH     OSDSUBITM2542DOWN
 0EE5H     OSDSUBITM2543UP
 0EEBH     OSDSUBITM2543DOWN
 0EF1H     OSDEXITSUBITM313
 0EF7H     OSDCONFIRMSUBITM313
 0EFDH     OSDSUBITM313UP
 0F03H     OSDSUBITM313DOWN
 0F09H     OSDEXITLBLTOPPAGEMENU
 0F0FH     OSDEXITSUBITMANIMATION
 0F15H     OSDSUBITMANIMATIONUP
 0F1BH     OSDSUBITMANIMATIONDOWN
 0F21H     OSDEXITANIMATIONTOPPAGEMENU
 0F27H     OSDEXITSUBITM321
 0F2DH     OSDCONFIRMITM321
 0F33H     OSDSUBITM321UP
 0F39H     OSDSUBITM321DOWN
 0F3FH     OSDSUBITM321EXITTOPPAGEMENU
 0F45H     OSDEXITSUBITM411
 0F4BH     OSDENTERSUBITM411X
 0F51H     OSDSUBITM411UP
 0F57H     OSDSUBITM411DOWN
 0F5DH     OSDEXITSUBITM412
 0F63H     OSDCONFIRMSUBITM412
 0F69H     OSDSUBITM412UP
 0F6FH     OSDSUBITM412DOWN
 0F75H     OSDSHOWSOURCEMENU
 0F7BH     OSDUNLOCKKEYMENU
 0F81H     OSDEXITSMARTREMINDER
 0F87H     OSDCONFIRMRESETINFOR
 0F8DH     OSDEXITRESETINFOR
 0F93H     OSDCONFIRMRESETCOLORINFOR
 0F99H     OSDEXITRESETCOLORINFOR
 0F9FH     OSDCONFIRMDCRINFOR
 0FA5H     OSDEXITDCRINFOR
 0FABH     OSDEXITFAC
 0FB1H     OSDENTERFITM
 0FB7H     OSDUPFACTORY
 0FBDH     OSDDNFACTORY
 0FC3H     OSDEXITFITM
 0FC9H     OSDEXITFITM2
 0FCFH     OSDUPFITM
 0FD5H     OSDDNFITM
 0FDBH     OSDADJSMITM
 0FE1H     OSDUPSERVICEMENU
 0FE7H     OSDDNSERVICEMENU
 0FEDH     OSDCONFIRMINPUTDVI
 0FF3H     OSDCONFIRMINPUTDP
 0FF9H     OSDCONFIRMINPUTHDMI
 0FFFH     OSDENTERNOSYNC
 1005H     OSDENTERNOCABLE
 100BH     OSDENTERNORMAL
BL51 BANKED LINKER/LOCATER V6.22                                                      01/06/2017  14:57:29  PAGE 165


 1011H     OSDENTEROOL
 1017H     OSDENTEROOR
 101DH     _OSDBLINKSELECTPAGEBUTTON
 1023H     OSDUSERUPDATE
 1029H     OSDTMGUPDATE
 102FH     OSDSYSUPDATE
 1035H     OSDCALUPDATE
 103BH     _NVRAMREADUSERDATA
 1041H     OSDSETOVERSCAN
 1047H     OSDAUDIOSELECT
 104DH     ISOUTOFRANGE
 1053H     OSDSHOWSMARREMINDER
 1059H     OSDSHOWSENSEYEDEMO
 105FH     OSDMOVEPOSITION
 1065H     ISNOCABLESTATE
 106BH     ISNOSYNCSTATE
 1071H     OSDPERFORMAUTOTUNE
 1077H     ISPRESETMODETIMING
 107DH     ISVIDEOTIMING
 1083H     OSDCLOSED
 1089H     OSDRESHOWMENU
 108FH     _OSDAPI_SETHVZOOM
 1095H     ISOUTRANGESTATE
 109BH     APPRESENDAPPSYNC
 10A1H     OSDAPI_DISABLESPLIT
 10A7H     _OSDUPDATEAUTOTUNEBAR
 10ADH     OSDCHECKBARADJITEM
 10B3H     OSDSHOWTOPPAGEMENU
 10B9H     OSDSHOWFACTORY
 10BFH     _OSDBLINKTOPPAGEBUTTON
 10C5H     USERSETANIMATION
 10CBH     SETLBLMODE
 10D1H     _SETGAMMANUM
 10D7H     OSDSHOWDISPLAYMODEMENU
 10DDH     OSDSHOWPICTUREMODEMENU
 10E3H     OSDUPDATEKEYINFO
 10E9H     OSDSHOWINPUTMENU
 10EFH     OSDSHOWBRIGHTNESSMENU
 10F5H     OSDSHOWCONTRASTMENU
 10FBH     OSDSHOWVOLUMEMENU
 1101H     OSDSHOWMUTEMENU
 1107H     OSDSHOWMAINMENU
 110DH     OSDCONFIRMINPUT
 1113H     _OSDUPDATECUSTOMHOOK
 1119H     _OSDDRAWCUSTOMHOOK
 111FH     _OSDUNSELECTLAYER1ITEM
 1125H     _OSDISMAINITEMVALID
 112BH     _OSDSELECTLAYER1ITEM
 1131H     _OSDCLRLAYER1MENU
 1137H     _OSDSELECTLAYER2ITEM
 113DH     _OSDFOCUSMAIN
 1143H     _OSDUNSELECTLAYER2ITEM
 1149H     _OSDCLRLAYER2MENU
 114FH     OSDFOCUSINPUT
 1155H     _OSDSELECTLAYER3ITEM
 115BH     _OSDEXITITMS
 1161H     _OSDUNSELECTLAYER3ITEM
BL51 BANKED LINKER/LOCATER V6.22                                                      01/06/2017  14:57:29  PAGE 166


 1167H     OSDFOCUSBR
 116DH     OSDFOCUSCN
 1173H     OSDFOCUSSHARPNESS
 1179H     OSDFOCUSGAMMA
 117FH     OSDGAMMAUP
 1185H     OSDGAMMADOWN
 118BH     OSDFOCUSCLRTMP
 1191H     OSDCOLORTEMPUP
 1197H     OSDCOLORTEMPDOWN
 119DH     OSDFOCUSHUE
 11A3H     OSDFOCUSSATURATION
 11A9H     OSDFOCUSRESETCOLOR
 11AFH     OSDFOCUSAMA
 11B5H     OSDODUP
 11BBH     OSDODDOWN
 11C1H     OSDFOCUSPICMODE
 11C7H     OSDBFMENUITMUP
 11CDH     OSDBFMENUITMDN
 11D3H     OSDFOCUSSENSEYE
 11D9H     CLRLAYER4
 11DFH     _OSDCLRLAYER3MENU
 11E5H     _OSDCHECKL3ITEMNUM
 11EBH     _OSDSHOWLAYER4MENU
 11F1H     _OSDSELECTLAYER4ITEM
 11F7H     OSDFOCUSDYNAMICCN
 11FDH     OSDFOCUSOVERSCAN
 1203H     OSDFOCUSDISPLAYMODE
 1209H     ISONLYFULLASPECTRATIO
 120FH     OSDASPECTRATIOUP
 1215H     OSDASPECTRATIODOWN
 121BH     OSDFOCUSCOLORFORMAT
 1221H     OSDBCOLORFORMATUP
 1227H     OSDBCOLORFORMATDOWN
 122DH     OSDFOCUSHDMIRGBPCRANGE
 1233H     OSDHDMIRGBPCRANGEUP
 1239H     OSDHDMIRGBPCRANGEDOWN
 123FH     OSDFOCUSVOLUME
 1245H     OSDAUDIOMUTEUP
 124BH     OSDAUDIOSELECTUP
 1251H     OSDAUDIOSELECTDOWN
 1257H     OSDFOCUSCUSTKEY1
 125DH     _SETRESHOWMENUIDX
 1263H     OSDFOCUSCUSTKEY2
 1269H     OSDFOCUSCUSTKEY3
 126FH     OSDFOCUSDDCCI
 1275H     OSDDDCCICONFIRM
 127BH     OSDDDCCIUP
 1281H     OSDDDCCIDOWN
 1287H     OSDFOCUSAUTOPWROFF
 128DH     OSDAUTOPOWOFFUP
 1293H     OSDAUTOPOWOFFDOWN
 1299H     OSDFOCUSRESNOTICE
 129FH     OSDRESNOTICEUP
 12A5H     OSDRESNOTICEDOWN
 12ABH     OSDFOCUSRESET
 12B1H     _OSDEXITSUBITMS
 12B7H     OSDRGAINUP
BL51 BANKED LINKER/LOCATER V6.22                                                      01/06/2017  14:57:29  PAGE 167


 12BDH     OSDRGAINDOWN
 12C3H     OSDGGAINUP
 12C9H     OSDGGAINDOWN
 12CFH     OSDBGAINUP
 12D5H     OSDBGAINDOWN
 12DBH     _OSDSELECTLBLLAYER4ITEM
 12E1H     _OSDUNSELECTLBLLAYER4ITEM
 12E7H     OSDSENSEYEDEMOUP
 12EDH     _OSDSHOWMAINMENUICON
 12F3H     OSDLANGUESLECETRELOAD
 12F9H     _OSDUNSELECTLAYER4ITEM
 12FFH     OSDPERFORMNORMAL
 1305H     OSDSHOWBURNING
 130BH     OSDSHOWNOSYNC
 1311H     OSDSHOWNOCABLE
 1317H     OSDSHOWOOL
 131DH     OSDSHOWOOR
 1323H     OSDFACTORYUP
 1329H     OSDFACTORYDOWN
 132FH     OSDFACTORYENTERITM
 1335H     OSDFACTORYEXITITM
 133BH     OSDFACTORYITMUP
 1341H     OSDFACTORYITMDOWN
 1347H     OSDCONFIRMRECALL
 134DH     _OSDSHOWDIALOGFRAME
 1353H     _OSDCLEARFRAME
 1359H     _OSDSETPOSITION
 135FH     _LOGOSETSPLIT
 1365H     OSDSHOWINPUTNOTICEDIALOGSTRING
 136BH     _OSDSHOWNOTICEICON
 1371H     _OSDSHOWSELECTPAGEMAINFRAME
 1377H     OSDSHOWAUTOICON
 137DH     OSDSHOWINPUTICON
 1383H     OSDCHECKHOOKICON
 1389H     _OSDAPI_ROTATEOSDWIN
 138FH     _OSDSHOWNUM2
 1395H     _OSDSHOWSLIDERBAR
 139BH     ISNATIVETIMING
 13A1H     ISHDMIVIDEOTIMING
 13A7H     ENABLEDCLK
 13ADH     _MTXAPI_SETRGBGAIN
 13B3H     _OSDAPI_SETFONTSIZE
 13B9H     _OSDAPI_SETFONTADDRESS
 13BFH     _PANELPOWERONSEQUENCE
 13C5H     SRAPI_INITSR
 13CBH     _SRAPI_SETDEMOREGION
 13D1H     _SRAPI_SETMDNFILTER
 13D7H     _SRAPI_SETUSMFILTER
 13DDH     _SRAPI_SETUSMLPTHRESHOLD
 13E3H     _SRAPI_SETUSMDARKLIMIT
 13E9H     _SRAPI_TURNONOFF
 13EFH     _SRAPI_SETHTOTAL
 13F5H     TMDSDEEPCOLORDETECTION
 13FBH     _SRAPI_SETCAPTURESIZE
 1401H     GETINPUTHFREQ
 1407H     SRAPI_SRBLOCKENABLE
 140DH     SRAPI_SRBLOCKDISABLE
BL51 BANKED LINKER/LOCATER V6.22                                                      01/06/2017  14:57:29  PAGE 168


 1413H     _MCUIICRELEASESCL
 1419H     _MCUIICPRESENDACK
 141FH     USERGETNORMALCLOCK
 1425H     USERGETNORMALHPOSN
 142BH     AUTOCOLOR
 1431H     USERRECALLCONFIGURATION
 1437H     USERRECALLHVPOSITION
 143DH     USERRECALLCOLOR
 1443H     _USERSETCLOCK100
 1449H     USERSETRGAIN
 144FH     USERSETGGAIN
 1455H     USERSETBGAIN
 145BH     USERPERFORMAUTOTUNE
 1461H     _USERSETHPOSN100
 1467H     _USERSETVPOSN100
 146DH     _USERSETPHASE100
 1473H     USERSETROFFSET
 1479H     USERSETGOFFSET
 147FH     USERSETBOFFSET
 1485H     USERSETLANGUAGE
 148BH     USERSETVOLUME
 1491H     USERSETAUDIOMUTE
 1497H     STARTHDCPSTORING
 149DH     _STOREHDCP
 14A3H     CHECKHDCPCHKSUM
 14A9H     LOADGAMA_2
 14AFH     GETGAMMANUM
 14B5H     LOADGAMA_1
 14BBH     LOADGAMA_BYPASS
 14C1H     LOADGAMA_3
 14C7H     LOADGAMA_4
 14CDH     _NVRAMREADHDCPDATA
 14D3H     _NVRAMWRITEHDCPDATA
 14D9H     OSDSHOWMAINMENUSTRINGS
 14DFH     SETASPRATIOSETTING
 14E5H     _OSDAPI_SETOSDWINSIZEUNIT
 14EBH     _OSDSHOWLAYER4SLIDERBAR
 14F1H     _OSDCLEARARROW
 14F7H     _OSDGETLAYER3ITEMNUM
 14FDH     _OSDCLEARLAYER4BYITEM
 1503H     _ISOSDCLEARLAYER4
 1509H     _OSDSELECTDIALOGITEM
 150FH     ISOSDROTATIONAVAILABLE
 1515H     _OSDSHOWCUSMENUICON
 151BH     _OSDSHOWCUSTOMMENUTITLE
 1521H     _OSDSHOWARROW
 1527H     _OSDSHOWSOURCEICON
 152DH     _OSDSHOWTOPPAGEICON
 1533H     OSDDISABLEWINROTATION
 1539H     ISOSDCUSKEYBRICONDISABLE
 153FH     ISHDMIVIDEO
 1545H     _OSDAPI_SETOSDWIDTH
 154BH     _OSDAPI_SETOSDHEIGHT
 1551H     OSDAPI_CLEAROSD
 1557H     OSDAPI_SETOSDWINATTR
 155DH     _OSDAPI_SETOSDWINSIZE
 1563H     _OSDAPI_OSDWINON
BL51 BANKED LINKER/LOCATER V6.22                                                      01/06/2017  14:57:29  PAGE 169


 1569H     _OSDAPI_SETROWPOSITION
 156FH     USERGETNORMALVPOSN
 1575H     _OSDSHOWDIALOG
 157BH     ISTIMINGCHANGED
 1581H     CURRENTTIMINGSAVED
 1587H     ISOSDALLOWRESNOTICE
 158DH     OSDRESETSMARTREMIDERTIMER
 1593H     _OSDPAGEMAINFRAME_LEFT
 1599H     _OSDSHOWSELECTPAGEBUTTON_RIGHT
 159FH     _OSDSHOWSELECTPAGEBUTTON_LEFT
 15A5H     USERSETHUE
 15ABH     USERSETSATURATION
 15B1H     USERSETDDCCI
 15B7H     ISCOMPONENTTIMING



SYMBOL TABLE OF MODULE:  .\Bin\NT68875_ (MAIN)

  VALUE           TYPE          NAME
  ----------------------------------

  -------         MODULE        BFAPI
  C:0000H         SYMBOL        _ICE_DUMMY_
 C3:EC9EH         PUBLIC        _BFAPI_SetBOffset
 C3:E1C0H         PUBLIC        _BFAPI_EnableCM
 C3:EE7EH         PUBLIC        _BFAPI_SetSaturation
 C3:EC89H         PUBLIC        _BFAPI_SetGOffset
 C3:E38DH         PUBLIC        _BFAPI_CorrectFleshTone
 C3:E9F1H         PUBLIC        _BFAPI_SetSharpness
 C3:EC74H         PUBLIC        _BFAPI_SetROffset
 C3:EE78H         PUBLIC        _BFAPI_SetBGain
 C3:EE72H         PUBLIC        _BFAPI_SetGGain
 C3:EE84H         PUBLIC        _BFAPI_SetIntensity
 C3:EE6CH         PUBLIC        _BFAPI_SetRGain
 C3:EA3CH         PUBLIC        _BFAPI_SetActiveWindow
 C3:CE91H         PUBLIC        _BFAPI_SetLocalMatrix
 C3:DE5DH         PUBLIC        _BFAPI_Init
  X:A76EH         SYMBOL        ucBFConfig
 C3:DAEDH         PUBLIC        _BFAPI_SetPreACEMode
 C3:E2E2H         PUBLIC        _BFAPI_SetHHTable
 C3:E662H         PUBLIC        _BFAPI_SetCustomWindow
 C3:ECB3H         PUBLIC        BFAPI_DisableACEMode
 C3:DFAFH         PUBLIC        _BFAPI_SetHITable
 C3:ED97H         PUBLIC        _BFAPI_EnhanceGreen
 C3:E222H         PUBLIC        _BFAPI_SetHSTable
 C3:EBD5H         PUBLIC        _BFAPI_DisableWindow
 C3:E7A2H         PUBLIC        _BFAPI_ColorEnhance
 C3:EBECH         PUBLIC        BFAPI_EnableACEMode
 C3:EDA3H         PUBLIC        _BFAPI_EnhanceBlue
 C3:E806H         PUBLIC        _BFAPI_SetTextEnhancement
 C3:E73EH         PUBLIC        _BFAPI_EnableWindow
 C3:C71FH         PUBLIC        _BFAPI_SetWindowSize
 C3:E01EH         PUBLIC        _BFAPI_DisableCM
 C3:E925H         PUBLIC        _BFAPI_SetYPeaking
 C3:E9CAH         PUBLIC        _BFAPI_SetHue
 C3:E770H         PUBLIC        _BFAPI_EnhanceRed
BL51 BANKED LINKER/LOCATER V6.22                                                      01/06/2017  14:57:29  PAGE 170


  C:3F1AH         SYMBOL        SpecTab_BFVersion
 C3:D053H         SYMBOL        Com0094
 C3:D053H         SYMBOL        L?0149
 C3:D06CH         SYMBOL        L?0150
 C3:D06DH         SYMBOL        L?0151
 C3:D06EH         SYMBOL        L?0152
 C3:D076H         SYMBOL        L?0153
 C3:D076H         SYMBOL        L?0154
 C3:D078H         SYMBOL        L?0155
 C3:D083H         SYMBOL        L?0156
 C3:D086H         SYMBOL        L?0157
 C3:D08FH         SYMBOL        L?0158
 C3:D08FH         SYMBOL        L?0159
 C3:D0A1H         SYMBOL        L?0160
 C3:D0A1H         SYMBOL        L?0161
 C3:D0A2H         SYMBOL        L?0162
 C3:D0AAH         SYMBOL        L?0163
 C3:D0AAH         SYMBOL        L?0164
 C3:D0BAH         SYMBOL        L?0165
 C3:D0C6H         SYMBOL        L?0166
 C3:D0CBH         SYMBOL        L?0167
 C3:D0D4H         SYMBOL        L?0168
 C3:D0D4H         SYMBOL        L?0169
 C3:D0DDH         SYMBOL        L?0170
 C3:D0DEH         SYMBOL        L?0171
 C3:D0E5H         SYMBOL        L?0173
 C3:D0EFH         SYMBOL        L?0174
 C3:D0FCH         SYMBOL        L?0175
 C3:D0FCH         SYMBOL        L?0176
 C3:D104H         SYMBOL        L?0177
 C3:D104H         SYMBOL        L?0178
 C3:D10CH         SYMBOL        L?0179
 C3:D116H         SYMBOL        L?0180
  -------         PROC          COM0094
  -------         ENDPROC       COM0094
 C3:DE8EH         SYMBOL        L?0147
 C3:DEC0H         SYMBOL        L?0172

  -------         PROC BANK=3   _BFAPI_INIT
  D:0007H         SYMBOL        gen
  -------         DO            
  D:0007H         SYMBOL        tmpReg
  -------         ENDDO         
 C3:DE5DH         LINE#         69
 C3:DE5DH         LINE#         70
 C3:DE5DH         LINE#         71
 C3:DE5DH         LINE#         73
 C3:DE69H         LINE#         74
 C3:DE6BH         LINE#         75
 C3:DE6BH         LINE#         76
 C3:DE6BH         LINE#         77
 C3:DE6BH         LINE#         78
 C3:DE6BH         LINE#         79
 C3:DE6BH         LINE#         80
 C3:DE6BH         LINE#         81
 C3:DE6EH         LINE#         82
 C3:DE6EH         LINE#         83
BL51 BANKED LINKER/LOCATER V6.22                                                      01/06/2017  14:57:29  PAGE 171


 C3:DE71H         LINE#         84
 C3:DE73H         LINE#         85
 C3:DE73H         LINE#         86
 C3:DE73H         LINE#         87
 C3:DE73H         LINE#         88
 C3:DE73H         LINE#         89
 C3:DE73H         LINE#         90
 C3:DE73H         LINE#         91
 C3:DE76H         LINE#         92
 C3:DE76H         LINE#         93
 C3:DE79H         LINE#         95
 C3:DE7DH         LINE#         96
 C3:DE80H         LINE#         97
 C3:DE85H         LINE#         99
 C3:DE89H         LINE#         100
 C3:DE8EH         LINE#         101
  -------         ENDPROC       _BFAPI_INIT

  -------         PROC BANK=3   _BFAPI_ENABLEWINDOW
  D:0007H         SYMBOL        bfw
  -------         DO            
  D:0006H         SYMBOL        tmpReg1
  D:0005H         SYMBOL        tmpReg2
  -------         ENDDO         
 C3:E73EH         LINE#         107
 C3:E73EH         LINE#         108
 C3:E73EH         LINE#         111
 C3:E742H         LINE#         113
 C3:E745H         LINE#         115
 C3:E74AH         LINE#         116
 C3:E751H         LINE#         117
 C3:E751H         LINE#         118
 C3:E758H         LINE#         119
 C3:E75BH         LINE#         120
 C3:E75DH         LINE#         121
 C3:E75DH         LINE#         122
 C3:E766H         LINE#         123
 C3:E76FH         LINE#         124
 C3:E76FH         LINE#         125
 C3:E76FH         LINE#         126
  -------         ENDPROC       _BFAPI_ENABLEWINDOW

  -------         PROC BANK=3   _BFAPI_DISABLEWINDOW
  D:0007H         SYMBOL        bfw
  -------         DO            
  D:0006H         SYMBOL        tmpReg1
  -------         ENDDO         
 C3:EBD5H         LINE#         132
 C3:EBD5H         LINE#         133
 C3:EBD5H         LINE#         136
 C3:EBDAH         LINE#         137
 C3:EBDDH         LINE#         138
 C3:EBE2H         LINE#         140
 C3:EBEBH         LINE#         141
  -------         ENDPROC       _BFAPI_DISABLEWINDOW

  -------         PROC BANK=3   _BFAPI_SETACTIVEWINDOW
BL51 BANKED LINKER/LOCATER V6.22                                                      01/06/2017  14:57:29  PAGE 172


  D:0004H         SYMBOL        bfw
  -------         DO            
  D:0007H         SYMBOL        tmpReg1
  -------         ENDDO         
 C3:EA3CH         LINE#         147
 C3:EA3EH         LINE#         148
 C3:EA3EH         LINE#         149
 C3:EA3EH         LINE#         151
 C3:EA4CH         LINE#         153
 C3:EA51H         LINE#         154
 C3:EA54H         LINE#         155
 C3:EA59H         LINE#         157
 C3:EA60H         LINE#         158
  -------         ENDPROC       _BFAPI_SETACTIVEWINDOW

  -------         PROC BANK=3   _BFAPI_SETWINDOWSIZE
  X:A2EAH         SYMBOL        type
  -------         DO            
  X:A2EBH         SYMBOL        width
  X:A2EDH         SYMBOL        height
  X:A2EFH         SYMBOL        hstart
  D:0006H         SYMBOL        tmphs
  X:A2F1H         SYMBOL        vstart
  D:0006H         SYMBOL        tmpvs
  -------         ENDDO         
 C3:C71FH         LINE#         175
 C3:C724H         LINE#         176
 C3:C724H         LINE#         180
 C3:C733H         LINE#         181
 C3:C742H         LINE#         183
 C3:C74AH         LINE#         184
 C3:C751H         LINE#         185
 C3:C755H         LINE#         186
 C3:C758H         LINE#         187
 C3:C758H         LINE#         192
 C3:C767H         LINE#         194
 C3:C770H         LINE#         195
 C3:C77DH         LINE#         196
 C3:C781H         LINE#         197
 C3:C783H         LINE#         198
 C3:C783H         LINE#         199
 C3:C790H         LINE#         200
 C3:C790H         LINE#         201
 C3:C7A1H         LINE#         203
 C3:C7AAH         LINE#         204
 C3:C7B7H         LINE#         205
 C3:C7BBH         LINE#         206
 C3:C7BDH         LINE#         207
 C3:C7BDH         LINE#         208
 C3:C7CAH         LINE#         209
 C3:C7CAH         LINE#         210
 C3:C7E4H         LINE#         211
 C3:C7FEH         LINE#         212
 C3:C7FEH         LINE#         214
 C3:C801H         LINE#         215
 C3:C80DH         LINE#         216
 C3:C80FH         LINE#         217
BL51 BANKED LINKER/LOCATER V6.22                                                      01/06/2017  14:57:29  PAGE 173


 C3:C816H         LINE#         218
 C3:C829H         LINE#         219
 C3:C83AH         LINE#         220
 C3:C83CH         LINE#         221
 C3:C843H         LINE#         222
 C3:C84CH         LINE#         223
 C3:C870H         LINE#         224
 C3:C870H         LINE#         225
  -------         ENDPROC       _BFAPI_SETWINDOWSIZE

  -------         PROC BANK=3   _BFAPI_SETCUSTOMWINDOW
  X:A2F3H         SYMBOL        x
  D:0004H         SYMBOL        y
  D:0002H         SYMBOL        width
  X:A2F9H         SYMBOL        height
 C3:E662H         LINE#         234
 C3:E66AH         LINE#         235
 C3:E66AH         LINE#         236
 C3:E66EH         LINE#         237
 C3:E676H         LINE#         238
 C3:E67BH         LINE#         239
 C3:E680H         LINE#         240
 C3:E685H         LINE#         241
 C3:E68AH         LINE#         242
 C3:E695H         LINE#         243
 C3:E69AH         LINE#         244
  -------         ENDPROC       _BFAPI_SETCUSTOMWINDOW

  -------         PROC BANK=3   _BFAPI_ENABLECM
  D:0005H         SYMBOL        func
 C3:E1C0H         LINE#         260
 C3:E1C2H         LINE#         261
 C3:E1C2H         LINE#         262
 C3:E1C6H         LINE#         263
 C3:E1CDH         LINE#         264
 C3:E1CDH         LINE#         265
 C3:E1D1H         LINE#         266
 C3:E1D8H         LINE#         267
 C3:E1D8H         LINE#         268
 C3:E1DCH         LINE#         269
 C3:E1E3H         LINE#         270
 C3:E1E3H         LINE#         271
 C3:E1E7H         LINE#         272
 C3:E1EEH         LINE#         273
 C3:E1EEH         LINE#         274
 C3:E1F2H         LINE#         275
 C3:E1F9H         LINE#         276
 C3:E1F9H         LINE#         277
 C3:E1FDH         LINE#         278
 C3:E204H         LINE#         279
 C3:E204H         LINE#         280
 C3:E208H         LINE#         281
 C3:E20FH         LINE#         282
 C3:E20FH         LINE#         283
 C3:E216H         LINE#         284
 C3:E21AH         LINE#         285
 C3:E221H         LINE#         286
BL51 BANKED LINKER/LOCATER V6.22                                                      01/06/2017  14:57:29  PAGE 174


 C3:E221H         LINE#         287
 C3:E221H         LINE#         288
  -------         ENDPROC       _BFAPI_ENABLECM

  -------         PROC BANK=3   _BFAPI_DISABLECM
  D:0005H         SYMBOL        func
 C3:E01EH         LINE#         304
 C3:E020H         LINE#         305
 C3:E020H         LINE#         306
 C3:E024H         LINE#         307
 C3:E02BH         LINE#         308
 C3:E02BH         LINE#         309
 C3:E02FH         LINE#         310
 C3:E036H         LINE#         311
 C3:E036H         LINE#         312
 C3:E03AH         LINE#         313
 C3:E041H         LINE#         314
 C3:E041H         LINE#         315
 C3:E045H         LINE#         316
 C3:E04CH         LINE#         317
 C3:E04CH         LINE#         318
 C3:E050H         LINE#         319
 C3:E057H         LINE#         320
 C3:E057H         LINE#         321
 C3:E05BH         LINE#         322
 C3:E062H         LINE#         323
 C3:E062H         LINE#         324
 C3:E066H         LINE#         325
 C3:E06DH         LINE#         326
 C3:E06DH         LINE#         327
 C3:E074H         LINE#         328
 C3:E078H         LINE#         329
 C3:E07FH         LINE#         330
 C3:E07FH         LINE#         331
 C3:E07FH         LINE#         332
 C3:E087H         LINE#         333
 C3:E08BH         LINE#         334
 C3:E08BH         LINE#         335
  -------         ENDPROC       _BFAPI_DISABLECM

  -------         PROC BANK=3   _BFAPI_SETROFFSET
  D:0007H         SYMBOL        offset
 C3:EC74H         LINE#         341
 C3:EC74H         LINE#         342
 C3:EC74H         LINE#         343
 C3:EC7BH         LINE#         344
 C3:EC80H         LINE#         346
 C3:EC83H         LINE#         347
 C3:EC88H         LINE#         348
  -------         ENDPROC       _BFAPI_SETROFFSET

  -------         PROC BANK=3   _BFAPI_SETGOFFSET
  D:0007H         SYMBOL        offset
 C3:EC89H         LINE#         354
 C3:EC89H         LINE#         355
 C3:EC89H         LINE#         356
 C3:EC90H         LINE#         357
BL51 BANKED LINKER/LOCATER V6.22                                                      01/06/2017  14:57:29  PAGE 175


 C3:EC95H         LINE#         359
 C3:EC98H         LINE#         360
 C3:EC9DH         LINE#         361
  -------         ENDPROC       _BFAPI_SETGOFFSET

  -------         PROC BANK=3   _BFAPI_SETBOFFSET
  D:0007H         SYMBOL        offset
 C3:EC9EH         LINE#         367
 C3:EC9EH         LINE#         368
 C3:EC9EH         LINE#         369
 C3:ECA5H         LINE#         370
 C3:ECAAH         LINE#         372
 C3:ECADH         LINE#         373
 C3:ECB2H         LINE#         374
  -------         ENDPROC       _BFAPI_SETBOFFSET

  -------         PROC BANK=3   _BFAPI_SETRGAIN
  D:0007H         SYMBOL        gain
 C3:EE6CH         LINE#         380
 C3:EE6CH         LINE#         381
 C3:EE6CH         LINE#         382
 C3:EE71H         LINE#         383
  -------         ENDPROC       _BFAPI_SETRGAIN

  -------         PROC BANK=3   _BFAPI_SETGGAIN
  D:0007H         SYMBOL        gain
 C3:EE72H         LINE#         389
 C3:EE72H         LINE#         390
 C3:EE72H         LINE#         391
 C3:EE77H         LINE#         392
  -------         ENDPROC       _BFAPI_SETGGAIN

  -------         PROC BANK=3   _BFAPI_SETBGAIN
  D:0007H         SYMBOL        gain
 C3:EE78H         LINE#         398
 C3:EE78H         LINE#         399
 C3:EE78H         LINE#         400
 C3:EE7DH         LINE#         401
  -------         ENDPROC       _BFAPI_SETBGAIN

  -------         PROC BANK=3   _BFAPI_SETHUE
  D:0007H         SYMBOL        hue
 C3:E9CAH         LINE#         407
 C3:E9CAH         LINE#         408
 C3:E9CAH         LINE#         409
 C3:E9D1H         LINE#         410
 C3:E9D8H         LINE#         411
 C3:E9DBH         LINE#         412
 C3:E9DDH         LINE#         417
 C3:E9DDH         LINE#         418
 C3:E9E4H         LINE#         419
 C3:E9E6H         LINE#         420
 C3:E9E8H         LINE#         421
 C3:E9E8H         LINE#         422
 C3:E9EBH         LINE#         423
 C3:E9EBH         LINE#         424
 C3:E9EBH         LINE#         426
BL51 BANKED LINKER/LOCATER V6.22                                                      01/06/2017  14:57:29  PAGE 176


 C3:E9F0H         LINE#         427
  -------         ENDPROC       _BFAPI_SETHUE

  -------         PROC BANK=3   _BFAPI_SETSATURATION
  D:0007H         SYMBOL        sat
 C3:EE7EH         LINE#         433
 C3:EE7EH         LINE#         434
 C3:EE7EH         LINE#         435
 C3:EE83H         LINE#         436
  -------         ENDPROC       _BFAPI_SETSATURATION

  -------         PROC BANK=3   _BFAPI_SETINTENSITY
  D:0007H         SYMBOL        intensity
 C3:EE84H         LINE#         442
 C3:EE84H         LINE#         443
 C3:EE84H         LINE#         444
 C3:EE89H         LINE#         445
  -------         ENDPROC       _BFAPI_SETINTENSITY

  -------         PROC BANK=3   _BFAPI_SETSHARPNESS
  D:0007H         SYMBOL        shp
  -------         DO            
  D:0006H         SYMBOL        tmpReg
  -------         ENDDO         
 C3:E9F1H         LINE#         451
 C3:E9F1H         LINE#         452
 C3:E9F1H         LINE#         455
 C3:E9F8H         LINE#         457
 C3:E9FBH         LINE#         458
 C3:E9FDH         LINE#         459
 C3:E9FEH         LINE#         460
 C3:EA02H         LINE#         461
 C3:EA05H         LINE#         462
 C3:EA08H         LINE#         463
 C3:EA0AH         LINE#         464
 C3:EA0AH         LINE#         465
 C3:EA0EH         LINE#         466
 C3:EA16H         LINE#         467
 C3:EA16H         LINE#         468
  -------         ENDPROC       _BFAPI_SETSHARPNESS

  -------         PROC BANK=3   _BFAPI_SETYPEAKING
  D:0007H         SYMBOL        yp
 C3:E925H         LINE#         474
 C3:E925H         LINE#         475
 C3:E925H         LINE#         476
 C3:E928H         LINE#         477
 C3:E92CH         LINE#         478
 C3:E92DH         LINE#         479
 C3:E92DH         LINE#         480
 C3:E933H         LINE#         481
 C3:E936H         LINE#         482
 C3:E93AH         LINE#         483
 C3:E93EH         LINE#         484
 C3:E942H         LINE#         486
 C3:E94AH         LINE#         487
 C3:E94FH         LINE#         488
BL51 BANKED LINKER/LOCATER V6.22                                                      01/06/2017  14:57:29  PAGE 177


 C3:E94FH         LINE#         489
  -------         ENDPROC       _BFAPI_SETYPEAKING

  -------         PROC BANK=3   _BFAPI_SETTEXTENHANCEMENT
  D:0005H         SYMBOL        txt
 C3:E806H         LINE#         495
 C3:E808H         LINE#         496
 C3:E808H         LINE#         497
 C3:E80EH         LINE#         498
 C3:E812H         LINE#         499
 C3:E817H         LINE#         500
 C3:E81EH         LINE#         501
 C3:E81FH         LINE#         502
 C3:E81FH         LINE#         503
 C3:E823H         LINE#         504
 C3:E82FH         LINE#         505
 C3:E836H         LINE#         506
 C3:E836H         LINE#         507
  -------         ENDPROC       _BFAPI_SETTEXTENHANCEMENT

  -------         PROC BANK=3   _BFAPI_CORRECTFLESHTONE
  D:0007H         SYMBOL        value
  -------         DO            
  D:0002H         SYMBOL        i
  -------         ENDDO         
 C3:E38DH         LINE#         558
 C3:E38DH         LINE#         559
 C3:E38DH         LINE#         562
 C3:E39FH         LINE#         564
 C3:E39FH         LINE#         565
 C3:E3A5H         LINE#         566
 C3:E3AAH         LINE#         567
 C3:E3B3H         LINE#         568
 C3:E3B9H         LINE#         569
 C3:E3D1H         LINE#         570
 C3:E3D3H         LINE#         571
 C3:E3D8H         LINE#         572
 C3:E3DAH         LINE#         573
 C3:E3DEH         LINE#         574
 C3:E3E1H         LINE#         575
  -------         ENDPROC       _BFAPI_CORRECTFLESHTONE

  -------         PROC BANK=3   _BFAPI_ENHANCERED
  D:0005H         SYMBOL        value
  -------         DO            
  D:0006H         SYMBOL        i
  -------         ENDDO         
 C3:E770H         LINE#         581
 C3:E770H         LINE#         582
 C3:E770H         LINE#         586
 C3:E770H         LINE#         587
 C3:E776H         LINE#         588
 C3:E77AH         LINE#         589
 C3:E782H         LINE#         590
 C3:E788H         LINE#         591
 C3:E78FH         LINE#         592
 C3:E790H         LINE#         593
BL51 BANKED LINKER/LOCATER V6.22                                                      01/06/2017  14:57:29  PAGE 178


 C3:E795H         LINE#         594
 C3:E79BH         LINE#         595
 C3:E79EH         LINE#         596
 C3:E7A1H         LINE#         597
  -------         ENDPROC       _BFAPI_ENHANCERED

  -------         PROC BANK=3   _BFAPI_ENHANCEGREEN
  D:0005H         SYMBOL        value
  -------         DO            
  D:0006H         SYMBOL        i
  -------         ENDDO         
 C3:ED97H         LINE#         603
 C3:ED97H         LINE#         604
 C3:ED97H         LINE#         608
 C3:ED97H         LINE#         609
 C3:ED9DH         LINE#         610
 C3:ED9FH         LINE#         611
 C3:ED9FH         LINE#         612
 C3:ED9FH         LINE#         613
 C3:ED9FH         LINE#         614
 C3:ED9FH         LINE#         615
 C3:ED9FH         LINE#         616
 C3:EDA2H         LINE#         617
  -------         ENDPROC       _BFAPI_ENHANCEGREEN

  -------         PROC BANK=3   _BFAPI_ENHANCEBLUE
  D:0005H         SYMBOL        value
  -------         DO            
  D:0006H         SYMBOL        i
  -------         ENDDO         
 C3:EDA3H         LINE#         623
 C3:EDA3H         LINE#         624
 C3:EDA3H         LINE#         628
 C3:EDA3H         LINE#         629
 C3:EDA9H         LINE#         630
 C3:EDABH         LINE#         631
 C3:EDABH         LINE#         632
 C3:EDABH         LINE#         633
 C3:EDABH         LINE#         634
 C3:EDABH         LINE#         635
 C3:EDABH         LINE#         636
 C3:EDAEH         LINE#         637
  -------         ENDPROC       _BFAPI_ENHANCEBLUE

  -------         PROC BANK=3   _BFAPI_SETHHTABLE
  X:A2EBH         SYMBOL        ptr
  -------         DO            
  X:A2EEH         SYMBOL        num
  X:A2EFH         SYMBOL        off
  D:0007H         SYMBOL        i
  -------         ENDDO         
 C3:E2E2H         LINE#         644
 C3:E2E8H         LINE#         645
 C3:E2E8H         LINE#         649
 C3:E2EBH         LINE#         650
 C3:E2F4H         LINE#         651
 C3:E2FAH         LINE#         652
BL51 BANKED LINKER/LOCATER V6.22                                                      01/06/2017  14:57:29  PAGE 179


 C3:E300H         LINE#         653
 C3:E300H         LINE#         654
 C3:E300H         LINE#         655
 C3:E305H         LINE#         656
 C3:E30BH         LINE#         657
 C3:E30BH         LINE#         659
 C3:E30BH         LINE#         660
 C3:E311H         LINE#         661
 C3:E314H         LINE#         662
 C3:E321H         LINE#         663
 C3:E327H         LINE#         664
 C3:E32AH         LINE#         665
 C3:E32CH         LINE#         666
 C3:E32CH         LINE#         667
 C3:E331H         LINE#         668
 C3:E331H         LINE#         669
 C3:E334H         LINE#         670
 C3:E337H         LINE#         671
  -------         ENDPROC       _BFAPI_SETHHTABLE

  -------         PROC BANK=3   _BFAPI_SETHSTABLE
  X:A2EBH         SYMBOL        ptr
  -------         DO            
  X:A2EEH         SYMBOL        num
  X:A2EFH         SYMBOL        off
  D:0007H         SYMBOL        i
  -------         ENDDO         
 C3:E222H         LINE#         677
 C3:E228H         LINE#         678
 C3:E228H         LINE#         682
 C3:E22BH         LINE#         683
 C3:E237H         LINE#         684
 C3:E23DH         LINE#         685
 C3:E243H         LINE#         686
 C3:E243H         LINE#         687
 C3:E243H         LINE#         688
 C3:E248H         LINE#         689
 C3:E24EH         LINE#         690
 C3:E24EH         LINE#         692
 C3:E24EH         LINE#         693
 C3:E254H         LINE#         694
 C3:E257H         LINE#         695
 C3:E264H         LINE#         696
 C3:E26DH         LINE#         697
 C3:E274H         LINE#         698
 C3:E276H         LINE#         699
 C3:E276H         LINE#         700
 C3:E27CH         LINE#         701
 C3:E27CH         LINE#         702
 C3:E27FH         LINE#         703
 C3:E282H         LINE#         704
  -------         ENDPROC       _BFAPI_SETHSTABLE

  -------         PROC BANK=3   _BFAPI_SETHITABLE
  X:A2EBH         SYMBOL        ptr
  -------         DO            
  X:A2EEH         SYMBOL        num
BL51 BANKED LINKER/LOCATER V6.22                                                      01/06/2017  14:57:29  PAGE 180


  X:A2EFH         SYMBOL        off
  D:0007H         SYMBOL        i
  -------         ENDDO         
 C3:DFAFH         LINE#         710
 C3:DFB5H         LINE#         711
 C3:DFB5H         LINE#         715
 C3:DFBCH         LINE#         717
 C3:DFC5H         LINE#         718
 C3:DFCCH         LINE#         719
 C3:DFD2H         LINE#         720
 C3:DFD8H         LINE#         721
 C3:DFD8H         LINE#         722
 C3:DFD8H         LINE#         723
 C3:DFDDH         LINE#         724
 C3:DFE3H         LINE#         725
 C3:DFE3H         LINE#         727
 C3:DFEAH         LINE#         728
 C3:DFEFH         LINE#         729
 C3:DFF2H         LINE#         730
 C3:DFFFH         LINE#         731
 C3:E008H         LINE#         732
 C3:E00FH         LINE#         733
 C3:E011H         LINE#         734
 C3:E011H         LINE#         735
 C3:E017H         LINE#         736
 C3:E017H         LINE#         737
 C3:E01AH         LINE#         738
 C3:E01DH         LINE#         739
  -------         ENDPROC       _BFAPI_SETHITABLE

  -------         PROC BANK=3   _BFAPI_COLORENHANCE
  X:A2EBH         SYMBOL        mode
  -------         DO            
  C:3F46H         SYMBOL        NVT72Tab
  C:3F5EH         SYMBOL        NVT74Tab
  C:3F76H         SYMBOL        NVT76Tab
  C:3F8EH         SYMBOL        NVT78Tab
  C:3FA6H         SYMBOL        NVT80Tab
  C:3FBEH         SYMBOL        ColorEnTab
  D:0001H         SYMBOL        ptr
  -------         ENDDO         
 C3:E7A2H         LINE#         753
 C3:E7A7H         LINE#         754
 C3:E7A7H         LINE#         784
 C3:E7ACH         LINE#         785
 C3:E7B2H         LINE#         786
 C3:E7B4H         LINE#         787
 C3:E7B4H         LINE#         788
 C3:E7D0H         LINE#         789
 C3:E7D3H         LINE#         790
 C3:E7D3H         LINE#         791
  -------         ENDPROC       _BFAPI_COLORENHANCE

  -------         PROC BANK=3   _BFAPI_SETLOCALMATRIX
  X:A2EEH         SYMBOL        ptr
  -------         DO            
  C:3FCDH         SYMBOL        DefaultTab
BL51 BANKED LINKER/LOCATER V6.22                                                      01/06/2017  14:57:29  PAGE 181


  X:A2F1H         SYMBOL        i
  X:A2F2H         SYMBOL        j
  X:A2F3H         SYMBOL        tmpReg
  -------         ENDDO         
 C3:CE91H         LINE#         797
 C3:CE97H         LINE#         798
 C3:CE97H         LINE#         806
 C3:CEA1H         LINE#         807
 C3:CEAFH         LINE#         808
 C3:CEB3H         LINE#         809
 C3:CEC1H         LINE#         810
 C3:CEC3H         LINE#         811
 C3:CEC3H         LINE#         812
 C3:CEC7H         LINE#         813
 C3:CEC7H         LINE#         815
 C3:CED9H         LINE#         816
 C3:CEE6H         LINE#         817
 C3:CEF5H         LINE#         818
 C3:CF36H         LINE#         819
 C3:CF3EH         LINE#         820
 C3:CF61H         LINE#         821
 C3:CF6AH         LINE#         823
 C3:CF76H         LINE#         824
  -------         ENDPROC       _BFAPI_SETLOCALMATRIX

  -------         PROC BANK=3   BFAPI_ENABLEACEMODE
  -------         DO            
  D:0007H         SYMBOL        tmpReg
  -------         ENDDO         
 C3:EBECH         LINE#         829
 C3:EBECH         LINE#         830
 C3:EBECH         LINE#         833
 C3:EBECH         LINE#         835
 C3:EBF1H         LINE#         836
 C3:EBF7H         LINE#         838
 C3:EBFBH         LINE#         841
 C3:EBFEH         LINE#         846
 C3:EC02H         LINE#         847
  -------         ENDPROC       BFAPI_ENABLEACEMODE

  -------         PROC BANK=3   BFAPI_DISABLEACEMODE
  -------         DO            
  D:0007H         SYMBOL        tmpReg
  -------         ENDDO         
 C3:ECB3H         LINE#         852
 C3:ECB3H         LINE#         853
 C3:ECB3H         LINE#         856
 C3:ECB3H         LINE#         858
 C3:ECB8H         LINE#         859
 C3:ECBEH         LINE#         861
 C3:ECC2H         LINE#         862
 C3:ECC7H         LINE#         863
  -------         ENDPROC       BFAPI_DISABLEACEMODE

  -------         PROC BANK=3   _BFAPI_SETPREACEMODE
  X:A2EEH         SYMBOL        ptr
  -------         DO            
BL51 BANKED LINKER/LOCATER V6.22                                                      01/06/2017  14:57:29  PAGE 182


  C:3FE5H         SYMBOL        DefaultIG
  D:0005H         SYMBOL        i
  D:0004H         SYMBOL        tmpReg
  X:A2F1H         SYMBOL        pIG
  -------         ENDDO         
 C3:DAEDH         LINE#         869
 C3:DAF3H         LINE#         870
 C3:DAF3H         LINE#         876
 C3:DAFAH         LINE#         877
 C3:DB01H         LINE#         878
 C3:DB05H         LINE#         880
 C3:DB09H         LINE#         881
 C3:DB0DH         LINE#         883
 C3:DB18H         LINE#         884
 C3:DB26H         LINE#         886
 C3:DB35H         LINE#         888
 C3:DB46H         LINE#         889
 C3:DB5FH         LINE#         890
 C3:DB61H         LINE#         891
 C3:DB64H         LINE#         894
 C3:DB6DH         LINE#         895
 C3:DB70H         LINE#         896
 C3:DB73H         LINE#         897
 C3:DB7AH         LINE#         898
  -------         ENDPROC       _BFAPI_SETPREACEMODE
  -------         ENDMOD        BFAPI

  -------         MODULE        MATRIX
  C:0000H         SYMBOL        _ICE_DUMMY_
  X:A66EH         SYMBOL        ucMtxOffset
 C3:ED6EH         PUBLIC        _MTXAPI_SetROffset
 C3:ED60H         PUBLIC        _MTXAPI_SetBGain
 C3:E8C9H         PUBLIC        _MTXAPI_SetRGBOffset
 C3:EDAFH         PUBLIC        _MTXAPI_SetRGBOffsetValue
 C3:EE2DH         PUBLIC        _MTXAPI_SetGGain
 C3:EE24H         PUBLIC        _MTXAPI_SetRGain
 C3:BD88H         PUBLIC        _MTXAPI_SetContrast
 C3:EE8AH         PUBLIC        _MTXAPI_SetContrastValue
 C3:EDD2H         PUBLIC        _MTXAPI_SetRGBGain
 C3:EB8BH         PUBLIC        _MTXAPI_SetRGBGainValue
  X:A671H         SYMBOL        ucMtxCfg
  X:A672H         SYMBOL        usMtxGain
 C3:EBA4H         PUBLIC        _MTXAPI_SelMatrix
  X:A678H         SYMBOL        ucMtxCn
 C3:EB31H         PUBLIC        _MTXAPI_EnableLocalMatrix
  C:4C5EH         SYMBOL        iDefaultTab
  C:4C31H         SYMBOL        SpecTab_MTXVersion
 C3:ED7CH         PUBLIC        _MTXAPI_SetBOffset
 C3:ED22H         PUBLIC        _MTXAPI_SetGOffset
 C3:E489H         SYMBOL        Com0029
 C3:E489H         SYMBOL        L?0042
 C3:E489H         SYMBOL        L?0043
 C3:E4A1H         SYMBOL        L?0044
 C3:E4A1H         SYMBOL        L?0045
 C3:E4AAH         SYMBOL        L?0046
 C3:E4AAH         SYMBOL        L?0047
 C3:E4B3H         SYMBOL        L?0048
BL51 BANKED LINKER/LOCATER V6.22                                                      01/06/2017  14:57:29  PAGE 183


 C3:E4C1H         SYMBOL        L?0049
 C3:E4CCH         SYMBOL        L?0050
  -------         PROC          COM0029
  -------         ENDPROC       COM0029

  -------         PROC BANK=3   _MTXAPI_SETCONTRASTVALUE
  D:0007H         SYMBOL        cn
 C3:EE8AH         LINE#         186
 C3:EE8AH         LINE#         187
 C3:EE8AH         LINE#         188
 C3:EE8FH         LINE#         189
  -------         ENDPROC       _MTXAPI_SETCONTRASTVALUE

  -------         PROC BANK=3   _MTXAPI_SETCONTRAST
  X:A2F7H         SYMBOL        cn
  -------         DO            
  X:A2F8H         SYMBOL        i
  X:A2F9H         SYMBOL        j
  X:A2FAH         SYMBOL        temp
  X:A2FCH         SYMBOL        result
  -------         ENDDO         
 C3:BD88H         LINE#         196
 C3:BD8DH         LINE#         197
 C3:BD8DH         LINE#         208
 C3:BD90H         LINE#         211
 C3:BD95H         LINE#         212
 C3:BD9AH         LINE#         213
 C3:BDD6H         LINE#         214
 C3:BDE0H         LINE#         215
 C3:BDEAH         LINE#         217
 C3:BE0EH         LINE#         218
 C3:BE32H         LINE#         219
 C3:BE56H         LINE#         241
 C3:BE61H         LINE#         242
 C3:BE65H         LINE#         243
 C3:BE67H         LINE#         244
 C3:BE67H         LINE#         245
 C3:BE6BH         LINE#         246
 C3:BE6BH         LINE#         247
 C3:BE72H         LINE#         248
 C3:BE76H         LINE#         249
 C3:BE78H         LINE#         250
 C3:BE78H         LINE#         251
 C3:BE7CH         LINE#         252
 C3:BE7CH         LINE#         253
 C3:BE83H         LINE#         255
 C3:BE95H         LINE#         256
 C3:BEA1H         LINE#         257
 C3:BEA6H         LINE#         258
 C3:BF1CH         LINE#         259
 C3:BF24H         LINE#         260
 C3:BF2EH         LINE#         261
 C3:BF39H         LINE#         262
 C3:BF43H         LINE#         263
 C3:BF43H         LINE#         264
 C3:BF5EH         LINE#         265
 C3:BF6DH         LINE#         266
BL51 BANKED LINKER/LOCATER V6.22                                                      01/06/2017  14:57:29  PAGE 184


 C3:BF76H         LINE#         268
 C3:BF79H         LINE#         269
 C3:BF80H         LINE#         270
  -------         ENDPROC       _MTXAPI_SETCONTRAST

  -------         PROC BANK=3   _MTXAPI_SETRGAIN
  D:0006H         SYMBOL        gn
 C3:EE24H         LINE#         277
 C3:EE24H         LINE#         278
 C3:EE24H         LINE#         279
 C3:EE27H         LINE#         280
  -------         ENDPROC       _MTXAPI_SETRGAIN

  -------         PROC BANK=3   _MTXAPI_SETGGAIN
  D:0006H         SYMBOL        gn
 C3:EE2DH         LINE#         288
 C3:EE2DH         LINE#         289
 C3:EE2DH         LINE#         290
 C3:EE30H         LINE#         291
  -------         ENDPROC       _MTXAPI_SETGGAIN

  -------         PROC BANK=3   _MTXAPI_SETBGAIN
  D:0006H         SYMBOL        gn
 C3:ED60H         LINE#         299
 C3:ED60H         LINE#         300
 C3:ED60H         LINE#         301
 C3:ED68H         LINE#         302
  -------         ENDPROC       _MTXAPI_SETBGAIN

  -------         PROC BANK=3   _MTXAPI_SETRGBGAINVALUE
  D:0006H         SYMBOL        r
  D:0004H         SYMBOL        g
  D:0002H         SYMBOL        b
 C3:EB8BH         LINE#         312
 C3:EB8BH         LINE#         313
 C3:EB8BH         LINE#         314
 C3:EB93H         LINE#         315
 C3:EB9BH         LINE#         316
 C3:EBA3H         LINE#         317
  -------         ENDPROC       _MTXAPI_SETRGBGAINVALUE

  -------         PROC BANK=3   _MTXAPI_SETRGBGAIN
  D:0006H         SYMBOL        r
  D:0004H         SYMBOL        g
  D:0002H         SYMBOL        b
 C3:EDD2H         LINE#         326
 C3:EDD2H         LINE#         327
 C3:EDD2H         LINE#         328
 C3:EDD5H         LINE#         329
  -------         ENDPROC       _MTXAPI_SETRGBGAIN

  -------         PROC BANK=3   _MTXAPI_SETROFFSET
  D:0007H         SYMBOL        off
 C3:ED6EH         LINE#         337
 C3:ED6EH         LINE#         338
 C3:ED6EH         LINE#         339
 C3:ED73H         LINE#         340
BL51 BANKED LINKER/LOCATER V6.22                                                      01/06/2017  14:57:29  PAGE 185


  -------         ENDPROC       _MTXAPI_SETROFFSET

  -------         PROC BANK=3   _MTXAPI_SETGOFFSET
  D:0006H         SYMBOL        off
 C3:ED22H         LINE#         348
 C3:ED22H         LINE#         349
 C3:ED22H         LINE#         350
 C3:ED25H         LINE#         351
  -------         ENDPROC       _MTXAPI_SETGOFFSET

  -------         PROC BANK=3   _MTXAPI_SETBOFFSET
  D:0006H         SYMBOL        off
 C3:ED7CH         LINE#         359
 C3:ED7CH         LINE#         360
 C3:ED7CH         LINE#         361
 C3:ED7FH         LINE#         362
  -------         ENDPROC       _MTXAPI_SETBOFFSET

  -------         PROC BANK=3   _MTXAPI_SETRGBOFFSETVALUE
  D:0007H         SYMBOL        r
  D:0005H         SYMBOL        g
  D:0003H         SYMBOL        b
 C3:EDAFH         LINE#         372
 C3:EDAFH         LINE#         373
 C3:EDAFH         LINE#         374
 C3:EDB4H         LINE#         375
 C3:EDB7H         LINE#         376
 C3:EDBAH         LINE#         377
  -------         ENDPROC       _MTXAPI_SETRGBOFFSETVALUE

  -------         PROC BANK=3   _MTXAPI_SETRGBOFFSET
  D:0007H         SYMBOL        r
  D:0005H         SYMBOL        g
  D:0003H         SYMBOL        b
  -------         DO            
  D:0004H         SYMBOL        i
  -------         ENDDO         
 C3:E8C9H         LINE#         386
 C3:E8C9H         LINE#         387
 C3:E8C9H         LINE#         390
 C3:E8CCH         LINE#         392
 C3:E8CEH         LINE#         393
 C3:E8DCH         LINE#         394
 C3:E8EBH         LINE#         395
 C3:E8F0H         LINE#         397
 C3:E8F7H         LINE#         398
  -------         ENDPROC       _MTXAPI_SETRGBOFFSET

  -------         PROC BANK=3   _MTXAPI_SELMATRIX
  D:0007H         SYMBOL        type
 C3:EBA4H         LINE#         428
 C3:EBA4H         LINE#         429
 C3:EBA4H         LINE#         430
 C3:EBAAH         LINE#         431
 C3:EBBCH         LINE#         432
 C3:EBBCH         LINE#         433
  -------         ENDPROC       _MTXAPI_SELMATRIX
BL51 BANKED LINKER/LOCATER V6.22                                                      01/06/2017  14:57:29  PAGE 186



  -------         PROC BANK=3   _MTXAPI_ENABLELOCALMATRIX
  D:0007H         SYMBOL        en
 C3:EB31H         LINE#         439
 C3:EB31H         LINE#         440
 C3:EB31H         LINE#         441
 C3:EB37H         LINE#         442
 C3:EB3DH         LINE#         443
 C3:EB44H         LINE#         444
 C3:EB45H         LINE#         445
 C3:EB45H         LINE#         446
 C3:EB49H         LINE#         447
 C3:EB50H         LINE#         448
 C3:EB50H         LINE#         449
  -------         ENDPROC       _MTXAPI_ENABLELOCALMATRIX
  -------         ENDMOD        MATRIX

  -------         MODULE        DCR
  C:0000H         SYMBOL        _ICE_DUMMY_
  X:A527H         PUBLIC        usCurHisgrm
  X:A547H         PUBLIC        ulCurHisgrmTotal
  X:A54BH         PUBLIC        usPrvHisgrm
 C3:DD78H         PUBLIC        DCR_IsSceneChanged
  X:A56BH         SYMBOL        VersionPtr
 C3:D11FH         PUBLIC        _DCR_UpdateHistogram
  C:4DD4H         SYMBOL        SpecTab_DCRVersion
 C3:ECF0H         PUBLIC        _DCR_GetHistogramDiff
 C3:ED32H         PUBLIC        DCR_UpdatePrevHistogram
 C3:E69BH         SYMBOL        Com001C
 C3:E69BH         SYMBOL        L?0029
 C3:E6ACH         SYMBOL        L?0030
 C3:E6B9H         SYMBOL        L?0031
 C3:E6B9H         SYMBOL        L?0032
 C3:E6C5H         SYMBOL        L?0033
  -------         PROC          COM001C
  -------         ENDPROC       COM001C

  -------         PROC BANK=3   _DCR_UPDATEHISTOGRAM
  D:0003H         SYMBOL        reset
  -------         DO            
  X:A2EFH         SYMBOL        i
  X:A2F0H         SYMBOL        tmpHis1
  X:A2F1H         SYMBOL        tmpHis2
  X:A2F2H         SYMBOL        tmpHis3
  X:A2F3H         SYMBOL        reg
  -------         ENDDO         
 C3:D11FH         LINE#         69
 C3:D121H         LINE#         70
 C3:D121H         LINE#         72
 C3:D126H         LINE#         74
 C3:D130H         LINE#         75
 C3:D132H         LINE#         77
 C3:D139H         LINE#         78
 C3:D140H         LINE#         80
 C3:D148H         LINE#         83
 C3:D152H         LINE#         85
 C3:D155H         LINE#         86
BL51 BANKED LINKER/LOCATER V6.22                                                      01/06/2017  14:57:29  PAGE 187


 C3:D164H         LINE#         87
 C3:D16CH         LINE#         88
 C3:D173H         LINE#         89
 C3:D17BH         LINE#         90
 C3:D17BH         LINE#         91
 C3:D17BH         LINE#         92
 C3:D180H         LINE#         93
 C3:D188H         LINE#         94
 C3:D190H         LINE#         95
 C3:D198H         LINE#         96
 C3:D1B3H         LINE#         97
 C3:D1D3H         LINE#         98
 C3:D1DEH         LINE#         99
 C3:D1DEH         LINE#         101
 C3:D1E8H         LINE#         103
 C3:D1E9H         LINE#         104
  -------         ENDPROC       _DCR_UPDATEHISTOGRAM

  -------         PROC BANK=3   DCR_UPDATEPREVHISTOGRAM
  -------         DO            
  D:0007H         SYMBOL        i
  -------         ENDDO         
 C3:ED32H         LINE#         109
 C3:ED32H         LINE#         110
 C3:ED32H         LINE#         112
 C3:ED34H         LINE#         113
 C3:ED3CH         LINE#         114
 C3:ED41H         LINE#         115
  -------         ENDPROC       DCR_UPDATEPREVHISTOGRAM

  -------         PROC BANK=3   _DCR_GETHISTOGRAMDIFF
  D:0007H         SYMBOL        index
 C3:ECF0H         LINE#         122
 C3:ECF0H         LINE#         123
 C3:ECF0H         LINE#         124
 C3:ED00H         LINE#         125
  -------         ENDPROC       _DCR_GETHISTOGRAMDIFF

  -------         PROC BANK=3   DCR_ISSCENECHANGED
  -------         DO            
  X:A2F4H         SYMBOL        i
  X:A2F5H         SYMBOL        diff_cnt
  X:A2F6H         SYMBOL        scv_diff
  -------         ENDDO         
 C3:DD78H         LINE#         131
 C3:DD78H         LINE#         132
 C3:DD78H         LINE#         137
 C3:DD86H         LINE#         138
 C3:DD88H         LINE#         140
 C3:DD8DH         LINE#         141
 C3:DD8FH         LINE#         144
 C3:DD9DH         LINE#         145
 C3:DDA9H         LINE#         146
 C3:DDAFH         LINE#         150
 C3:DDB3H         LINE#         151
 C3:DDBAH         LINE#         152
 C3:DDBEH         LINE#         153
BL51 BANKED LINKER/LOCATER V6.22                                                      01/06/2017  14:57:29  PAGE 188


 C3:DDBEH         LINE#         154
 C3:DDC0H         LINE#         155
 C3:DDC0H         LINE#         156
 C3:DDC7H         LINE#         157
 C3:DDC7H         LINE#         158
 C3:DDCFH         LINE#         160
 C3:DDDFH         LINE#         163
 C3:DDE1H         LINE#         164
 C3:DDE1H         LINE#         165
 C3:DDE7H         LINE#         166
 C3:DDE9H         LINE#         167
 C3:DDE9H         LINE#         169
 C3:DDEAH         LINE#         170
  -------         ENDPROC       DCR_ISSCENECHANGED
  -------         ENDMOD        DCR

  -------         MODULE        DCR_SETDYMACE
  C:0000H         SYMBOL        _ICE_DUMMY_
  X:A438H         SYMBOL        usCurIG
  X:A458H         SYMBOL        usNewIG
  X:A478H         SYMBOL        ucACEMode
 C3:C450H         PUBLIC        _DCR_SetDymACE
  B:0025H.5       SYMBOL        bUpdateIG
 C3:EE90H         PUBLIC        _DCR_SetDynACEType
 C3:E4D6H         PUBLIC        _DCR_SetDynACEPnts
 C3:CDA2H         SYMBOL        DCR_NewIGByHistogram
  X:A479H         SYMBOL        usLowerBond
  X:A47BH         SYMBOL        ucMinIGTable
 C3:DECEH         SYMBOL        Com0035
 C3:DECEH         SYMBOL        L?0054
 C3:DEDFH         SYMBOL        L?0055
 C3:DEE0H         SYMBOL        L?0056
 C3:DEECH         SYMBOL        L?0057
 C3:DEF1H         SYMBOL        L?0058
 C3:DEF2H         SYMBOL        L?0059
 C3:DEFEH         SYMBOL        L?0060
 C3:DEFFH         SYMBOL        L?0061
 C3:DF02H         SYMBOL        L?0062
 C3:DF0AH         SYMBOL        L?0063
 C3:DF1CH         SYMBOL        L?0064
 C3:DF21H         SYMBOL        L?0065
 C3:DF28H         SYMBOL        L?0066
 C3:DF34H         SYMBOL        L?0067
  -------         PROC          COM0035
  -------         ENDPROC       COM0035

  -------         PROC BANK=3   DCR_NEWIGBYHISTOGRAM
  -------         DO            
  B:0020H.3       SYMBOL        pure
  X:A2F3H         SYMBOL        i
  -------         ENDDO         
 C3:CDA2H         LINE#         63
 C3:CDA2H         LINE#         64
 C3:CDA2H         LINE#         68
 C3:CDACH         LINE#         70
 C3:CDB2H         LINE#         71
 C3:CDB2H         LINE#         73
BL51 BANKED LINKER/LOCATER V6.22                                                      01/06/2017  14:57:29  PAGE 189


 C3:CDBAH         LINE#         74
 C3:CDBDH         LINE#         75
 C3:CDBFH         LINE#         76
 C3:CDC4H         LINE#         80
 C3:CE14H         LINE#         85
 C3:CE24H         LINE#         86
 C3:CE26H         LINE#         87
 C3:CE28H         LINE#         88
 C3:CE28H         LINE#         90
 C3:CE3AH         LINE#         92
 C3:CE3DH         LINE#         93
 C3:CE3DH         LINE#         94
 C3:CE3DH         LINE#         95
 C3:CE56H         LINE#         96
 C3:CE64H         LINE#         99
 C3:CE67H         LINE#         100
 C3:CE6CH         LINE#         101
 C3:CE83H         LINE#         102
 C3:CE8DH         LINE#         103
 C3:CE8DH         LINE#         105
 C3:CE8FH         LINE#         106
 C3:CE8FH         LINE#         108
 C3:CE90H         LINE#         109
  -------         ENDPROC       DCR_NEWIGBYHISTOGRAM

  -------         PROC BANK=3   _DCR_SETDYNACETYPE
  D:0007H         SYMBOL        type
 C3:EE90H         LINE#         118
 C3:EE90H         LINE#         119
 C3:EE90H         LINE#         120
 C3:EE95H         LINE#         121
  -------         ENDPROC       _DCR_SETDYNACETYPE

  -------         PROC BANK=3   _DCR_SETDYNACEPNTS
  X:A2F4H         SYMBOL        ptr
  -------         DO            
  D:0007H         SYMBOL        i
  -------         ENDDO         
 C3:E4D6H         LINE#         127
 C3:E4E1H         LINE#         128
 C3:E4E1H         LINE#         131
 C3:E4E8H         LINE#         132
 C3:E4EFH         LINE#         133
 C3:E4F0H         LINE#         134
 C3:E4F5H         LINE#         135
 C3:E4F8H         LINE#         136
 C3:E4FFH         LINE#         137
 C3:E4FFH         LINE#         138
 C3:E4FFH         LINE#         139
 C3:E501H         LINE#         140
 C3:E512H         LINE#         141
 C3:E515H         LINE#         142
 C3:E51BH         LINE#         143
 C3:E51BH         LINE#         144
  -------         ENDPROC       _DCR_SETDYNACEPNTS

  -------         PROC BANK=3   _DCR_SETDYMACE
BL51 BANKED LINKER/LOCATER V6.22                                                      01/06/2017  14:57:29  PAGE 190


  X:A2EFH         SYMBOL        reset
  -------         DO            
  X:A2F0H         SYMBOL        i
  D:0005H         SYMBOL        reg
  X:A2F1H         SYMBOL        tmp_cur
  D:0006H         SYMBOL        tmp_new
  -------         ENDDO         
 C3:C450H         LINE#         150
 C3:C455H         LINE#         151
 C3:C455H         LINE#         155
 C3:C457H         LINE#         156
 C3:C45AH         LINE#         157
 C3:C471H         LINE#         158
 C3:C47CH         LINE#         159
 C3:C483H         LINE#         160
 C3:C483H         LINE#         162
 C3:C494H         LINE#         163
 C3:C496H         LINE#         164
 C3:C49FH         LINE#         165
 C3:C4A3H         LINE#         166
 C3:C4B7H         LINE#         167
 C3:C4BFH         LINE#         168
 C3:C4CDH         LINE#         169
 C3:C4E0H         LINE#         170
 C3:C4EDH         LINE#         172
 C3:C4FFH         LINE#         173
 C3:C501H         LINE#         174
 C3:C503H         LINE#         175
 C3:C510H         LINE#         176
 C3:C529H         LINE#         177
 C3:C535H         LINE#         179
 C3:C53DH         LINE#         180
 C3:C53FH         LINE#         181
 C3:C53FH         LINE#         182
 C3:C54CH         LINE#         183
 C3:C54CH         LINE#         184
 C3:C54CH         LINE#         185
 C3:C551H         LINE#         186
 C3:C558H         LINE#         187
 C3:C55FH         LINE#         188
 C3:C55FH         LINE#         190
 C3:C566H         LINE#         191
 C3:C56DH         LINE#         192
 C3:C571H         LINE#         193
 C3:C575H         LINE#         194
 C3:C579H         LINE#         197
 C3:C57EH         LINE#         198
 C3:C57FH         LINE#         199
 C3:C58DH         LINE#         200
 C3:C598H         LINE#         201
 C3:C59AH         LINE#         202
 C3:C59FH         LINE#         203
 C3:C5A4H         LINE#         204
 C3:C5A7H         LINE#         207
 C3:C5B0H         LINE#         208
 C3:C5B3H         LINE#         209
 C3:C5B6H         LINE#         210
BL51 BANKED LINKER/LOCATER V6.22                                                      01/06/2017  14:57:29  PAGE 191


 C3:C5BDH         LINE#         211
 C3:C5BDH         LINE#         212
  -------         ENDPROC       _DCR_SETDYMACE
  -------         ENDMOD        DCR_SETDYMACE

  -------         MODULE        ?C?FPADD
  C:15C4H         PUBLIC        ?C?FPADD
  C:15C0H         PUBLIC        ?C?FPSUB
  -------         ENDMOD        ?C?FPADD

  -------         MODULE        ?C?FPMUL
  C:16B5H         PUBLIC        ?C?FPMUL
  -------         ENDMOD        ?C?FPMUL

  -------         MODULE        ?C?FPDIV
  C:17BEH         PUBLIC        ?C?FPDIV
  -------         ENDMOD        ?C?FPDIV

  -------         MODULE        ?C?FPCMP
  C:185DH         PUBLIC        ?C?FPCMP
  C:185BH         PUBLIC        ?C?FPCMP3
  -------         ENDMOD        ?C?FPCMP

  -------         MODULE        ?C?FCAST
  C:18DEH         PUBLIC        ?C?FCASTC
  C:18D9H         PUBLIC        ?C?FCASTI
  C:18D4H         PUBLIC        ?C?FCASTL
  -------         ENDMOD        ?C?FCAST

  -------         MODULE        ?C?CASTF
  C:1912H         PUBLIC        ?C?CASTF
  -------         ENDMOD        ?C?CASTF

  -------         MODULE        PRINTF
  X:A32EH         PUBLIC        ?_PRINTF?BYTE
  X:A32EH         PUBLIC        ?_SPRINTF?BYTE
  C:2211H         PUBLIC        _PRINTF
  C:220BH         PUBLIC        _SPRINTF
  -------         ENDMOD        PRINTF

  -------         MODULE        ?C?FPROUND
  C:1993H         PUBLIC        ?C?FPROUND
  -------         ENDMOD        ?C?FPROUND

  -------         MODULE        ?C?FPCONVERT
  C:19D0H         PUBLIC        ?C?FPCONVERT
  -------         ENDMOD        ?C?FPCONVERT

  -------         MODULE        ?C?FTNPWR
  C:1B05H         PUBLIC        ?C?FTNPWR
  -------         ENDMOD        ?C?FTNPWR

  -------         MODULE        ?C?COPY
  C:1C15H         PUBLIC        ?C?COPY
  -------         ENDMOD        ?C?COPY

  -------         MODULE        ?C?CLDPTR
BL51 BANKED LINKER/LOCATER V6.22                                                      01/06/2017  14:57:29  PAGE 192


  C:1C3BH         PUBLIC        ?C?CLDPTR
  -------         ENDMOD        ?C?CLDPTR

  -------         MODULE        ?C?CLDOPTR
  C:1C54H         PUBLIC        ?C?CLDOPTR
  -------         ENDMOD        ?C?CLDOPTR

  -------         MODULE        ?C?CILDPTR
  C:1C81H         PUBLIC        ?C?CILDPTR
  -------         ENDMOD        ?C?CILDPTR

  -------         MODULE        ?C?CSTPTR
  C:1CA3H         PUBLIC        ?C?CSTPTR
  -------         ENDMOD        ?C?CSTPTR

  -------         MODULE        ?C?CSTOPTR
  C:1CB5H         PUBLIC        ?C?CSTOPTR
  -------         ENDMOD        ?C?CSTOPTR

  -------         MODULE        ?C?IMUL
  C:1CD7H         PUBLIC        ?C?IMUL
  -------         ENDMOD        ?C?IMUL

  -------         MODULE        ?C?UIDIV
  C:1CE9H         PUBLIC        ?C?UIDIV
  -------         ENDMOD        ?C?UIDIV

  -------         MODULE        ?C?SIDIV
  C:1D3EH         PUBLIC        ?C?SIDIV
  -------         ENDMOD        ?C?SIDIV

  -------         MODULE        ?C?IILDX
  C:1D74H         PUBLIC        ?C?IILDX
  -------         ENDMOD        ?C?IILDX

  -------         MODULE        ?C?ILDIX
  C:1D8AH         PUBLIC        ?C?ILDIX
  -------         ENDMOD        ?C?ILDIX

  -------         MODULE        ?C?ILDPTR
  C:1DA0H         PUBLIC        ?C?ILDPTR
  -------         ENDMOD        ?C?ILDPTR

  -------         MODULE        ?C?ILDOPTR
  C:1DCBH         PUBLIC        ?C?ILDOPTR
  -------         ENDMOD        ?C?ILDOPTR

  -------         MODULE        ?C?ISTPTR
  C:1E03H         PUBLIC        ?C?ISTPTR
  -------         ENDMOD        ?C?ISTPTR

  -------         MODULE        ?C?ISTOPTR
  C:1E22H         PUBLIC        ?C?ISTOPTR
  -------         ENDMOD        ?C?ISTOPTR

  -------         MODULE        ?C?LMUL
  C:1E4FH         PUBLIC        ?C?LMUL
BL51 BANKED LINKER/LOCATER V6.22                                                      01/06/2017  14:57:29  PAGE 193


  -------         ENDMOD        ?C?LMUL

  -------         MODULE        ?C?ULDIV
  C:1EDAH         PUBLIC        ?C?ULDIV
  -------         ENDMOD        ?C?ULDIV

  -------         MODULE        ?C?LNEG
  C:1F6CH         PUBLIC        ?C?LNEG
  -------         ENDMOD        ?C?LNEG

  -------         MODULE        ?C?SLCMP
  C:1F7AH         PUBLIC        ?C?SLCMP
  -------         ENDMOD        ?C?SLCMP

  -------         MODULE        ?C?ULCMP
  C:1F90H         PUBLIC        ?C?ULCMP
  -------         ENDMOD        ?C?ULCMP

  -------         MODULE        ?C?ULSHR
  C:1FA1H         PUBLIC        ?C?ULSHR
  -------         ENDMOD        ?C?ULSHR

  -------         MODULE        ?C?SLSHR
  C:1FB4H         PUBLIC        ?C?SLSHR
  -------         ENDMOD        ?C?SLSHR

  -------         MODULE        ?C?LSHL
  C:1FC8H         PUBLIC        ?C?LSHL
  -------         ENDMOD        ?C?LSHL

  -------         MODULE        ?C?LLDPTR
  C:1FDBH         PUBLIC        ?C?LLDPTR
  -------         ENDMOD        ?C?LLDPTR

  -------         MODULE        ?C?LLDXDATA
  C:1FFBH         PUBLIC        ?C?LLDXDATA
  -------         ENDMOD        ?C?LLDXDATA

  -------         MODULE        ?C?LSTXDATA
  C:2007H         PUBLIC        ?C?LSTXDATA
  -------         ENDMOD        ?C?LSTXDATA

  -------         MODULE        ?C?LSTKXDATA
  C:2013H         PUBLIC        ?C?LSTKXDATA
  -------         ENDMOD        ?C?LSTKXDATA

  -------         MODULE        ?C?OFFX256
  C:2044H         PUBLIC        ?C?OFFX256
  -------         ENDMOD        ?C?OFFX256

  -------         MODULE        ?C?OFFXADD
  C:2055H         PUBLIC        ?C?OFFXADD
  -------         ENDMOD        ?C?OFFXADD

  -------         MODULE        ?C?PLDXDATA
  C:2061H         PUBLIC        ?C?PLDXDATA
  -------         ENDMOD        ?C?PLDXDATA
BL51 BANKED LINKER/LOCATER V6.22                                                      01/06/2017  14:57:29  PAGE 194



  -------         MODULE        ?C?PLDIXDATA
  C:206AH         PUBLIC        ?C?PLDIXDATA
  -------         ENDMOD        ?C?PLDIXDATA

  -------         MODULE        ?C?PSTXDATA
  C:2081H         PUBLIC        ?C?PSTXDATA
  -------         ENDMOD        ?C?PSTXDATA

  -------         MODULE        ?C?PLDPTR
  C:208AH         PUBLIC        ?C?PLDPTR
  -------         ENDMOD        ?C?PLDPTR

  -------         MODULE        ?C?PLDOPTR
  C:20AAH         PUBLIC        ?C?PLDOPTR
  -------         ENDMOD        ?C?PLDOPTR

  -------         MODULE        ?C?CCASE
  C:20DAH         PUBLIC        ?C?CCASE
  -------         ENDMOD        ?C?CCASE

  -------         MODULE        ?C?ICASE
  C:2100H         PUBLIC        ?C?ICASE
  -------         ENDMOD        ?C?ICASE

  -------         MODULE        ?C?ICALL
  C:212DH         PUBLIC        ?C?ICALL
  C:2131H         PUBLIC        ?C?ICALL2
  -------         ENDMOD        ?C?ICALL

  -------         MODULE        ?C?LIMUL
  C:2133H         PUBLIC        ?C?LIMUL
  -------         ENDMOD        ?C?LIMUL

  -------         MODULE        ABS
  C:D96DH         PUBLIC        _ABS
  -------         ENDMOD        ABS

  -------         MODULE        LABS
  C:D99EH         PUBLIC        _LABS
  -------         ENDMOD        LABS

  -------         MODULE        ?C?LLDIDATA
  C:2160H         PUBLIC        ?C?LLDIDATA
  -------         ENDMOD        ?C?LLDIDATA

  -------         MODULE        ?C?LLDPDATA
  C:216CH         PUBLIC        ?C?LLDPDATA
  -------         ENDMOD        ?C?LLDPDATA

  -------         MODULE        ?C?LLDCODE
  C:2178H         PUBLIC        ?C?LLDCODE
  -------         ENDMOD        ?C?LLDCODE

  -------         MODULE        ?C?PLDIDATA
  C:2188H         PUBLIC        ?C?PLDIDATA
  -------         ENDMOD        ?C?PLDIDATA
BL51 BANKED LINKER/LOCATER V6.22                                                      01/06/2017  14:57:29  PAGE 195



  -------         MODULE        ?C?PLDPDATA
  C:2191H         PUBLIC        ?C?PLDPDATA
  -------         ENDMOD        ?C?PLDPDATA

  -------         MODULE        ?C?PLDCODE
  C:219AH         PUBLIC        ?C?PLDCODE
  -------         ENDMOD        ?C?PLDCODE

*** WARNING L16: UNCALLED SEGMENT, IGNORED FOR OVERLAY PROCESS
    SEGMENT: ?CO?MAIN

*** WARNING L16: UNCALLED SEGMENT, IGNORED FOR OVERLAY PROCESS
    SEGMENT: ?PR?OSDCTRL

Program Size: data=90.7 xdata=9147 code=329194
LINK/LOCATE RUN COMPLETE.  2 WARNING(S),  0 ERROR(S)
